ARM GAS  C:\Users\CompuTOP\AppData\Local\Temp\cc4hOfP8.s 			page 1


   1              		.cpu cortex-m7
   2              		.eabi_attribute 28, 1
   3              		.eabi_attribute 20, 1
   4              		.eabi_attribute 21, 1
   5              		.eabi_attribute 23, 3
   6              		.eabi_attribute 24, 1
   7              		.eabi_attribute 25, 1
   8              		.eabi_attribute 26, 1
   9              		.eabi_attribute 30, 1
  10              		.eabi_attribute 34, 1
  11              		.eabi_attribute 18, 4
  12              		.file	"stm32h7xx_hal_dma.c"
  13              		.text
  14              	.Ltext0:
  15              		.cfi_sections	.debug_frame
  16              		.section	.text.DMA_SetConfig,"ax",%progbits
  17              		.align	1
  18              		.syntax unified
  19              		.thumb
  20              		.thumb_func
  21              		.fpu fpv5-d16
  23              	DMA_SetConfig:
  24              	.LFB156:
  25              		.file 1 "Drivers/STM32H7xx_HAL_Driver/Src/stm32h7xx_hal_dma.c"
   1:Drivers/STM32H7xx_HAL_Driver/Src/stm32h7xx_hal_dma.c **** /**
   2:Drivers/STM32H7xx_HAL_Driver/Src/stm32h7xx_hal_dma.c ****   ******************************************************************************
   3:Drivers/STM32H7xx_HAL_Driver/Src/stm32h7xx_hal_dma.c ****   * @file    stm32h7xx_hal_dma.c
   4:Drivers/STM32H7xx_HAL_Driver/Src/stm32h7xx_hal_dma.c ****   * @author  MCD Application Team
   5:Drivers/STM32H7xx_HAL_Driver/Src/stm32h7xx_hal_dma.c ****   * @brief   DMA HAL module driver.
   6:Drivers/STM32H7xx_HAL_Driver/Src/stm32h7xx_hal_dma.c ****   *          This file provides firmware functions to manage the following
   7:Drivers/STM32H7xx_HAL_Driver/Src/stm32h7xx_hal_dma.c ****   *          functionalities of the Direct Memory Access (DMA) peripheral:
   8:Drivers/STM32H7xx_HAL_Driver/Src/stm32h7xx_hal_dma.c ****   *           + Initialization and de-initialization functions
   9:Drivers/STM32H7xx_HAL_Driver/Src/stm32h7xx_hal_dma.c ****   *           + IO operation functions
  10:Drivers/STM32H7xx_HAL_Driver/Src/stm32h7xx_hal_dma.c ****   *           + Peripheral State and errors functions
  11:Drivers/STM32H7xx_HAL_Driver/Src/stm32h7xx_hal_dma.c ****   ******************************************************************************
  12:Drivers/STM32H7xx_HAL_Driver/Src/stm32h7xx_hal_dma.c ****   * @attention
  13:Drivers/STM32H7xx_HAL_Driver/Src/stm32h7xx_hal_dma.c ****   *
  14:Drivers/STM32H7xx_HAL_Driver/Src/stm32h7xx_hal_dma.c ****   * Copyright (c) 2017 STMicroelectronics.
  15:Drivers/STM32H7xx_HAL_Driver/Src/stm32h7xx_hal_dma.c ****   * All rights reserved.
  16:Drivers/STM32H7xx_HAL_Driver/Src/stm32h7xx_hal_dma.c ****   *
  17:Drivers/STM32H7xx_HAL_Driver/Src/stm32h7xx_hal_dma.c ****   * This software is licensed under terms that can be found in the LICENSE file
  18:Drivers/STM32H7xx_HAL_Driver/Src/stm32h7xx_hal_dma.c ****   * in the root directory of this software component.
  19:Drivers/STM32H7xx_HAL_Driver/Src/stm32h7xx_hal_dma.c ****   * If no LICENSE file comes with this software, it is provided AS-IS.
  20:Drivers/STM32H7xx_HAL_Driver/Src/stm32h7xx_hal_dma.c ****   *
  21:Drivers/STM32H7xx_HAL_Driver/Src/stm32h7xx_hal_dma.c ****   ******************************************************************************
  22:Drivers/STM32H7xx_HAL_Driver/Src/stm32h7xx_hal_dma.c ****   @verbatim
  23:Drivers/STM32H7xx_HAL_Driver/Src/stm32h7xx_hal_dma.c ****   ==============================================================================
  24:Drivers/STM32H7xx_HAL_Driver/Src/stm32h7xx_hal_dma.c ****                         ##### How to use this driver #####
  25:Drivers/STM32H7xx_HAL_Driver/Src/stm32h7xx_hal_dma.c ****   ==============================================================================
  26:Drivers/STM32H7xx_HAL_Driver/Src/stm32h7xx_hal_dma.c ****   [..]
  27:Drivers/STM32H7xx_HAL_Driver/Src/stm32h7xx_hal_dma.c ****    (#) Enable and configure the peripheral to be connected to the DMA Stream
  28:Drivers/STM32H7xx_HAL_Driver/Src/stm32h7xx_hal_dma.c ****        (except for internal SRAM/FLASH memories: no initialization is
  29:Drivers/STM32H7xx_HAL_Driver/Src/stm32h7xx_hal_dma.c ****        necessary) please refer to Reference manual for connection between peripherals
  30:Drivers/STM32H7xx_HAL_Driver/Src/stm32h7xx_hal_dma.c ****        and DMA requests .
  31:Drivers/STM32H7xx_HAL_Driver/Src/stm32h7xx_hal_dma.c **** 
  32:Drivers/STM32H7xx_HAL_Driver/Src/stm32h7xx_hal_dma.c ****    (#) For a given Stream, program the required configuration through the following parameters:
  33:Drivers/STM32H7xx_HAL_Driver/Src/stm32h7xx_hal_dma.c ****        Transfer Direction, Source and Destination data formats,
ARM GAS  C:\Users\CompuTOP\AppData\Local\Temp\cc4hOfP8.s 			page 2


  34:Drivers/STM32H7xx_HAL_Driver/Src/stm32h7xx_hal_dma.c ****        Circular, Normal or peripheral flow control mode, Stream Priority level,
  35:Drivers/STM32H7xx_HAL_Driver/Src/stm32h7xx_hal_dma.c ****        Source and Destination Increment mode, FIFO mode and its Threshold (if needed),
  36:Drivers/STM32H7xx_HAL_Driver/Src/stm32h7xx_hal_dma.c ****        Burst mode for Source and/or Destination (if needed) using HAL_DMA_Init() function.
  37:Drivers/STM32H7xx_HAL_Driver/Src/stm32h7xx_hal_dma.c **** 
  38:Drivers/STM32H7xx_HAL_Driver/Src/stm32h7xx_hal_dma.c ****      *** Polling mode IO operation ***
  39:Drivers/STM32H7xx_HAL_Driver/Src/stm32h7xx_hal_dma.c ****      =================================
  40:Drivers/STM32H7xx_HAL_Driver/Src/stm32h7xx_hal_dma.c ****     [..]
  41:Drivers/STM32H7xx_HAL_Driver/Src/stm32h7xx_hal_dma.c ****           (+) Use HAL_DMA_Start() to start DMA transfer after the configuration of Source
  42:Drivers/STM32H7xx_HAL_Driver/Src/stm32h7xx_hal_dma.c ****               address and destination address and the Length of data to be transferred
  43:Drivers/STM32H7xx_HAL_Driver/Src/stm32h7xx_hal_dma.c ****           (+) Use HAL_DMA_PollForTransfer() to poll for the end of current transfer, in this
  44:Drivers/STM32H7xx_HAL_Driver/Src/stm32h7xx_hal_dma.c ****               case a fixed Timeout can be configured by User depending from his application.
  45:Drivers/STM32H7xx_HAL_Driver/Src/stm32h7xx_hal_dma.c **** 
  46:Drivers/STM32H7xx_HAL_Driver/Src/stm32h7xx_hal_dma.c ****      *** Interrupt mode IO operation ***
  47:Drivers/STM32H7xx_HAL_Driver/Src/stm32h7xx_hal_dma.c ****      ===================================
  48:Drivers/STM32H7xx_HAL_Driver/Src/stm32h7xx_hal_dma.c ****     [..]
  49:Drivers/STM32H7xx_HAL_Driver/Src/stm32h7xx_hal_dma.c ****           (+) Configure the DMA interrupt priority using HAL_NVIC_SetPriority()
  50:Drivers/STM32H7xx_HAL_Driver/Src/stm32h7xx_hal_dma.c ****           (+) Enable the DMA IRQ handler using HAL_NVIC_EnableIRQ()
  51:Drivers/STM32H7xx_HAL_Driver/Src/stm32h7xx_hal_dma.c ****           (+) Use HAL_DMA_Start_IT() to start DMA transfer after the configuration of
  52:Drivers/STM32H7xx_HAL_Driver/Src/stm32h7xx_hal_dma.c ****               Source address and destination address and the Length of data to be transferred. In t
  53:Drivers/STM32H7xx_HAL_Driver/Src/stm32h7xx_hal_dma.c ****               case the DMA interrupt is configured
  54:Drivers/STM32H7xx_HAL_Driver/Src/stm32h7xx_hal_dma.c ****           (+) Use HAL_DMA_IRQHandler() called under DMA_IRQHandler() Interrupt subroutine
  55:Drivers/STM32H7xx_HAL_Driver/Src/stm32h7xx_hal_dma.c ****           (+) At the end of data transfer HAL_DMA_IRQHandler() function is executed and user can
  56:Drivers/STM32H7xx_HAL_Driver/Src/stm32h7xx_hal_dma.c ****               add his own function by customization of function pointer XferCpltCallback and
  57:Drivers/STM32H7xx_HAL_Driver/Src/stm32h7xx_hal_dma.c ****               XferErrorCallback (i.e a member of DMA handle structure).
  58:Drivers/STM32H7xx_HAL_Driver/Src/stm32h7xx_hal_dma.c ****     [..]
  59:Drivers/STM32H7xx_HAL_Driver/Src/stm32h7xx_hal_dma.c ****      (#) Use HAL_DMA_GetState() function to return the DMA state and HAL_DMA_GetError() in case of 
  60:Drivers/STM32H7xx_HAL_Driver/Src/stm32h7xx_hal_dma.c ****          detection.
  61:Drivers/STM32H7xx_HAL_Driver/Src/stm32h7xx_hal_dma.c **** 
  62:Drivers/STM32H7xx_HAL_Driver/Src/stm32h7xx_hal_dma.c ****      (#) Use HAL_DMA_Abort() function to abort the current transfer
  63:Drivers/STM32H7xx_HAL_Driver/Src/stm32h7xx_hal_dma.c **** 
  64:Drivers/STM32H7xx_HAL_Driver/Src/stm32h7xx_hal_dma.c ****      -@-   In Memory-to-Memory transfer mode, Circular mode is not allowed.
  65:Drivers/STM32H7xx_HAL_Driver/Src/stm32h7xx_hal_dma.c **** 
  66:Drivers/STM32H7xx_HAL_Driver/Src/stm32h7xx_hal_dma.c ****      -@-   The FIFO is used mainly to reduce bus usage and to allow data packing/unpacking: it is
  67:Drivers/STM32H7xx_HAL_Driver/Src/stm32h7xx_hal_dma.c ****            possible to set different Data Sizes for the Peripheral and the Memory (ie. you can set
  68:Drivers/STM32H7xx_HAL_Driver/Src/stm32h7xx_hal_dma.c ****            Half-Word data size for the peripheral to access its data register and set Word data siz
  69:Drivers/STM32H7xx_HAL_Driver/Src/stm32h7xx_hal_dma.c ****            for the Memory to gain in access time. Each two half words will be packed and written in
  70:Drivers/STM32H7xx_HAL_Driver/Src/stm32h7xx_hal_dma.c ****            a single access to a Word in the Memory).
  71:Drivers/STM32H7xx_HAL_Driver/Src/stm32h7xx_hal_dma.c **** 
  72:Drivers/STM32H7xx_HAL_Driver/Src/stm32h7xx_hal_dma.c ****      -@-   When FIFO is disabled, it is not allowed to configure different Data Sizes for Source
  73:Drivers/STM32H7xx_HAL_Driver/Src/stm32h7xx_hal_dma.c ****            and Destination. In this case the Peripheral Data Size will be applied to both Source
  74:Drivers/STM32H7xx_HAL_Driver/Src/stm32h7xx_hal_dma.c ****            and Destination.
  75:Drivers/STM32H7xx_HAL_Driver/Src/stm32h7xx_hal_dma.c **** 
  76:Drivers/STM32H7xx_HAL_Driver/Src/stm32h7xx_hal_dma.c ****      *** DMA HAL driver macros list ***
  77:Drivers/STM32H7xx_HAL_Driver/Src/stm32h7xx_hal_dma.c ****      =============================================
  78:Drivers/STM32H7xx_HAL_Driver/Src/stm32h7xx_hal_dma.c ****      [..]
  79:Drivers/STM32H7xx_HAL_Driver/Src/stm32h7xx_hal_dma.c ****        Below the list of most used macros in DMA HAL driver.
  80:Drivers/STM32H7xx_HAL_Driver/Src/stm32h7xx_hal_dma.c **** 
  81:Drivers/STM32H7xx_HAL_Driver/Src/stm32h7xx_hal_dma.c ****       (+) __HAL_DMA_ENABLE: Enable the specified DMA Stream.
  82:Drivers/STM32H7xx_HAL_Driver/Src/stm32h7xx_hal_dma.c ****       (+) __HAL_DMA_DISABLE: Disable the specified DMA Stream.
  83:Drivers/STM32H7xx_HAL_Driver/Src/stm32h7xx_hal_dma.c ****       (+) __HAL_DMA_GET_FS: Return the current DMA Stream FIFO filled level.
  84:Drivers/STM32H7xx_HAL_Driver/Src/stm32h7xx_hal_dma.c ****       (+) __HAL_DMA_ENABLE_IT: Enable the specified DMA Stream interrupts.
  85:Drivers/STM32H7xx_HAL_Driver/Src/stm32h7xx_hal_dma.c ****       (+) __HAL_DMA_DISABLE_IT: Disable the specified DMA Stream interrupts.
  86:Drivers/STM32H7xx_HAL_Driver/Src/stm32h7xx_hal_dma.c ****       (+) __HAL_DMA_GET_IT_SOURCE: Check whether the specified DMA Stream interrupt has occurred or
  87:Drivers/STM32H7xx_HAL_Driver/Src/stm32h7xx_hal_dma.c **** 
  88:Drivers/STM32H7xx_HAL_Driver/Src/stm32h7xx_hal_dma.c ****      [..]
  89:Drivers/STM32H7xx_HAL_Driver/Src/stm32h7xx_hal_dma.c ****       (@) You can refer to the DMA HAL driver header file for more useful macros.
  90:Drivers/STM32H7xx_HAL_Driver/Src/stm32h7xx_hal_dma.c **** 
ARM GAS  C:\Users\CompuTOP\AppData\Local\Temp\cc4hOfP8.s 			page 3


  91:Drivers/STM32H7xx_HAL_Driver/Src/stm32h7xx_hal_dma.c ****   @endverbatim
  92:Drivers/STM32H7xx_HAL_Driver/Src/stm32h7xx_hal_dma.c ****   */
  93:Drivers/STM32H7xx_HAL_Driver/Src/stm32h7xx_hal_dma.c **** 
  94:Drivers/STM32H7xx_HAL_Driver/Src/stm32h7xx_hal_dma.c **** /* Includes ------------------------------------------------------------------*/
  95:Drivers/STM32H7xx_HAL_Driver/Src/stm32h7xx_hal_dma.c **** #include "stm32h7xx_hal.h"
  96:Drivers/STM32H7xx_HAL_Driver/Src/stm32h7xx_hal_dma.c **** 
  97:Drivers/STM32H7xx_HAL_Driver/Src/stm32h7xx_hal_dma.c **** /** @addtogroup STM32H7xx_HAL_Driver
  98:Drivers/STM32H7xx_HAL_Driver/Src/stm32h7xx_hal_dma.c ****   * @{
  99:Drivers/STM32H7xx_HAL_Driver/Src/stm32h7xx_hal_dma.c ****   */
 100:Drivers/STM32H7xx_HAL_Driver/Src/stm32h7xx_hal_dma.c **** 
 101:Drivers/STM32H7xx_HAL_Driver/Src/stm32h7xx_hal_dma.c **** /** @defgroup DMA DMA
 102:Drivers/STM32H7xx_HAL_Driver/Src/stm32h7xx_hal_dma.c ****   * @brief DMA HAL module driver
 103:Drivers/STM32H7xx_HAL_Driver/Src/stm32h7xx_hal_dma.c ****   * @{
 104:Drivers/STM32H7xx_HAL_Driver/Src/stm32h7xx_hal_dma.c ****   */
 105:Drivers/STM32H7xx_HAL_Driver/Src/stm32h7xx_hal_dma.c **** 
 106:Drivers/STM32H7xx_HAL_Driver/Src/stm32h7xx_hal_dma.c **** #ifdef HAL_DMA_MODULE_ENABLED
 107:Drivers/STM32H7xx_HAL_Driver/Src/stm32h7xx_hal_dma.c **** 
 108:Drivers/STM32H7xx_HAL_Driver/Src/stm32h7xx_hal_dma.c **** /* Private types -------------------------------------------------------------*/
 109:Drivers/STM32H7xx_HAL_Driver/Src/stm32h7xx_hal_dma.c **** typedef struct
 110:Drivers/STM32H7xx_HAL_Driver/Src/stm32h7xx_hal_dma.c **** {
 111:Drivers/STM32H7xx_HAL_Driver/Src/stm32h7xx_hal_dma.c ****   __IO uint32_t ISR;   /*!< DMA interrupt status register */
 112:Drivers/STM32H7xx_HAL_Driver/Src/stm32h7xx_hal_dma.c ****   __IO uint32_t Reserved0;
 113:Drivers/STM32H7xx_HAL_Driver/Src/stm32h7xx_hal_dma.c ****   __IO uint32_t IFCR;  /*!< DMA interrupt flag clear register */
 114:Drivers/STM32H7xx_HAL_Driver/Src/stm32h7xx_hal_dma.c **** } DMA_Base_Registers;
 115:Drivers/STM32H7xx_HAL_Driver/Src/stm32h7xx_hal_dma.c **** 
 116:Drivers/STM32H7xx_HAL_Driver/Src/stm32h7xx_hal_dma.c **** typedef struct
 117:Drivers/STM32H7xx_HAL_Driver/Src/stm32h7xx_hal_dma.c **** {
 118:Drivers/STM32H7xx_HAL_Driver/Src/stm32h7xx_hal_dma.c ****   __IO uint32_t ISR;   /*!< BDMA interrupt status register */
 119:Drivers/STM32H7xx_HAL_Driver/Src/stm32h7xx_hal_dma.c ****   __IO uint32_t IFCR;  /*!< BDMA interrupt flag clear register */
 120:Drivers/STM32H7xx_HAL_Driver/Src/stm32h7xx_hal_dma.c **** } BDMA_Base_Registers;
 121:Drivers/STM32H7xx_HAL_Driver/Src/stm32h7xx_hal_dma.c **** 
 122:Drivers/STM32H7xx_HAL_Driver/Src/stm32h7xx_hal_dma.c **** /* Private variables ---------------------------------------------------------*/
 123:Drivers/STM32H7xx_HAL_Driver/Src/stm32h7xx_hal_dma.c **** /* Private constants ---------------------------------------------------------*/
 124:Drivers/STM32H7xx_HAL_Driver/Src/stm32h7xx_hal_dma.c **** /** @addtogroup DMA_Private_Constants
 125:Drivers/STM32H7xx_HAL_Driver/Src/stm32h7xx_hal_dma.c ****  * @{
 126:Drivers/STM32H7xx_HAL_Driver/Src/stm32h7xx_hal_dma.c ****  */
 127:Drivers/STM32H7xx_HAL_Driver/Src/stm32h7xx_hal_dma.c **** #define HAL_TIMEOUT_DMA_ABORT         (5U)  /* 5 ms */
 128:Drivers/STM32H7xx_HAL_Driver/Src/stm32h7xx_hal_dma.c **** 
 129:Drivers/STM32H7xx_HAL_Driver/Src/stm32h7xx_hal_dma.c **** #define BDMA_PERIPH_TO_MEMORY         (0x00000000U)                /*!< Peripheral to memory direct
 130:Drivers/STM32H7xx_HAL_Driver/Src/stm32h7xx_hal_dma.c **** #define BDMA_MEMORY_TO_PERIPH         ((uint32_t)BDMA_CCR_DIR)     /*!< Memory to peripheral direct
 131:Drivers/STM32H7xx_HAL_Driver/Src/stm32h7xx_hal_dma.c **** #define BDMA_MEMORY_TO_MEMORY         ((uint32_t)BDMA_CCR_MEM2MEM) /*!< Memory to memory direction 
 132:Drivers/STM32H7xx_HAL_Driver/Src/stm32h7xx_hal_dma.c **** 
 133:Drivers/STM32H7xx_HAL_Driver/Src/stm32h7xx_hal_dma.c **** /* DMA to BDMA conversion */
 134:Drivers/STM32H7xx_HAL_Driver/Src/stm32h7xx_hal_dma.c **** #define DMA_TO_BDMA_DIRECTION(__DMA_DIRECTION__) (((__DMA_DIRECTION__) == DMA_MEMORY_TO_PERIPH)? BD
 135:Drivers/STM32H7xx_HAL_Driver/Src/stm32h7xx_hal_dma.c ****                                                   ((__DMA_DIRECTION__) == DMA_MEMORY_TO_MEMORY)? BD
 136:Drivers/STM32H7xx_HAL_Driver/Src/stm32h7xx_hal_dma.c ****                                                   BDMA_PERIPH_TO_MEMORY)
 137:Drivers/STM32H7xx_HAL_Driver/Src/stm32h7xx_hal_dma.c **** 
 138:Drivers/STM32H7xx_HAL_Driver/Src/stm32h7xx_hal_dma.c **** #define DMA_TO_BDMA_PERIPHERAL_INC(__DMA_PERIPHERAL_INC__) ((__DMA_PERIPHERAL_INC__) >> 3U)
 139:Drivers/STM32H7xx_HAL_Driver/Src/stm32h7xx_hal_dma.c **** #define DMA_TO_BDMA_MEMORY_INC(__DMA_MEMORY_INC__) ((__DMA_MEMORY_INC__) >> 3U)
 140:Drivers/STM32H7xx_HAL_Driver/Src/stm32h7xx_hal_dma.c **** 
 141:Drivers/STM32H7xx_HAL_Driver/Src/stm32h7xx_hal_dma.c **** #define DMA_TO_BDMA_PDATA_SIZE(__DMA_PDATA_SIZE__) ((__DMA_PDATA_SIZE__) >> 3U)
 142:Drivers/STM32H7xx_HAL_Driver/Src/stm32h7xx_hal_dma.c **** #define DMA_TO_BDMA_MDATA_SIZE(__DMA_MDATA_SIZE__) ((__DMA_MDATA_SIZE__) >> 3U)
 143:Drivers/STM32H7xx_HAL_Driver/Src/stm32h7xx_hal_dma.c **** 
 144:Drivers/STM32H7xx_HAL_Driver/Src/stm32h7xx_hal_dma.c **** #define DMA_TO_BDMA_MODE(__DMA_MODE__) ((__DMA_MODE__) >> 3U)
 145:Drivers/STM32H7xx_HAL_Driver/Src/stm32h7xx_hal_dma.c **** 
 146:Drivers/STM32H7xx_HAL_Driver/Src/stm32h7xx_hal_dma.c **** #define DMA_TO_BDMA_PRIORITY(__DMA_PRIORITY__) ((__DMA_PRIORITY__) >> 4U)
 147:Drivers/STM32H7xx_HAL_Driver/Src/stm32h7xx_hal_dma.c **** 
ARM GAS  C:\Users\CompuTOP\AppData\Local\Temp\cc4hOfP8.s 			page 4


 148:Drivers/STM32H7xx_HAL_Driver/Src/stm32h7xx_hal_dma.c **** #if defined(UART9)
 149:Drivers/STM32H7xx_HAL_Driver/Src/stm32h7xx_hal_dma.c **** #define IS_DMA_UART_USART_REQUEST(__REQUEST__) ((((__REQUEST__) >= DMA_REQUEST_USART1_RX)  &&  ((__
 150:Drivers/STM32H7xx_HAL_Driver/Src/stm32h7xx_hal_dma.c ****                                                  (((__REQUEST__) >= DMA_REQUEST_UART4_RX)  &&  ((__
 151:Drivers/STM32H7xx_HAL_Driver/Src/stm32h7xx_hal_dma.c ****                                                  (((__REQUEST__) >= DMA_REQUEST_USART6_RX) &&  ((__
 152:Drivers/STM32H7xx_HAL_Driver/Src/stm32h7xx_hal_dma.c ****                                                  (((__REQUEST__) >= DMA_REQUEST_UART7_RX)  &&  ((__
 153:Drivers/STM32H7xx_HAL_Driver/Src/stm32h7xx_hal_dma.c ****                                                  (((__REQUEST__) >= DMA_REQUEST_UART9_RX)  &&  ((__
 154:Drivers/STM32H7xx_HAL_Driver/Src/stm32h7xx_hal_dma.c **** #else
 155:Drivers/STM32H7xx_HAL_Driver/Src/stm32h7xx_hal_dma.c **** #define IS_DMA_UART_USART_REQUEST(__REQUEST__) ((((__REQUEST__) >= DMA_REQUEST_USART1_RX)  &&  ((__
 156:Drivers/STM32H7xx_HAL_Driver/Src/stm32h7xx_hal_dma.c ****                                                  (((__REQUEST__) >= DMA_REQUEST_UART4_RX)  &&  ((__
 157:Drivers/STM32H7xx_HAL_Driver/Src/stm32h7xx_hal_dma.c ****                                                  (((__REQUEST__) >= DMA_REQUEST_USART6_RX) &&  ((__
 158:Drivers/STM32H7xx_HAL_Driver/Src/stm32h7xx_hal_dma.c ****                                                  (((__REQUEST__) >= DMA_REQUEST_UART7_RX)  &&  ((__
 159:Drivers/STM32H7xx_HAL_Driver/Src/stm32h7xx_hal_dma.c **** 
 160:Drivers/STM32H7xx_HAL_Driver/Src/stm32h7xx_hal_dma.c **** #endif
 161:Drivers/STM32H7xx_HAL_Driver/Src/stm32h7xx_hal_dma.c **** /**
 162:Drivers/STM32H7xx_HAL_Driver/Src/stm32h7xx_hal_dma.c ****   * @}
 163:Drivers/STM32H7xx_HAL_Driver/Src/stm32h7xx_hal_dma.c ****   */
 164:Drivers/STM32H7xx_HAL_Driver/Src/stm32h7xx_hal_dma.c **** /* Private macros ------------------------------------------------------------*/
 165:Drivers/STM32H7xx_HAL_Driver/Src/stm32h7xx_hal_dma.c **** /* Private functions ---------------------------------------------------------*/
 166:Drivers/STM32H7xx_HAL_Driver/Src/stm32h7xx_hal_dma.c **** /** @addtogroup DMA_Private_Functions
 167:Drivers/STM32H7xx_HAL_Driver/Src/stm32h7xx_hal_dma.c ****   * @{
 168:Drivers/STM32H7xx_HAL_Driver/Src/stm32h7xx_hal_dma.c ****   */
 169:Drivers/STM32H7xx_HAL_Driver/Src/stm32h7xx_hal_dma.c **** static void DMA_SetConfig(DMA_HandleTypeDef *hdma, uint32_t SrcAddress, uint32_t DstAddress, uint32
 170:Drivers/STM32H7xx_HAL_Driver/Src/stm32h7xx_hal_dma.c **** static uint32_t DMA_CalcBaseAndBitshift(DMA_HandleTypeDef *hdma);
 171:Drivers/STM32H7xx_HAL_Driver/Src/stm32h7xx_hal_dma.c **** static HAL_StatusTypeDef DMA_CheckFifoParam(DMA_HandleTypeDef *hdma);
 172:Drivers/STM32H7xx_HAL_Driver/Src/stm32h7xx_hal_dma.c **** static void DMA_CalcDMAMUXChannelBaseAndMask(DMA_HandleTypeDef *hdma);
 173:Drivers/STM32H7xx_HAL_Driver/Src/stm32h7xx_hal_dma.c **** static void DMA_CalcDMAMUXRequestGenBaseAndMask(DMA_HandleTypeDef *hdma);
 174:Drivers/STM32H7xx_HAL_Driver/Src/stm32h7xx_hal_dma.c **** 
 175:Drivers/STM32H7xx_HAL_Driver/Src/stm32h7xx_hal_dma.c **** /**
 176:Drivers/STM32H7xx_HAL_Driver/Src/stm32h7xx_hal_dma.c ****   * @}
 177:Drivers/STM32H7xx_HAL_Driver/Src/stm32h7xx_hal_dma.c ****   */
 178:Drivers/STM32H7xx_HAL_Driver/Src/stm32h7xx_hal_dma.c **** 
 179:Drivers/STM32H7xx_HAL_Driver/Src/stm32h7xx_hal_dma.c **** /* Exported functions ---------------------------------------------------------*/
 180:Drivers/STM32H7xx_HAL_Driver/Src/stm32h7xx_hal_dma.c **** /** @addtogroup DMA_Exported_Functions
 181:Drivers/STM32H7xx_HAL_Driver/Src/stm32h7xx_hal_dma.c ****   * @{
 182:Drivers/STM32H7xx_HAL_Driver/Src/stm32h7xx_hal_dma.c ****   */
 183:Drivers/STM32H7xx_HAL_Driver/Src/stm32h7xx_hal_dma.c **** 
 184:Drivers/STM32H7xx_HAL_Driver/Src/stm32h7xx_hal_dma.c **** /** @addtogroup DMA_Exported_Functions_Group1
 185:Drivers/STM32H7xx_HAL_Driver/Src/stm32h7xx_hal_dma.c ****   *
 186:Drivers/STM32H7xx_HAL_Driver/Src/stm32h7xx_hal_dma.c **** @verbatim
 187:Drivers/STM32H7xx_HAL_Driver/Src/stm32h7xx_hal_dma.c ****  ===============================================================================
 188:Drivers/STM32H7xx_HAL_Driver/Src/stm32h7xx_hal_dma.c ****              ##### Initialization and de-initialization functions  #####
 189:Drivers/STM32H7xx_HAL_Driver/Src/stm32h7xx_hal_dma.c ****  ===============================================================================
 190:Drivers/STM32H7xx_HAL_Driver/Src/stm32h7xx_hal_dma.c ****     [..]
 191:Drivers/STM32H7xx_HAL_Driver/Src/stm32h7xx_hal_dma.c ****     This section provides functions allowing to initialize the DMA Stream source
 192:Drivers/STM32H7xx_HAL_Driver/Src/stm32h7xx_hal_dma.c ****     and destination incrementation and data sizes, transfer direction,
 193:Drivers/STM32H7xx_HAL_Driver/Src/stm32h7xx_hal_dma.c ****     circular/normal mode selection, memory-to-memory mode selection and Stream priority value.
 194:Drivers/STM32H7xx_HAL_Driver/Src/stm32h7xx_hal_dma.c ****     [..]
 195:Drivers/STM32H7xx_HAL_Driver/Src/stm32h7xx_hal_dma.c ****     The HAL_DMA_Init() function follows the DMA configuration procedures as described in
 196:Drivers/STM32H7xx_HAL_Driver/Src/stm32h7xx_hal_dma.c ****     reference manual.
 197:Drivers/STM32H7xx_HAL_Driver/Src/stm32h7xx_hal_dma.c ****     The HAL_DMA_DeInit function allows to deinitialize the DMA stream.
 198:Drivers/STM32H7xx_HAL_Driver/Src/stm32h7xx_hal_dma.c **** 
 199:Drivers/STM32H7xx_HAL_Driver/Src/stm32h7xx_hal_dma.c **** @endverbatim
 200:Drivers/STM32H7xx_HAL_Driver/Src/stm32h7xx_hal_dma.c ****   * @{
 201:Drivers/STM32H7xx_HAL_Driver/Src/stm32h7xx_hal_dma.c ****   */
 202:Drivers/STM32H7xx_HAL_Driver/Src/stm32h7xx_hal_dma.c **** 
 203:Drivers/STM32H7xx_HAL_Driver/Src/stm32h7xx_hal_dma.c **** /**
 204:Drivers/STM32H7xx_HAL_Driver/Src/stm32h7xx_hal_dma.c ****   * @brief  Initialize the DMA according to the specified
ARM GAS  C:\Users\CompuTOP\AppData\Local\Temp\cc4hOfP8.s 			page 5


 205:Drivers/STM32H7xx_HAL_Driver/Src/stm32h7xx_hal_dma.c ****   *         parameters in the DMA_InitTypeDef and create the associated handle.
 206:Drivers/STM32H7xx_HAL_Driver/Src/stm32h7xx_hal_dma.c ****   * @param  hdma: Pointer to a DMA_HandleTypeDef structure that contains
 207:Drivers/STM32H7xx_HAL_Driver/Src/stm32h7xx_hal_dma.c ****   *               the configuration information for the specified DMA Stream.
 208:Drivers/STM32H7xx_HAL_Driver/Src/stm32h7xx_hal_dma.c ****   * @retval HAL status
 209:Drivers/STM32H7xx_HAL_Driver/Src/stm32h7xx_hal_dma.c ****   */
 210:Drivers/STM32H7xx_HAL_Driver/Src/stm32h7xx_hal_dma.c **** HAL_StatusTypeDef HAL_DMA_Init(DMA_HandleTypeDef *hdma)
 211:Drivers/STM32H7xx_HAL_Driver/Src/stm32h7xx_hal_dma.c **** {
 212:Drivers/STM32H7xx_HAL_Driver/Src/stm32h7xx_hal_dma.c ****   uint32_t registerValue;
 213:Drivers/STM32H7xx_HAL_Driver/Src/stm32h7xx_hal_dma.c ****   uint32_t tickstart = HAL_GetTick();
 214:Drivers/STM32H7xx_HAL_Driver/Src/stm32h7xx_hal_dma.c ****   DMA_Base_Registers *regs_dma;
 215:Drivers/STM32H7xx_HAL_Driver/Src/stm32h7xx_hal_dma.c ****   BDMA_Base_Registers *regs_bdma;
 216:Drivers/STM32H7xx_HAL_Driver/Src/stm32h7xx_hal_dma.c **** 
 217:Drivers/STM32H7xx_HAL_Driver/Src/stm32h7xx_hal_dma.c ****   /* Check the DMA peripheral handle */
 218:Drivers/STM32H7xx_HAL_Driver/Src/stm32h7xx_hal_dma.c ****   if(hdma == NULL)
 219:Drivers/STM32H7xx_HAL_Driver/Src/stm32h7xx_hal_dma.c ****   {
 220:Drivers/STM32H7xx_HAL_Driver/Src/stm32h7xx_hal_dma.c ****     return HAL_ERROR;
 221:Drivers/STM32H7xx_HAL_Driver/Src/stm32h7xx_hal_dma.c ****   }
 222:Drivers/STM32H7xx_HAL_Driver/Src/stm32h7xx_hal_dma.c **** 
 223:Drivers/STM32H7xx_HAL_Driver/Src/stm32h7xx_hal_dma.c ****   /* Check the parameters */
 224:Drivers/STM32H7xx_HAL_Driver/Src/stm32h7xx_hal_dma.c ****   assert_param(IS_DMA_ALL_INSTANCE(hdma->Instance));
 225:Drivers/STM32H7xx_HAL_Driver/Src/stm32h7xx_hal_dma.c ****   assert_param(IS_DMA_DIRECTION(hdma->Init.Direction));
 226:Drivers/STM32H7xx_HAL_Driver/Src/stm32h7xx_hal_dma.c ****   assert_param(IS_DMA_PERIPHERAL_INC_STATE(hdma->Init.PeriphInc));
 227:Drivers/STM32H7xx_HAL_Driver/Src/stm32h7xx_hal_dma.c ****   assert_param(IS_DMA_MEMORY_INC_STATE(hdma->Init.MemInc));
 228:Drivers/STM32H7xx_HAL_Driver/Src/stm32h7xx_hal_dma.c ****   assert_param(IS_DMA_PERIPHERAL_DATA_SIZE(hdma->Init.PeriphDataAlignment));
 229:Drivers/STM32H7xx_HAL_Driver/Src/stm32h7xx_hal_dma.c ****   assert_param(IS_DMA_MEMORY_DATA_SIZE(hdma->Init.MemDataAlignment));
 230:Drivers/STM32H7xx_HAL_Driver/Src/stm32h7xx_hal_dma.c ****   assert_param(IS_DMA_MODE(hdma->Init.Mode));
 231:Drivers/STM32H7xx_HAL_Driver/Src/stm32h7xx_hal_dma.c ****   assert_param(IS_DMA_PRIORITY(hdma->Init.Priority));
 232:Drivers/STM32H7xx_HAL_Driver/Src/stm32h7xx_hal_dma.c **** 
 233:Drivers/STM32H7xx_HAL_Driver/Src/stm32h7xx_hal_dma.c ****   if(IS_DMA_STREAM_INSTANCE(hdma->Instance) != 0U) /* DMA1 or DMA2 instance */
 234:Drivers/STM32H7xx_HAL_Driver/Src/stm32h7xx_hal_dma.c ****   {
 235:Drivers/STM32H7xx_HAL_Driver/Src/stm32h7xx_hal_dma.c ****     assert_param(IS_DMA_REQUEST(hdma->Init.Request));
 236:Drivers/STM32H7xx_HAL_Driver/Src/stm32h7xx_hal_dma.c ****     assert_param(IS_DMA_FIFO_MODE_STATE(hdma->Init.FIFOMode));
 237:Drivers/STM32H7xx_HAL_Driver/Src/stm32h7xx_hal_dma.c ****     /* Check the memory burst, peripheral burst and FIFO threshold parameters only
 238:Drivers/STM32H7xx_HAL_Driver/Src/stm32h7xx_hal_dma.c ****        when FIFO mode is enabled */
 239:Drivers/STM32H7xx_HAL_Driver/Src/stm32h7xx_hal_dma.c ****     if(hdma->Init.FIFOMode != DMA_FIFOMODE_DISABLE)
 240:Drivers/STM32H7xx_HAL_Driver/Src/stm32h7xx_hal_dma.c ****     {
 241:Drivers/STM32H7xx_HAL_Driver/Src/stm32h7xx_hal_dma.c ****       assert_param(IS_DMA_FIFO_THRESHOLD(hdma->Init.FIFOThreshold));
 242:Drivers/STM32H7xx_HAL_Driver/Src/stm32h7xx_hal_dma.c ****       assert_param(IS_DMA_MEMORY_BURST(hdma->Init.MemBurst));
 243:Drivers/STM32H7xx_HAL_Driver/Src/stm32h7xx_hal_dma.c ****       assert_param(IS_DMA_PERIPHERAL_BURST(hdma->Init.PeriphBurst));
 244:Drivers/STM32H7xx_HAL_Driver/Src/stm32h7xx_hal_dma.c ****     }
 245:Drivers/STM32H7xx_HAL_Driver/Src/stm32h7xx_hal_dma.c **** 
 246:Drivers/STM32H7xx_HAL_Driver/Src/stm32h7xx_hal_dma.c ****     /* Change DMA peripheral state */
 247:Drivers/STM32H7xx_HAL_Driver/Src/stm32h7xx_hal_dma.c ****     hdma->State = HAL_DMA_STATE_BUSY;
 248:Drivers/STM32H7xx_HAL_Driver/Src/stm32h7xx_hal_dma.c **** 
 249:Drivers/STM32H7xx_HAL_Driver/Src/stm32h7xx_hal_dma.c ****     /* Allocate lock resource */
 250:Drivers/STM32H7xx_HAL_Driver/Src/stm32h7xx_hal_dma.c ****     __HAL_UNLOCK(hdma);
 251:Drivers/STM32H7xx_HAL_Driver/Src/stm32h7xx_hal_dma.c **** 
 252:Drivers/STM32H7xx_HAL_Driver/Src/stm32h7xx_hal_dma.c ****     /* Disable the peripheral */
 253:Drivers/STM32H7xx_HAL_Driver/Src/stm32h7xx_hal_dma.c ****     __HAL_DMA_DISABLE(hdma);
 254:Drivers/STM32H7xx_HAL_Driver/Src/stm32h7xx_hal_dma.c **** 
 255:Drivers/STM32H7xx_HAL_Driver/Src/stm32h7xx_hal_dma.c ****     /* Check if the DMA Stream is effectively disabled */
 256:Drivers/STM32H7xx_HAL_Driver/Src/stm32h7xx_hal_dma.c ****     while((((DMA_Stream_TypeDef   *)hdma->Instance)->CR & DMA_SxCR_EN) != 0U)
 257:Drivers/STM32H7xx_HAL_Driver/Src/stm32h7xx_hal_dma.c ****     {
 258:Drivers/STM32H7xx_HAL_Driver/Src/stm32h7xx_hal_dma.c ****       /* Check for the Timeout */
 259:Drivers/STM32H7xx_HAL_Driver/Src/stm32h7xx_hal_dma.c ****       if((HAL_GetTick() - tickstart ) > HAL_TIMEOUT_DMA_ABORT)
 260:Drivers/STM32H7xx_HAL_Driver/Src/stm32h7xx_hal_dma.c ****       {
 261:Drivers/STM32H7xx_HAL_Driver/Src/stm32h7xx_hal_dma.c ****         /* Update error code */
ARM GAS  C:\Users\CompuTOP\AppData\Local\Temp\cc4hOfP8.s 			page 6


 262:Drivers/STM32H7xx_HAL_Driver/Src/stm32h7xx_hal_dma.c ****         hdma->ErrorCode = HAL_DMA_ERROR_TIMEOUT;
 263:Drivers/STM32H7xx_HAL_Driver/Src/stm32h7xx_hal_dma.c **** 
 264:Drivers/STM32H7xx_HAL_Driver/Src/stm32h7xx_hal_dma.c ****         /* Change the DMA state */
 265:Drivers/STM32H7xx_HAL_Driver/Src/stm32h7xx_hal_dma.c ****         hdma->State = HAL_DMA_STATE_ERROR;
 266:Drivers/STM32H7xx_HAL_Driver/Src/stm32h7xx_hal_dma.c **** 
 267:Drivers/STM32H7xx_HAL_Driver/Src/stm32h7xx_hal_dma.c ****         return HAL_ERROR;
 268:Drivers/STM32H7xx_HAL_Driver/Src/stm32h7xx_hal_dma.c ****       }
 269:Drivers/STM32H7xx_HAL_Driver/Src/stm32h7xx_hal_dma.c ****     }
 270:Drivers/STM32H7xx_HAL_Driver/Src/stm32h7xx_hal_dma.c **** 
 271:Drivers/STM32H7xx_HAL_Driver/Src/stm32h7xx_hal_dma.c ****     /* Get the CR register value */
 272:Drivers/STM32H7xx_HAL_Driver/Src/stm32h7xx_hal_dma.c ****     registerValue = ((DMA_Stream_TypeDef   *)hdma->Instance)->CR;
 273:Drivers/STM32H7xx_HAL_Driver/Src/stm32h7xx_hal_dma.c **** 
 274:Drivers/STM32H7xx_HAL_Driver/Src/stm32h7xx_hal_dma.c ****     /* Clear CHSEL, MBURST, PBURST, PL, MSIZE, PSIZE, MINC, PINC, CIRC, DIR, CT and DBM bits */
 275:Drivers/STM32H7xx_HAL_Driver/Src/stm32h7xx_hal_dma.c ****     registerValue &= ((uint32_t)~(DMA_SxCR_MBURST | DMA_SxCR_PBURST | \
 276:Drivers/STM32H7xx_HAL_Driver/Src/stm32h7xx_hal_dma.c ****                         DMA_SxCR_PL    | DMA_SxCR_MSIZE  | DMA_SxCR_PSIZE  | \
 277:Drivers/STM32H7xx_HAL_Driver/Src/stm32h7xx_hal_dma.c ****                         DMA_SxCR_MINC  | DMA_SxCR_PINC   | DMA_SxCR_CIRC   | \
 278:Drivers/STM32H7xx_HAL_Driver/Src/stm32h7xx_hal_dma.c ****                         DMA_SxCR_DIR   | DMA_SxCR_CT     | DMA_SxCR_DBM));
 279:Drivers/STM32H7xx_HAL_Driver/Src/stm32h7xx_hal_dma.c **** 
 280:Drivers/STM32H7xx_HAL_Driver/Src/stm32h7xx_hal_dma.c ****     /* Prepare the DMA Stream configuration */
 281:Drivers/STM32H7xx_HAL_Driver/Src/stm32h7xx_hal_dma.c ****     registerValue |=  hdma->Init.Direction           |
 282:Drivers/STM32H7xx_HAL_Driver/Src/stm32h7xx_hal_dma.c ****             hdma->Init.PeriphInc           | hdma->Init.MemInc           |
 283:Drivers/STM32H7xx_HAL_Driver/Src/stm32h7xx_hal_dma.c ****             hdma->Init.PeriphDataAlignment | hdma->Init.MemDataAlignment |
 284:Drivers/STM32H7xx_HAL_Driver/Src/stm32h7xx_hal_dma.c ****             hdma->Init.Mode                | hdma->Init.Priority;
 285:Drivers/STM32H7xx_HAL_Driver/Src/stm32h7xx_hal_dma.c **** 
 286:Drivers/STM32H7xx_HAL_Driver/Src/stm32h7xx_hal_dma.c ****     /* the Memory burst and peripheral burst are not used when the FIFO is disabled */
 287:Drivers/STM32H7xx_HAL_Driver/Src/stm32h7xx_hal_dma.c ****     if(hdma->Init.FIFOMode == DMA_FIFOMODE_ENABLE)
 288:Drivers/STM32H7xx_HAL_Driver/Src/stm32h7xx_hal_dma.c ****     {
 289:Drivers/STM32H7xx_HAL_Driver/Src/stm32h7xx_hal_dma.c ****       /* Get memory burst and peripheral burst */
 290:Drivers/STM32H7xx_HAL_Driver/Src/stm32h7xx_hal_dma.c ****       registerValue |=  hdma->Init.MemBurst | hdma->Init.PeriphBurst;
 291:Drivers/STM32H7xx_HAL_Driver/Src/stm32h7xx_hal_dma.c ****     }
 292:Drivers/STM32H7xx_HAL_Driver/Src/stm32h7xx_hal_dma.c **** 
 293:Drivers/STM32H7xx_HAL_Driver/Src/stm32h7xx_hal_dma.c ****     /* Work around for Errata 2.22: UART/USART- DMA transfer lock: DMA stream could be
 294:Drivers/STM32H7xx_HAL_Driver/Src/stm32h7xx_hal_dma.c ****                                     lock when transferring data to/from USART/UART */
 295:Drivers/STM32H7xx_HAL_Driver/Src/stm32h7xx_hal_dma.c **** #if (STM32H7_DEV_ID == 0x450UL)
 296:Drivers/STM32H7xx_HAL_Driver/Src/stm32h7xx_hal_dma.c ****     if((DBGMCU->IDCODE & 0xFFFF0000U) >= 0x20000000U)
 297:Drivers/STM32H7xx_HAL_Driver/Src/stm32h7xx_hal_dma.c ****     {
 298:Drivers/STM32H7xx_HAL_Driver/Src/stm32h7xx_hal_dma.c **** #endif /* STM32H7_DEV_ID == 0x450UL */
 299:Drivers/STM32H7xx_HAL_Driver/Src/stm32h7xx_hal_dma.c ****       if(IS_DMA_UART_USART_REQUEST(hdma->Init.Request) != 0U)
 300:Drivers/STM32H7xx_HAL_Driver/Src/stm32h7xx_hal_dma.c ****       {
 301:Drivers/STM32H7xx_HAL_Driver/Src/stm32h7xx_hal_dma.c ****         registerValue |= DMA_SxCR_TRBUFF;
 302:Drivers/STM32H7xx_HAL_Driver/Src/stm32h7xx_hal_dma.c ****       }
 303:Drivers/STM32H7xx_HAL_Driver/Src/stm32h7xx_hal_dma.c **** #if (STM32H7_DEV_ID == 0x450UL)
 304:Drivers/STM32H7xx_HAL_Driver/Src/stm32h7xx_hal_dma.c ****     }
 305:Drivers/STM32H7xx_HAL_Driver/Src/stm32h7xx_hal_dma.c **** #endif /* STM32H7_DEV_ID == 0x450UL */
 306:Drivers/STM32H7xx_HAL_Driver/Src/stm32h7xx_hal_dma.c **** 
 307:Drivers/STM32H7xx_HAL_Driver/Src/stm32h7xx_hal_dma.c ****     /* Write to DMA Stream CR register */
 308:Drivers/STM32H7xx_HAL_Driver/Src/stm32h7xx_hal_dma.c ****     ((DMA_Stream_TypeDef   *)hdma->Instance)->CR = registerValue;
 309:Drivers/STM32H7xx_HAL_Driver/Src/stm32h7xx_hal_dma.c **** 
 310:Drivers/STM32H7xx_HAL_Driver/Src/stm32h7xx_hal_dma.c ****     /* Get the FCR register value */
 311:Drivers/STM32H7xx_HAL_Driver/Src/stm32h7xx_hal_dma.c ****     registerValue = ((DMA_Stream_TypeDef   *)hdma->Instance)->FCR;
 312:Drivers/STM32H7xx_HAL_Driver/Src/stm32h7xx_hal_dma.c **** 
 313:Drivers/STM32H7xx_HAL_Driver/Src/stm32h7xx_hal_dma.c ****     /* Clear Direct mode and FIFO threshold bits */
 314:Drivers/STM32H7xx_HAL_Driver/Src/stm32h7xx_hal_dma.c ****     registerValue &= (uint32_t)~(DMA_SxFCR_DMDIS | DMA_SxFCR_FTH);
 315:Drivers/STM32H7xx_HAL_Driver/Src/stm32h7xx_hal_dma.c **** 
 316:Drivers/STM32H7xx_HAL_Driver/Src/stm32h7xx_hal_dma.c ****     /* Prepare the DMA Stream FIFO configuration */
 317:Drivers/STM32H7xx_HAL_Driver/Src/stm32h7xx_hal_dma.c ****     registerValue |= hdma->Init.FIFOMode;
 318:Drivers/STM32H7xx_HAL_Driver/Src/stm32h7xx_hal_dma.c **** 
ARM GAS  C:\Users\CompuTOP\AppData\Local\Temp\cc4hOfP8.s 			page 7


 319:Drivers/STM32H7xx_HAL_Driver/Src/stm32h7xx_hal_dma.c ****     /* the FIFO threshold is not used when the FIFO mode is disabled */
 320:Drivers/STM32H7xx_HAL_Driver/Src/stm32h7xx_hal_dma.c ****     if(hdma->Init.FIFOMode == DMA_FIFOMODE_ENABLE)
 321:Drivers/STM32H7xx_HAL_Driver/Src/stm32h7xx_hal_dma.c ****     {
 322:Drivers/STM32H7xx_HAL_Driver/Src/stm32h7xx_hal_dma.c ****       /* Get the FIFO threshold */
 323:Drivers/STM32H7xx_HAL_Driver/Src/stm32h7xx_hal_dma.c ****       registerValue |= hdma->Init.FIFOThreshold;
 324:Drivers/STM32H7xx_HAL_Driver/Src/stm32h7xx_hal_dma.c **** 
 325:Drivers/STM32H7xx_HAL_Driver/Src/stm32h7xx_hal_dma.c ****       /* Check compatibility between FIFO threshold level and size of the memory burst */
 326:Drivers/STM32H7xx_HAL_Driver/Src/stm32h7xx_hal_dma.c ****       /* for INCR4, INCR8, INCR16 */
 327:Drivers/STM32H7xx_HAL_Driver/Src/stm32h7xx_hal_dma.c ****       if(hdma->Init.MemBurst != DMA_MBURST_SINGLE)
 328:Drivers/STM32H7xx_HAL_Driver/Src/stm32h7xx_hal_dma.c ****       {
 329:Drivers/STM32H7xx_HAL_Driver/Src/stm32h7xx_hal_dma.c ****         if (DMA_CheckFifoParam(hdma) != HAL_OK)
 330:Drivers/STM32H7xx_HAL_Driver/Src/stm32h7xx_hal_dma.c ****         {
 331:Drivers/STM32H7xx_HAL_Driver/Src/stm32h7xx_hal_dma.c ****           /* Update error code */
 332:Drivers/STM32H7xx_HAL_Driver/Src/stm32h7xx_hal_dma.c ****           hdma->ErrorCode = HAL_DMA_ERROR_PARAM;
 333:Drivers/STM32H7xx_HAL_Driver/Src/stm32h7xx_hal_dma.c **** 
 334:Drivers/STM32H7xx_HAL_Driver/Src/stm32h7xx_hal_dma.c ****           /* Change the DMA state */
 335:Drivers/STM32H7xx_HAL_Driver/Src/stm32h7xx_hal_dma.c ****           hdma->State = HAL_DMA_STATE_READY;
 336:Drivers/STM32H7xx_HAL_Driver/Src/stm32h7xx_hal_dma.c **** 
 337:Drivers/STM32H7xx_HAL_Driver/Src/stm32h7xx_hal_dma.c ****           return HAL_ERROR;
 338:Drivers/STM32H7xx_HAL_Driver/Src/stm32h7xx_hal_dma.c ****         }
 339:Drivers/STM32H7xx_HAL_Driver/Src/stm32h7xx_hal_dma.c ****       }
 340:Drivers/STM32H7xx_HAL_Driver/Src/stm32h7xx_hal_dma.c ****     }
 341:Drivers/STM32H7xx_HAL_Driver/Src/stm32h7xx_hal_dma.c **** 
 342:Drivers/STM32H7xx_HAL_Driver/Src/stm32h7xx_hal_dma.c ****     /* Write to DMA Stream FCR */
 343:Drivers/STM32H7xx_HAL_Driver/Src/stm32h7xx_hal_dma.c ****     ((DMA_Stream_TypeDef   *)hdma->Instance)->FCR = registerValue;
 344:Drivers/STM32H7xx_HAL_Driver/Src/stm32h7xx_hal_dma.c **** 
 345:Drivers/STM32H7xx_HAL_Driver/Src/stm32h7xx_hal_dma.c ****     /* Initialize StreamBaseAddress and StreamIndex parameters to be used to calculate
 346:Drivers/STM32H7xx_HAL_Driver/Src/stm32h7xx_hal_dma.c ****        DMA steam Base Address needed by HAL_DMA_IRQHandler() and HAL_DMA_PollForTransfer() */
 347:Drivers/STM32H7xx_HAL_Driver/Src/stm32h7xx_hal_dma.c ****     regs_dma = (DMA_Base_Registers *)DMA_CalcBaseAndBitshift(hdma);
 348:Drivers/STM32H7xx_HAL_Driver/Src/stm32h7xx_hal_dma.c **** 
 349:Drivers/STM32H7xx_HAL_Driver/Src/stm32h7xx_hal_dma.c ****     /* Clear all interrupt flags */
 350:Drivers/STM32H7xx_HAL_Driver/Src/stm32h7xx_hal_dma.c ****     regs_dma->IFCR = 0x3FUL << (hdma->StreamIndex & 0x1FU);
 351:Drivers/STM32H7xx_HAL_Driver/Src/stm32h7xx_hal_dma.c ****   }
 352:Drivers/STM32H7xx_HAL_Driver/Src/stm32h7xx_hal_dma.c ****   else if(IS_BDMA_CHANNEL_INSTANCE(hdma->Instance) != 0U) /* BDMA instance(s) */
 353:Drivers/STM32H7xx_HAL_Driver/Src/stm32h7xx_hal_dma.c ****   {
 354:Drivers/STM32H7xx_HAL_Driver/Src/stm32h7xx_hal_dma.c ****     if(IS_BDMA_CHANNEL_DMAMUX_INSTANCE(hdma->Instance) != 0U)
 355:Drivers/STM32H7xx_HAL_Driver/Src/stm32h7xx_hal_dma.c ****     {
 356:Drivers/STM32H7xx_HAL_Driver/Src/stm32h7xx_hal_dma.c ****       /* Check the request parameter */
 357:Drivers/STM32H7xx_HAL_Driver/Src/stm32h7xx_hal_dma.c ****       assert_param(IS_BDMA_REQUEST(hdma->Init.Request));
 358:Drivers/STM32H7xx_HAL_Driver/Src/stm32h7xx_hal_dma.c ****     }
 359:Drivers/STM32H7xx_HAL_Driver/Src/stm32h7xx_hal_dma.c **** 
 360:Drivers/STM32H7xx_HAL_Driver/Src/stm32h7xx_hal_dma.c ****     /* Change DMA peripheral state */
 361:Drivers/STM32H7xx_HAL_Driver/Src/stm32h7xx_hal_dma.c ****     hdma->State = HAL_DMA_STATE_BUSY;
 362:Drivers/STM32H7xx_HAL_Driver/Src/stm32h7xx_hal_dma.c **** 
 363:Drivers/STM32H7xx_HAL_Driver/Src/stm32h7xx_hal_dma.c ****     /* Allocate lock resource */
 364:Drivers/STM32H7xx_HAL_Driver/Src/stm32h7xx_hal_dma.c ****     __HAL_UNLOCK(hdma);
 365:Drivers/STM32H7xx_HAL_Driver/Src/stm32h7xx_hal_dma.c **** 
 366:Drivers/STM32H7xx_HAL_Driver/Src/stm32h7xx_hal_dma.c ****     /* Get the CR register value */
 367:Drivers/STM32H7xx_HAL_Driver/Src/stm32h7xx_hal_dma.c ****     registerValue = ((BDMA_Channel_TypeDef *)hdma->Instance)->CCR;
 368:Drivers/STM32H7xx_HAL_Driver/Src/stm32h7xx_hal_dma.c **** 
 369:Drivers/STM32H7xx_HAL_Driver/Src/stm32h7xx_hal_dma.c ****     /* Clear PL, MSIZE, PSIZE, MINC, PINC, CIRC, DIR, MEM2MEM, DBM and CT bits */
 370:Drivers/STM32H7xx_HAL_Driver/Src/stm32h7xx_hal_dma.c ****     registerValue &= ((uint32_t)~(BDMA_CCR_PL    | BDMA_CCR_MSIZE   | BDMA_CCR_PSIZE  | \
 371:Drivers/STM32H7xx_HAL_Driver/Src/stm32h7xx_hal_dma.c ****                                   BDMA_CCR_MINC  | BDMA_CCR_PINC    | BDMA_CCR_CIRC   | \
 372:Drivers/STM32H7xx_HAL_Driver/Src/stm32h7xx_hal_dma.c ****                                   BDMA_CCR_DIR   | BDMA_CCR_MEM2MEM | BDMA_CCR_DBM    | \
 373:Drivers/STM32H7xx_HAL_Driver/Src/stm32h7xx_hal_dma.c ****                                   BDMA_CCR_CT));
 374:Drivers/STM32H7xx_HAL_Driver/Src/stm32h7xx_hal_dma.c **** 
 375:Drivers/STM32H7xx_HAL_Driver/Src/stm32h7xx_hal_dma.c ****     /* Prepare the DMA Channel configuration */
ARM GAS  C:\Users\CompuTOP\AppData\Local\Temp\cc4hOfP8.s 			page 8


 376:Drivers/STM32H7xx_HAL_Driver/Src/stm32h7xx_hal_dma.c ****     registerValue |=  DMA_TO_BDMA_DIRECTION(hdma->Init.Direction)            |
 377:Drivers/STM32H7xx_HAL_Driver/Src/stm32h7xx_hal_dma.c ****                       DMA_TO_BDMA_PERIPHERAL_INC(hdma->Init.PeriphInc)       |
 378:Drivers/STM32H7xx_HAL_Driver/Src/stm32h7xx_hal_dma.c ****                       DMA_TO_BDMA_MEMORY_INC(hdma->Init.MemInc)              |
 379:Drivers/STM32H7xx_HAL_Driver/Src/stm32h7xx_hal_dma.c ****                       DMA_TO_BDMA_PDATA_SIZE(hdma->Init.PeriphDataAlignment) |
 380:Drivers/STM32H7xx_HAL_Driver/Src/stm32h7xx_hal_dma.c ****                       DMA_TO_BDMA_MDATA_SIZE(hdma->Init.MemDataAlignment)    |
 381:Drivers/STM32H7xx_HAL_Driver/Src/stm32h7xx_hal_dma.c ****                       DMA_TO_BDMA_MODE(hdma->Init.Mode)                      |
 382:Drivers/STM32H7xx_HAL_Driver/Src/stm32h7xx_hal_dma.c ****                       DMA_TO_BDMA_PRIORITY(hdma->Init.Priority);
 383:Drivers/STM32H7xx_HAL_Driver/Src/stm32h7xx_hal_dma.c **** 
 384:Drivers/STM32H7xx_HAL_Driver/Src/stm32h7xx_hal_dma.c ****     /* Write to DMA Channel CR register */
 385:Drivers/STM32H7xx_HAL_Driver/Src/stm32h7xx_hal_dma.c ****     ((BDMA_Channel_TypeDef *)hdma->Instance)->CCR = registerValue;
 386:Drivers/STM32H7xx_HAL_Driver/Src/stm32h7xx_hal_dma.c **** 
 387:Drivers/STM32H7xx_HAL_Driver/Src/stm32h7xx_hal_dma.c ****     /* calculation of the channel index */
 388:Drivers/STM32H7xx_HAL_Driver/Src/stm32h7xx_hal_dma.c ****     hdma->StreamIndex = (((uint32_t)((uint32_t*)hdma->Instance) - (uint32_t)BDMA_Channel0) / ((uint
 389:Drivers/STM32H7xx_HAL_Driver/Src/stm32h7xx_hal_dma.c **** 
 390:Drivers/STM32H7xx_HAL_Driver/Src/stm32h7xx_hal_dma.c ****     /* Initialize StreamBaseAddress and StreamIndex parameters to be used to calculate
 391:Drivers/STM32H7xx_HAL_Driver/Src/stm32h7xx_hal_dma.c ****     DMA steam Base Address needed by HAL_DMA_IRQHandler() and HAL_DMA_PollForTransfer() */
 392:Drivers/STM32H7xx_HAL_Driver/Src/stm32h7xx_hal_dma.c ****     regs_bdma = (BDMA_Base_Registers *)DMA_CalcBaseAndBitshift(hdma);
 393:Drivers/STM32H7xx_HAL_Driver/Src/stm32h7xx_hal_dma.c **** 
 394:Drivers/STM32H7xx_HAL_Driver/Src/stm32h7xx_hal_dma.c ****     /* Clear all interrupt flags */
 395:Drivers/STM32H7xx_HAL_Driver/Src/stm32h7xx_hal_dma.c ****     regs_bdma->IFCR = ((BDMA_IFCR_CGIF0) << (hdma->StreamIndex & 0x1FU));
 396:Drivers/STM32H7xx_HAL_Driver/Src/stm32h7xx_hal_dma.c ****   }
 397:Drivers/STM32H7xx_HAL_Driver/Src/stm32h7xx_hal_dma.c ****   else
 398:Drivers/STM32H7xx_HAL_Driver/Src/stm32h7xx_hal_dma.c ****   {
 399:Drivers/STM32H7xx_HAL_Driver/Src/stm32h7xx_hal_dma.c ****     hdma->ErrorCode = HAL_DMA_ERROR_PARAM;
 400:Drivers/STM32H7xx_HAL_Driver/Src/stm32h7xx_hal_dma.c ****     hdma->State     = HAL_DMA_STATE_ERROR;
 401:Drivers/STM32H7xx_HAL_Driver/Src/stm32h7xx_hal_dma.c **** 
 402:Drivers/STM32H7xx_HAL_Driver/Src/stm32h7xx_hal_dma.c ****     return HAL_ERROR;
 403:Drivers/STM32H7xx_HAL_Driver/Src/stm32h7xx_hal_dma.c ****   }
 404:Drivers/STM32H7xx_HAL_Driver/Src/stm32h7xx_hal_dma.c **** 
 405:Drivers/STM32H7xx_HAL_Driver/Src/stm32h7xx_hal_dma.c ****   if(IS_DMA_DMAMUX_ALL_INSTANCE(hdma->Instance) != 0U) /* No DMAMUX available for BDMA1 */
 406:Drivers/STM32H7xx_HAL_Driver/Src/stm32h7xx_hal_dma.c ****   {
 407:Drivers/STM32H7xx_HAL_Driver/Src/stm32h7xx_hal_dma.c ****     /* Initialize parameters for DMAMUX channel :
 408:Drivers/STM32H7xx_HAL_Driver/Src/stm32h7xx_hal_dma.c ****     DMAmuxChannel, DMAmuxChannelStatus and DMAmuxChannelStatusMask
 409:Drivers/STM32H7xx_HAL_Driver/Src/stm32h7xx_hal_dma.c ****     */
 410:Drivers/STM32H7xx_HAL_Driver/Src/stm32h7xx_hal_dma.c ****     DMA_CalcDMAMUXChannelBaseAndMask(hdma);
 411:Drivers/STM32H7xx_HAL_Driver/Src/stm32h7xx_hal_dma.c **** 
 412:Drivers/STM32H7xx_HAL_Driver/Src/stm32h7xx_hal_dma.c ****     if(hdma->Init.Direction == DMA_MEMORY_TO_MEMORY)
 413:Drivers/STM32H7xx_HAL_Driver/Src/stm32h7xx_hal_dma.c ****     {
 414:Drivers/STM32H7xx_HAL_Driver/Src/stm32h7xx_hal_dma.c ****       /* if memory to memory force the request to 0*/
 415:Drivers/STM32H7xx_HAL_Driver/Src/stm32h7xx_hal_dma.c ****       hdma->Init.Request = DMA_REQUEST_MEM2MEM;
 416:Drivers/STM32H7xx_HAL_Driver/Src/stm32h7xx_hal_dma.c ****     }
 417:Drivers/STM32H7xx_HAL_Driver/Src/stm32h7xx_hal_dma.c **** 
 418:Drivers/STM32H7xx_HAL_Driver/Src/stm32h7xx_hal_dma.c ****     /* Set peripheral request  to DMAMUX channel */
 419:Drivers/STM32H7xx_HAL_Driver/Src/stm32h7xx_hal_dma.c ****     hdma->DMAmuxChannel->CCR = (hdma->Init.Request & DMAMUX_CxCR_DMAREQ_ID);
 420:Drivers/STM32H7xx_HAL_Driver/Src/stm32h7xx_hal_dma.c **** 
 421:Drivers/STM32H7xx_HAL_Driver/Src/stm32h7xx_hal_dma.c ****     /* Clear the DMAMUX synchro overrun flag */
 422:Drivers/STM32H7xx_HAL_Driver/Src/stm32h7xx_hal_dma.c ****     hdma->DMAmuxChannelStatus->CFR = hdma->DMAmuxChannelStatusMask;
 423:Drivers/STM32H7xx_HAL_Driver/Src/stm32h7xx_hal_dma.c **** 
 424:Drivers/STM32H7xx_HAL_Driver/Src/stm32h7xx_hal_dma.c ****     /* Initialize parameters for DMAMUX request generator :
 425:Drivers/STM32H7xx_HAL_Driver/Src/stm32h7xx_hal_dma.c ****     if the DMA request is DMA_REQUEST_GENERATOR0 to DMA_REQUEST_GENERATOR7
 426:Drivers/STM32H7xx_HAL_Driver/Src/stm32h7xx_hal_dma.c ****     */
 427:Drivers/STM32H7xx_HAL_Driver/Src/stm32h7xx_hal_dma.c ****     if((hdma->Init.Request >= DMA_REQUEST_GENERATOR0) && (hdma->Init.Request <= DMA_REQUEST_GENERAT
 428:Drivers/STM32H7xx_HAL_Driver/Src/stm32h7xx_hal_dma.c ****     {
 429:Drivers/STM32H7xx_HAL_Driver/Src/stm32h7xx_hal_dma.c ****       /* Initialize parameters for DMAMUX request generator :
 430:Drivers/STM32H7xx_HAL_Driver/Src/stm32h7xx_hal_dma.c ****       DMAmuxRequestGen, DMAmuxRequestGenStatus and DMAmuxRequestGenStatusMask */
 431:Drivers/STM32H7xx_HAL_Driver/Src/stm32h7xx_hal_dma.c ****       DMA_CalcDMAMUXRequestGenBaseAndMask(hdma);
 432:Drivers/STM32H7xx_HAL_Driver/Src/stm32h7xx_hal_dma.c **** 
ARM GAS  C:\Users\CompuTOP\AppData\Local\Temp\cc4hOfP8.s 			page 9


 433:Drivers/STM32H7xx_HAL_Driver/Src/stm32h7xx_hal_dma.c ****       /* Reset the DMAMUX request generator register */
 434:Drivers/STM32H7xx_HAL_Driver/Src/stm32h7xx_hal_dma.c ****       hdma->DMAmuxRequestGen->RGCR = 0U;
 435:Drivers/STM32H7xx_HAL_Driver/Src/stm32h7xx_hal_dma.c **** 
 436:Drivers/STM32H7xx_HAL_Driver/Src/stm32h7xx_hal_dma.c ****       /* Clear the DMAMUX request generator overrun flag */
 437:Drivers/STM32H7xx_HAL_Driver/Src/stm32h7xx_hal_dma.c ****       hdma->DMAmuxRequestGenStatus->RGCFR = hdma->DMAmuxRequestGenStatusMask;
 438:Drivers/STM32H7xx_HAL_Driver/Src/stm32h7xx_hal_dma.c ****     }
 439:Drivers/STM32H7xx_HAL_Driver/Src/stm32h7xx_hal_dma.c ****     else
 440:Drivers/STM32H7xx_HAL_Driver/Src/stm32h7xx_hal_dma.c ****     {
 441:Drivers/STM32H7xx_HAL_Driver/Src/stm32h7xx_hal_dma.c ****       hdma->DMAmuxRequestGen = 0U;
 442:Drivers/STM32H7xx_HAL_Driver/Src/stm32h7xx_hal_dma.c ****       hdma->DMAmuxRequestGenStatus = 0U;
 443:Drivers/STM32H7xx_HAL_Driver/Src/stm32h7xx_hal_dma.c ****       hdma->DMAmuxRequestGenStatusMask = 0U;
 444:Drivers/STM32H7xx_HAL_Driver/Src/stm32h7xx_hal_dma.c ****     }
 445:Drivers/STM32H7xx_HAL_Driver/Src/stm32h7xx_hal_dma.c ****   }
 446:Drivers/STM32H7xx_HAL_Driver/Src/stm32h7xx_hal_dma.c **** 
 447:Drivers/STM32H7xx_HAL_Driver/Src/stm32h7xx_hal_dma.c ****   /* Initialize the error code */
 448:Drivers/STM32H7xx_HAL_Driver/Src/stm32h7xx_hal_dma.c ****   hdma->ErrorCode = HAL_DMA_ERROR_NONE;
 449:Drivers/STM32H7xx_HAL_Driver/Src/stm32h7xx_hal_dma.c **** 
 450:Drivers/STM32H7xx_HAL_Driver/Src/stm32h7xx_hal_dma.c ****   /* Initialize the DMA state */
 451:Drivers/STM32H7xx_HAL_Driver/Src/stm32h7xx_hal_dma.c ****   hdma->State = HAL_DMA_STATE_READY;
 452:Drivers/STM32H7xx_HAL_Driver/Src/stm32h7xx_hal_dma.c **** 
 453:Drivers/STM32H7xx_HAL_Driver/Src/stm32h7xx_hal_dma.c ****   return HAL_OK;
 454:Drivers/STM32H7xx_HAL_Driver/Src/stm32h7xx_hal_dma.c **** }
 455:Drivers/STM32H7xx_HAL_Driver/Src/stm32h7xx_hal_dma.c **** 
 456:Drivers/STM32H7xx_HAL_Driver/Src/stm32h7xx_hal_dma.c **** /**
 457:Drivers/STM32H7xx_HAL_Driver/Src/stm32h7xx_hal_dma.c ****   * @brief  DeInitializes the DMA peripheral
 458:Drivers/STM32H7xx_HAL_Driver/Src/stm32h7xx_hal_dma.c ****   * @param  hdma: pointer to a DMA_HandleTypeDef structure that contains
 459:Drivers/STM32H7xx_HAL_Driver/Src/stm32h7xx_hal_dma.c ****   *               the configuration information for the specified DMA Stream.
 460:Drivers/STM32H7xx_HAL_Driver/Src/stm32h7xx_hal_dma.c ****   * @retval HAL status
 461:Drivers/STM32H7xx_HAL_Driver/Src/stm32h7xx_hal_dma.c ****   */
 462:Drivers/STM32H7xx_HAL_Driver/Src/stm32h7xx_hal_dma.c **** HAL_StatusTypeDef HAL_DMA_DeInit(DMA_HandleTypeDef *hdma)
 463:Drivers/STM32H7xx_HAL_Driver/Src/stm32h7xx_hal_dma.c **** {
 464:Drivers/STM32H7xx_HAL_Driver/Src/stm32h7xx_hal_dma.c ****   DMA_Base_Registers *regs_dma;
 465:Drivers/STM32H7xx_HAL_Driver/Src/stm32h7xx_hal_dma.c ****   BDMA_Base_Registers *regs_bdma;
 466:Drivers/STM32H7xx_HAL_Driver/Src/stm32h7xx_hal_dma.c **** 
 467:Drivers/STM32H7xx_HAL_Driver/Src/stm32h7xx_hal_dma.c ****   /* Check the DMA peripheral handle */
 468:Drivers/STM32H7xx_HAL_Driver/Src/stm32h7xx_hal_dma.c ****   if(hdma == NULL)
 469:Drivers/STM32H7xx_HAL_Driver/Src/stm32h7xx_hal_dma.c ****   {
 470:Drivers/STM32H7xx_HAL_Driver/Src/stm32h7xx_hal_dma.c ****     return HAL_ERROR;
 471:Drivers/STM32H7xx_HAL_Driver/Src/stm32h7xx_hal_dma.c ****   }
 472:Drivers/STM32H7xx_HAL_Driver/Src/stm32h7xx_hal_dma.c **** 
 473:Drivers/STM32H7xx_HAL_Driver/Src/stm32h7xx_hal_dma.c ****   /* Disable the selected DMA Streamx */
 474:Drivers/STM32H7xx_HAL_Driver/Src/stm32h7xx_hal_dma.c ****   __HAL_DMA_DISABLE(hdma);
 475:Drivers/STM32H7xx_HAL_Driver/Src/stm32h7xx_hal_dma.c **** 
 476:Drivers/STM32H7xx_HAL_Driver/Src/stm32h7xx_hal_dma.c ****   if(IS_DMA_STREAM_INSTANCE(hdma->Instance) != 0U) /* DMA1 or DMA2 instance */
 477:Drivers/STM32H7xx_HAL_Driver/Src/stm32h7xx_hal_dma.c ****   {
 478:Drivers/STM32H7xx_HAL_Driver/Src/stm32h7xx_hal_dma.c ****     /* Reset DMA Streamx control register */
 479:Drivers/STM32H7xx_HAL_Driver/Src/stm32h7xx_hal_dma.c ****     ((DMA_Stream_TypeDef   *)hdma->Instance)->CR   = 0U;
 480:Drivers/STM32H7xx_HAL_Driver/Src/stm32h7xx_hal_dma.c **** 
 481:Drivers/STM32H7xx_HAL_Driver/Src/stm32h7xx_hal_dma.c ****     /* Reset DMA Streamx number of data to transfer register */
 482:Drivers/STM32H7xx_HAL_Driver/Src/stm32h7xx_hal_dma.c ****     ((DMA_Stream_TypeDef   *)hdma->Instance)->NDTR = 0U;
 483:Drivers/STM32H7xx_HAL_Driver/Src/stm32h7xx_hal_dma.c **** 
 484:Drivers/STM32H7xx_HAL_Driver/Src/stm32h7xx_hal_dma.c ****     /* Reset DMA Streamx peripheral address register */
 485:Drivers/STM32H7xx_HAL_Driver/Src/stm32h7xx_hal_dma.c ****     ((DMA_Stream_TypeDef   *)hdma->Instance)->PAR  = 0U;
 486:Drivers/STM32H7xx_HAL_Driver/Src/stm32h7xx_hal_dma.c **** 
 487:Drivers/STM32H7xx_HAL_Driver/Src/stm32h7xx_hal_dma.c ****     /* Reset DMA Streamx memory 0 address register */
 488:Drivers/STM32H7xx_HAL_Driver/Src/stm32h7xx_hal_dma.c ****     ((DMA_Stream_TypeDef   *)hdma->Instance)->M0AR = 0U;
 489:Drivers/STM32H7xx_HAL_Driver/Src/stm32h7xx_hal_dma.c **** 
ARM GAS  C:\Users\CompuTOP\AppData\Local\Temp\cc4hOfP8.s 			page 10


 490:Drivers/STM32H7xx_HAL_Driver/Src/stm32h7xx_hal_dma.c ****     /* Reset DMA Streamx memory 1 address register */
 491:Drivers/STM32H7xx_HAL_Driver/Src/stm32h7xx_hal_dma.c ****     ((DMA_Stream_TypeDef   *)hdma->Instance)->M1AR = 0U;
 492:Drivers/STM32H7xx_HAL_Driver/Src/stm32h7xx_hal_dma.c **** 
 493:Drivers/STM32H7xx_HAL_Driver/Src/stm32h7xx_hal_dma.c ****     /* Reset DMA Streamx FIFO control register */
 494:Drivers/STM32H7xx_HAL_Driver/Src/stm32h7xx_hal_dma.c ****     ((DMA_Stream_TypeDef   *)hdma->Instance)->FCR  = (uint32_t)0x00000021U;
 495:Drivers/STM32H7xx_HAL_Driver/Src/stm32h7xx_hal_dma.c **** 
 496:Drivers/STM32H7xx_HAL_Driver/Src/stm32h7xx_hal_dma.c ****     /* Get DMA steam Base Address */
 497:Drivers/STM32H7xx_HAL_Driver/Src/stm32h7xx_hal_dma.c ****     regs_dma = (DMA_Base_Registers *)DMA_CalcBaseAndBitshift(hdma);
 498:Drivers/STM32H7xx_HAL_Driver/Src/stm32h7xx_hal_dma.c **** 
 499:Drivers/STM32H7xx_HAL_Driver/Src/stm32h7xx_hal_dma.c ****     /* Clear all interrupt flags at correct offset within the register */
 500:Drivers/STM32H7xx_HAL_Driver/Src/stm32h7xx_hal_dma.c ****     regs_dma->IFCR = 0x3FUL << (hdma->StreamIndex & 0x1FU);
 501:Drivers/STM32H7xx_HAL_Driver/Src/stm32h7xx_hal_dma.c ****   }
 502:Drivers/STM32H7xx_HAL_Driver/Src/stm32h7xx_hal_dma.c ****   else if(IS_BDMA_CHANNEL_INSTANCE(hdma->Instance) != 0U) /* BDMA instance(s) */
 503:Drivers/STM32H7xx_HAL_Driver/Src/stm32h7xx_hal_dma.c ****   {
 504:Drivers/STM32H7xx_HAL_Driver/Src/stm32h7xx_hal_dma.c ****     /* Reset DMA Channel control register */
 505:Drivers/STM32H7xx_HAL_Driver/Src/stm32h7xx_hal_dma.c ****     ((BDMA_Channel_TypeDef *)hdma->Instance)->CCR  = 0U;
 506:Drivers/STM32H7xx_HAL_Driver/Src/stm32h7xx_hal_dma.c **** 
 507:Drivers/STM32H7xx_HAL_Driver/Src/stm32h7xx_hal_dma.c ****     /* Reset DMA Channel Number of Data to Transfer register */
 508:Drivers/STM32H7xx_HAL_Driver/Src/stm32h7xx_hal_dma.c ****     ((BDMA_Channel_TypeDef *)hdma->Instance)->CNDTR = 0U;
 509:Drivers/STM32H7xx_HAL_Driver/Src/stm32h7xx_hal_dma.c **** 
 510:Drivers/STM32H7xx_HAL_Driver/Src/stm32h7xx_hal_dma.c ****     /* Reset DMA Channel peripheral address register */
 511:Drivers/STM32H7xx_HAL_Driver/Src/stm32h7xx_hal_dma.c ****     ((BDMA_Channel_TypeDef *)hdma->Instance)->CPAR  = 0U;
 512:Drivers/STM32H7xx_HAL_Driver/Src/stm32h7xx_hal_dma.c **** 
 513:Drivers/STM32H7xx_HAL_Driver/Src/stm32h7xx_hal_dma.c ****     /* Reset DMA Channel memory 0 address register */
 514:Drivers/STM32H7xx_HAL_Driver/Src/stm32h7xx_hal_dma.c ****     ((BDMA_Channel_TypeDef *)hdma->Instance)->CM0AR = 0U;
 515:Drivers/STM32H7xx_HAL_Driver/Src/stm32h7xx_hal_dma.c **** 
 516:Drivers/STM32H7xx_HAL_Driver/Src/stm32h7xx_hal_dma.c ****     /* Reset DMA Channel memory 1 address register */
 517:Drivers/STM32H7xx_HAL_Driver/Src/stm32h7xx_hal_dma.c ****     ((BDMA_Channel_TypeDef *)hdma->Instance)->CM1AR = 0U;
 518:Drivers/STM32H7xx_HAL_Driver/Src/stm32h7xx_hal_dma.c **** 
 519:Drivers/STM32H7xx_HAL_Driver/Src/stm32h7xx_hal_dma.c ****     /* Get DMA steam Base Address */
 520:Drivers/STM32H7xx_HAL_Driver/Src/stm32h7xx_hal_dma.c ****     regs_bdma = (BDMA_Base_Registers *)DMA_CalcBaseAndBitshift(hdma);
 521:Drivers/STM32H7xx_HAL_Driver/Src/stm32h7xx_hal_dma.c **** 
 522:Drivers/STM32H7xx_HAL_Driver/Src/stm32h7xx_hal_dma.c ****     /* Clear all interrupt flags at correct offset within the register */
 523:Drivers/STM32H7xx_HAL_Driver/Src/stm32h7xx_hal_dma.c ****     regs_bdma->IFCR = ((BDMA_IFCR_CGIF0) << (hdma->StreamIndex & 0x1FU));
 524:Drivers/STM32H7xx_HAL_Driver/Src/stm32h7xx_hal_dma.c ****   }
 525:Drivers/STM32H7xx_HAL_Driver/Src/stm32h7xx_hal_dma.c ****   else
 526:Drivers/STM32H7xx_HAL_Driver/Src/stm32h7xx_hal_dma.c ****   {
 527:Drivers/STM32H7xx_HAL_Driver/Src/stm32h7xx_hal_dma.c ****     /* Return error status */
 528:Drivers/STM32H7xx_HAL_Driver/Src/stm32h7xx_hal_dma.c ****     return HAL_ERROR;
 529:Drivers/STM32H7xx_HAL_Driver/Src/stm32h7xx_hal_dma.c ****   }
 530:Drivers/STM32H7xx_HAL_Driver/Src/stm32h7xx_hal_dma.c **** 
 531:Drivers/STM32H7xx_HAL_Driver/Src/stm32h7xx_hal_dma.c **** #if defined (BDMA1) /* No DMAMUX available for BDMA1 available on  STM32H7Ax/Bx devices only */
 532:Drivers/STM32H7xx_HAL_Driver/Src/stm32h7xx_hal_dma.c ****   if(IS_DMA_DMAMUX_ALL_INSTANCE(hdma->Instance) != 0U) /* No DMAMUX available for BDMA1 */
 533:Drivers/STM32H7xx_HAL_Driver/Src/stm32h7xx_hal_dma.c **** #endif /* BDMA1 */
 534:Drivers/STM32H7xx_HAL_Driver/Src/stm32h7xx_hal_dma.c ****   {
 535:Drivers/STM32H7xx_HAL_Driver/Src/stm32h7xx_hal_dma.c ****     /* Initialize parameters for DMAMUX channel :
 536:Drivers/STM32H7xx_HAL_Driver/Src/stm32h7xx_hal_dma.c ****     DMAmuxChannel, DMAmuxChannelStatus and DMAmuxChannelStatusMask */
 537:Drivers/STM32H7xx_HAL_Driver/Src/stm32h7xx_hal_dma.c ****     DMA_CalcDMAMUXChannelBaseAndMask(hdma);
 538:Drivers/STM32H7xx_HAL_Driver/Src/stm32h7xx_hal_dma.c **** 
 539:Drivers/STM32H7xx_HAL_Driver/Src/stm32h7xx_hal_dma.c ****     if(hdma->DMAmuxChannel != 0U)
 540:Drivers/STM32H7xx_HAL_Driver/Src/stm32h7xx_hal_dma.c ****     {
 541:Drivers/STM32H7xx_HAL_Driver/Src/stm32h7xx_hal_dma.c ****       /* Resett he DMAMUX channel that corresponds to the DMA stream */
 542:Drivers/STM32H7xx_HAL_Driver/Src/stm32h7xx_hal_dma.c ****       hdma->DMAmuxChannel->CCR = 0U;
 543:Drivers/STM32H7xx_HAL_Driver/Src/stm32h7xx_hal_dma.c **** 
 544:Drivers/STM32H7xx_HAL_Driver/Src/stm32h7xx_hal_dma.c ****       /* Clear the DMAMUX synchro overrun flag */
 545:Drivers/STM32H7xx_HAL_Driver/Src/stm32h7xx_hal_dma.c ****       hdma->DMAmuxChannelStatus->CFR = hdma->DMAmuxChannelStatusMask;
 546:Drivers/STM32H7xx_HAL_Driver/Src/stm32h7xx_hal_dma.c ****     }
ARM GAS  C:\Users\CompuTOP\AppData\Local\Temp\cc4hOfP8.s 			page 11


 547:Drivers/STM32H7xx_HAL_Driver/Src/stm32h7xx_hal_dma.c **** 
 548:Drivers/STM32H7xx_HAL_Driver/Src/stm32h7xx_hal_dma.c ****     if((hdma->Init.Request >= DMA_REQUEST_GENERATOR0) && (hdma->Init.Request <= DMA_REQUEST_GENERAT
 549:Drivers/STM32H7xx_HAL_Driver/Src/stm32h7xx_hal_dma.c ****     {
 550:Drivers/STM32H7xx_HAL_Driver/Src/stm32h7xx_hal_dma.c ****       /* Initialize parameters for DMAMUX request generator :
 551:Drivers/STM32H7xx_HAL_Driver/Src/stm32h7xx_hal_dma.c ****       DMAmuxRequestGen, DMAmuxRequestGenStatus and DMAmuxRequestGenStatusMask */
 552:Drivers/STM32H7xx_HAL_Driver/Src/stm32h7xx_hal_dma.c ****       DMA_CalcDMAMUXRequestGenBaseAndMask(hdma);
 553:Drivers/STM32H7xx_HAL_Driver/Src/stm32h7xx_hal_dma.c **** 
 554:Drivers/STM32H7xx_HAL_Driver/Src/stm32h7xx_hal_dma.c ****       /* Reset the DMAMUX request generator register */
 555:Drivers/STM32H7xx_HAL_Driver/Src/stm32h7xx_hal_dma.c ****       hdma->DMAmuxRequestGen->RGCR = 0U;
 556:Drivers/STM32H7xx_HAL_Driver/Src/stm32h7xx_hal_dma.c **** 
 557:Drivers/STM32H7xx_HAL_Driver/Src/stm32h7xx_hal_dma.c ****       /* Clear the DMAMUX request generator overrun flag */
 558:Drivers/STM32H7xx_HAL_Driver/Src/stm32h7xx_hal_dma.c ****       hdma->DMAmuxRequestGenStatus->RGCFR = hdma->DMAmuxRequestGenStatusMask;
 559:Drivers/STM32H7xx_HAL_Driver/Src/stm32h7xx_hal_dma.c ****     }
 560:Drivers/STM32H7xx_HAL_Driver/Src/stm32h7xx_hal_dma.c **** 
 561:Drivers/STM32H7xx_HAL_Driver/Src/stm32h7xx_hal_dma.c ****     hdma->DMAmuxRequestGen = 0U;
 562:Drivers/STM32H7xx_HAL_Driver/Src/stm32h7xx_hal_dma.c ****     hdma->DMAmuxRequestGenStatus = 0U;
 563:Drivers/STM32H7xx_HAL_Driver/Src/stm32h7xx_hal_dma.c ****     hdma->DMAmuxRequestGenStatusMask = 0U;
 564:Drivers/STM32H7xx_HAL_Driver/Src/stm32h7xx_hal_dma.c ****   }
 565:Drivers/STM32H7xx_HAL_Driver/Src/stm32h7xx_hal_dma.c **** 
 566:Drivers/STM32H7xx_HAL_Driver/Src/stm32h7xx_hal_dma.c **** 
 567:Drivers/STM32H7xx_HAL_Driver/Src/stm32h7xx_hal_dma.c ****   /* Clean callbacks */
 568:Drivers/STM32H7xx_HAL_Driver/Src/stm32h7xx_hal_dma.c ****   hdma->XferCpltCallback       = NULL;
 569:Drivers/STM32H7xx_HAL_Driver/Src/stm32h7xx_hal_dma.c ****   hdma->XferHalfCpltCallback   = NULL;
 570:Drivers/STM32H7xx_HAL_Driver/Src/stm32h7xx_hal_dma.c ****   hdma->XferM1CpltCallback     = NULL;
 571:Drivers/STM32H7xx_HAL_Driver/Src/stm32h7xx_hal_dma.c ****   hdma->XferM1HalfCpltCallback = NULL;
 572:Drivers/STM32H7xx_HAL_Driver/Src/stm32h7xx_hal_dma.c ****   hdma->XferErrorCallback      = NULL;
 573:Drivers/STM32H7xx_HAL_Driver/Src/stm32h7xx_hal_dma.c ****   hdma->XferAbortCallback      = NULL;
 574:Drivers/STM32H7xx_HAL_Driver/Src/stm32h7xx_hal_dma.c **** 
 575:Drivers/STM32H7xx_HAL_Driver/Src/stm32h7xx_hal_dma.c ****   /* Initialize the error code */
 576:Drivers/STM32H7xx_HAL_Driver/Src/stm32h7xx_hal_dma.c ****   hdma->ErrorCode = HAL_DMA_ERROR_NONE;
 577:Drivers/STM32H7xx_HAL_Driver/Src/stm32h7xx_hal_dma.c **** 
 578:Drivers/STM32H7xx_HAL_Driver/Src/stm32h7xx_hal_dma.c ****   /* Initialize the DMA state */
 579:Drivers/STM32H7xx_HAL_Driver/Src/stm32h7xx_hal_dma.c ****   hdma->State = HAL_DMA_STATE_RESET;
 580:Drivers/STM32H7xx_HAL_Driver/Src/stm32h7xx_hal_dma.c **** 
 581:Drivers/STM32H7xx_HAL_Driver/Src/stm32h7xx_hal_dma.c ****   /* Release Lock */
 582:Drivers/STM32H7xx_HAL_Driver/Src/stm32h7xx_hal_dma.c ****   __HAL_UNLOCK(hdma);
 583:Drivers/STM32H7xx_HAL_Driver/Src/stm32h7xx_hal_dma.c **** 
 584:Drivers/STM32H7xx_HAL_Driver/Src/stm32h7xx_hal_dma.c ****   return HAL_OK;
 585:Drivers/STM32H7xx_HAL_Driver/Src/stm32h7xx_hal_dma.c **** }
 586:Drivers/STM32H7xx_HAL_Driver/Src/stm32h7xx_hal_dma.c **** 
 587:Drivers/STM32H7xx_HAL_Driver/Src/stm32h7xx_hal_dma.c **** /**
 588:Drivers/STM32H7xx_HAL_Driver/Src/stm32h7xx_hal_dma.c ****   * @}
 589:Drivers/STM32H7xx_HAL_Driver/Src/stm32h7xx_hal_dma.c ****   */
 590:Drivers/STM32H7xx_HAL_Driver/Src/stm32h7xx_hal_dma.c **** 
 591:Drivers/STM32H7xx_HAL_Driver/Src/stm32h7xx_hal_dma.c **** /** @addtogroup DMA_Exported_Functions_Group2
 592:Drivers/STM32H7xx_HAL_Driver/Src/stm32h7xx_hal_dma.c ****   *
 593:Drivers/STM32H7xx_HAL_Driver/Src/stm32h7xx_hal_dma.c **** @verbatim
 594:Drivers/STM32H7xx_HAL_Driver/Src/stm32h7xx_hal_dma.c ****  ===============================================================================
 595:Drivers/STM32H7xx_HAL_Driver/Src/stm32h7xx_hal_dma.c ****                       #####  IO operation functions  #####
 596:Drivers/STM32H7xx_HAL_Driver/Src/stm32h7xx_hal_dma.c ****  ===============================================================================
 597:Drivers/STM32H7xx_HAL_Driver/Src/stm32h7xx_hal_dma.c ****     [..]  This section provides functions allowing to:
 598:Drivers/STM32H7xx_HAL_Driver/Src/stm32h7xx_hal_dma.c ****       (+) Configure the source, destination address and data length and Start DMA transfer
 599:Drivers/STM32H7xx_HAL_Driver/Src/stm32h7xx_hal_dma.c ****       (+) Configure the source, destination address and data length and
 600:Drivers/STM32H7xx_HAL_Driver/Src/stm32h7xx_hal_dma.c ****           Start DMA transfer with interrupt
 601:Drivers/STM32H7xx_HAL_Driver/Src/stm32h7xx_hal_dma.c ****       (+) Register and Unregister DMA callbacks
 602:Drivers/STM32H7xx_HAL_Driver/Src/stm32h7xx_hal_dma.c ****       (+) Abort DMA transfer
 603:Drivers/STM32H7xx_HAL_Driver/Src/stm32h7xx_hal_dma.c ****       (+) Poll for transfer complete
ARM GAS  C:\Users\CompuTOP\AppData\Local\Temp\cc4hOfP8.s 			page 12


 604:Drivers/STM32H7xx_HAL_Driver/Src/stm32h7xx_hal_dma.c ****       (+) Handle DMA interrupt request
 605:Drivers/STM32H7xx_HAL_Driver/Src/stm32h7xx_hal_dma.c **** 
 606:Drivers/STM32H7xx_HAL_Driver/Src/stm32h7xx_hal_dma.c **** @endverbatim
 607:Drivers/STM32H7xx_HAL_Driver/Src/stm32h7xx_hal_dma.c ****   * @{
 608:Drivers/STM32H7xx_HAL_Driver/Src/stm32h7xx_hal_dma.c ****   */
 609:Drivers/STM32H7xx_HAL_Driver/Src/stm32h7xx_hal_dma.c **** 
 610:Drivers/STM32H7xx_HAL_Driver/Src/stm32h7xx_hal_dma.c **** /**
 611:Drivers/STM32H7xx_HAL_Driver/Src/stm32h7xx_hal_dma.c ****   * @brief  Starts the DMA Transfer.
 612:Drivers/STM32H7xx_HAL_Driver/Src/stm32h7xx_hal_dma.c ****   * @param  hdma      : pointer to a DMA_HandleTypeDef structure that contains
 613:Drivers/STM32H7xx_HAL_Driver/Src/stm32h7xx_hal_dma.c ****   *                     the configuration information for the specified DMA Stream.
 614:Drivers/STM32H7xx_HAL_Driver/Src/stm32h7xx_hal_dma.c ****   * @param  SrcAddress: The source memory Buffer address
 615:Drivers/STM32H7xx_HAL_Driver/Src/stm32h7xx_hal_dma.c ****   * @param  DstAddress: The destination memory Buffer address
 616:Drivers/STM32H7xx_HAL_Driver/Src/stm32h7xx_hal_dma.c ****   * @param  DataLength: The length of data to be transferred from source to destination
 617:Drivers/STM32H7xx_HAL_Driver/Src/stm32h7xx_hal_dma.c ****   * @retval HAL status
 618:Drivers/STM32H7xx_HAL_Driver/Src/stm32h7xx_hal_dma.c ****   */
 619:Drivers/STM32H7xx_HAL_Driver/Src/stm32h7xx_hal_dma.c **** HAL_StatusTypeDef HAL_DMA_Start(DMA_HandleTypeDef *hdma, uint32_t SrcAddress, uint32_t DstAddress, 
 620:Drivers/STM32H7xx_HAL_Driver/Src/stm32h7xx_hal_dma.c **** {
 621:Drivers/STM32H7xx_HAL_Driver/Src/stm32h7xx_hal_dma.c ****   HAL_StatusTypeDef status = HAL_OK;
 622:Drivers/STM32H7xx_HAL_Driver/Src/stm32h7xx_hal_dma.c **** 
 623:Drivers/STM32H7xx_HAL_Driver/Src/stm32h7xx_hal_dma.c ****   /* Check the parameters */
 624:Drivers/STM32H7xx_HAL_Driver/Src/stm32h7xx_hal_dma.c ****   assert_param(IS_DMA_BUFFER_SIZE(DataLength));
 625:Drivers/STM32H7xx_HAL_Driver/Src/stm32h7xx_hal_dma.c **** 
 626:Drivers/STM32H7xx_HAL_Driver/Src/stm32h7xx_hal_dma.c ****   /* Check the DMA peripheral handle */
 627:Drivers/STM32H7xx_HAL_Driver/Src/stm32h7xx_hal_dma.c ****   if(hdma == NULL)
 628:Drivers/STM32H7xx_HAL_Driver/Src/stm32h7xx_hal_dma.c ****   {
 629:Drivers/STM32H7xx_HAL_Driver/Src/stm32h7xx_hal_dma.c ****     return HAL_ERROR;
 630:Drivers/STM32H7xx_HAL_Driver/Src/stm32h7xx_hal_dma.c ****   }
 631:Drivers/STM32H7xx_HAL_Driver/Src/stm32h7xx_hal_dma.c **** 
 632:Drivers/STM32H7xx_HAL_Driver/Src/stm32h7xx_hal_dma.c ****   /* Process locked */
 633:Drivers/STM32H7xx_HAL_Driver/Src/stm32h7xx_hal_dma.c ****   __HAL_LOCK(hdma);
 634:Drivers/STM32H7xx_HAL_Driver/Src/stm32h7xx_hal_dma.c **** 
 635:Drivers/STM32H7xx_HAL_Driver/Src/stm32h7xx_hal_dma.c ****   if(HAL_DMA_STATE_READY == hdma->State)
 636:Drivers/STM32H7xx_HAL_Driver/Src/stm32h7xx_hal_dma.c ****   {
 637:Drivers/STM32H7xx_HAL_Driver/Src/stm32h7xx_hal_dma.c ****     /* Change DMA peripheral state */
 638:Drivers/STM32H7xx_HAL_Driver/Src/stm32h7xx_hal_dma.c ****     hdma->State = HAL_DMA_STATE_BUSY;
 639:Drivers/STM32H7xx_HAL_Driver/Src/stm32h7xx_hal_dma.c **** 
 640:Drivers/STM32H7xx_HAL_Driver/Src/stm32h7xx_hal_dma.c ****     /* Initialize the error code */
 641:Drivers/STM32H7xx_HAL_Driver/Src/stm32h7xx_hal_dma.c ****     hdma->ErrorCode = HAL_DMA_ERROR_NONE;
 642:Drivers/STM32H7xx_HAL_Driver/Src/stm32h7xx_hal_dma.c **** 
 643:Drivers/STM32H7xx_HAL_Driver/Src/stm32h7xx_hal_dma.c ****     /* Disable the peripheral */
 644:Drivers/STM32H7xx_HAL_Driver/Src/stm32h7xx_hal_dma.c ****     __HAL_DMA_DISABLE(hdma);
 645:Drivers/STM32H7xx_HAL_Driver/Src/stm32h7xx_hal_dma.c **** 
 646:Drivers/STM32H7xx_HAL_Driver/Src/stm32h7xx_hal_dma.c ****     /* Configure the source, destination address and the data length */
 647:Drivers/STM32H7xx_HAL_Driver/Src/stm32h7xx_hal_dma.c ****     DMA_SetConfig(hdma, SrcAddress, DstAddress, DataLength);
 648:Drivers/STM32H7xx_HAL_Driver/Src/stm32h7xx_hal_dma.c **** 
 649:Drivers/STM32H7xx_HAL_Driver/Src/stm32h7xx_hal_dma.c ****     /* Enable the Peripheral */
 650:Drivers/STM32H7xx_HAL_Driver/Src/stm32h7xx_hal_dma.c ****     __HAL_DMA_ENABLE(hdma);
 651:Drivers/STM32H7xx_HAL_Driver/Src/stm32h7xx_hal_dma.c ****   }
 652:Drivers/STM32H7xx_HAL_Driver/Src/stm32h7xx_hal_dma.c ****   else
 653:Drivers/STM32H7xx_HAL_Driver/Src/stm32h7xx_hal_dma.c ****   {
 654:Drivers/STM32H7xx_HAL_Driver/Src/stm32h7xx_hal_dma.c ****     /* Set the error code to busy */
 655:Drivers/STM32H7xx_HAL_Driver/Src/stm32h7xx_hal_dma.c ****     hdma->ErrorCode = HAL_DMA_ERROR_BUSY;
 656:Drivers/STM32H7xx_HAL_Driver/Src/stm32h7xx_hal_dma.c **** 
 657:Drivers/STM32H7xx_HAL_Driver/Src/stm32h7xx_hal_dma.c ****     /* Process unlocked */
 658:Drivers/STM32H7xx_HAL_Driver/Src/stm32h7xx_hal_dma.c ****     __HAL_UNLOCK(hdma);
 659:Drivers/STM32H7xx_HAL_Driver/Src/stm32h7xx_hal_dma.c **** 
 660:Drivers/STM32H7xx_HAL_Driver/Src/stm32h7xx_hal_dma.c ****     /* Return error status */
ARM GAS  C:\Users\CompuTOP\AppData\Local\Temp\cc4hOfP8.s 			page 13


 661:Drivers/STM32H7xx_HAL_Driver/Src/stm32h7xx_hal_dma.c ****     status = HAL_ERROR;
 662:Drivers/STM32H7xx_HAL_Driver/Src/stm32h7xx_hal_dma.c ****   }
 663:Drivers/STM32H7xx_HAL_Driver/Src/stm32h7xx_hal_dma.c ****   return status;
 664:Drivers/STM32H7xx_HAL_Driver/Src/stm32h7xx_hal_dma.c **** }
 665:Drivers/STM32H7xx_HAL_Driver/Src/stm32h7xx_hal_dma.c **** 
 666:Drivers/STM32H7xx_HAL_Driver/Src/stm32h7xx_hal_dma.c **** /**
 667:Drivers/STM32H7xx_HAL_Driver/Src/stm32h7xx_hal_dma.c ****   * @brief  Start the DMA Transfer with interrupt enabled.
 668:Drivers/STM32H7xx_HAL_Driver/Src/stm32h7xx_hal_dma.c ****   * @param  hdma:       pointer to a DMA_HandleTypeDef structure that contains
 669:Drivers/STM32H7xx_HAL_Driver/Src/stm32h7xx_hal_dma.c ****   *                     the configuration information for the specified DMA Stream.
 670:Drivers/STM32H7xx_HAL_Driver/Src/stm32h7xx_hal_dma.c ****   * @param  SrcAddress: The source memory Buffer address
 671:Drivers/STM32H7xx_HAL_Driver/Src/stm32h7xx_hal_dma.c ****   * @param  DstAddress: The destination memory Buffer address
 672:Drivers/STM32H7xx_HAL_Driver/Src/stm32h7xx_hal_dma.c ****   * @param  DataLength: The length of data to be transferred from source to destination
 673:Drivers/STM32H7xx_HAL_Driver/Src/stm32h7xx_hal_dma.c ****   * @retval HAL status
 674:Drivers/STM32H7xx_HAL_Driver/Src/stm32h7xx_hal_dma.c ****   */
 675:Drivers/STM32H7xx_HAL_Driver/Src/stm32h7xx_hal_dma.c **** HAL_StatusTypeDef HAL_DMA_Start_IT(DMA_HandleTypeDef *hdma, uint32_t SrcAddress, uint32_t DstAddres
 676:Drivers/STM32H7xx_HAL_Driver/Src/stm32h7xx_hal_dma.c **** {
 677:Drivers/STM32H7xx_HAL_Driver/Src/stm32h7xx_hal_dma.c ****   HAL_StatusTypeDef status = HAL_OK;
 678:Drivers/STM32H7xx_HAL_Driver/Src/stm32h7xx_hal_dma.c **** 
 679:Drivers/STM32H7xx_HAL_Driver/Src/stm32h7xx_hal_dma.c ****   /* Check the parameters */
 680:Drivers/STM32H7xx_HAL_Driver/Src/stm32h7xx_hal_dma.c ****   assert_param(IS_DMA_BUFFER_SIZE(DataLength));
 681:Drivers/STM32H7xx_HAL_Driver/Src/stm32h7xx_hal_dma.c **** 
 682:Drivers/STM32H7xx_HAL_Driver/Src/stm32h7xx_hal_dma.c ****   /* Check the DMA peripheral handle */
 683:Drivers/STM32H7xx_HAL_Driver/Src/stm32h7xx_hal_dma.c ****   if(hdma == NULL)
 684:Drivers/STM32H7xx_HAL_Driver/Src/stm32h7xx_hal_dma.c ****   {
 685:Drivers/STM32H7xx_HAL_Driver/Src/stm32h7xx_hal_dma.c ****     return HAL_ERROR;
 686:Drivers/STM32H7xx_HAL_Driver/Src/stm32h7xx_hal_dma.c ****   }
 687:Drivers/STM32H7xx_HAL_Driver/Src/stm32h7xx_hal_dma.c **** 
 688:Drivers/STM32H7xx_HAL_Driver/Src/stm32h7xx_hal_dma.c ****   /* Process locked */
 689:Drivers/STM32H7xx_HAL_Driver/Src/stm32h7xx_hal_dma.c ****   __HAL_LOCK(hdma);
 690:Drivers/STM32H7xx_HAL_Driver/Src/stm32h7xx_hal_dma.c **** 
 691:Drivers/STM32H7xx_HAL_Driver/Src/stm32h7xx_hal_dma.c ****   if(HAL_DMA_STATE_READY == hdma->State)
 692:Drivers/STM32H7xx_HAL_Driver/Src/stm32h7xx_hal_dma.c ****   {
 693:Drivers/STM32H7xx_HAL_Driver/Src/stm32h7xx_hal_dma.c ****     /* Change DMA peripheral state */
 694:Drivers/STM32H7xx_HAL_Driver/Src/stm32h7xx_hal_dma.c ****     hdma->State = HAL_DMA_STATE_BUSY;
 695:Drivers/STM32H7xx_HAL_Driver/Src/stm32h7xx_hal_dma.c **** 
 696:Drivers/STM32H7xx_HAL_Driver/Src/stm32h7xx_hal_dma.c ****     /* Initialize the error code */
 697:Drivers/STM32H7xx_HAL_Driver/Src/stm32h7xx_hal_dma.c ****     hdma->ErrorCode = HAL_DMA_ERROR_NONE;
 698:Drivers/STM32H7xx_HAL_Driver/Src/stm32h7xx_hal_dma.c **** 
 699:Drivers/STM32H7xx_HAL_Driver/Src/stm32h7xx_hal_dma.c ****     /* Disable the peripheral */
 700:Drivers/STM32H7xx_HAL_Driver/Src/stm32h7xx_hal_dma.c ****     __HAL_DMA_DISABLE(hdma);
 701:Drivers/STM32H7xx_HAL_Driver/Src/stm32h7xx_hal_dma.c **** 
 702:Drivers/STM32H7xx_HAL_Driver/Src/stm32h7xx_hal_dma.c ****     /* Configure the source, destination address and the data length */
 703:Drivers/STM32H7xx_HAL_Driver/Src/stm32h7xx_hal_dma.c ****     DMA_SetConfig(hdma, SrcAddress, DstAddress, DataLength);
 704:Drivers/STM32H7xx_HAL_Driver/Src/stm32h7xx_hal_dma.c **** 
 705:Drivers/STM32H7xx_HAL_Driver/Src/stm32h7xx_hal_dma.c ****     if(IS_DMA_STREAM_INSTANCE(hdma->Instance) != 0U) /* DMA1 or DMA2 instance */
 706:Drivers/STM32H7xx_HAL_Driver/Src/stm32h7xx_hal_dma.c ****     {
 707:Drivers/STM32H7xx_HAL_Driver/Src/stm32h7xx_hal_dma.c ****       /* Enable Common interrupts*/
 708:Drivers/STM32H7xx_HAL_Driver/Src/stm32h7xx_hal_dma.c ****       MODIFY_REG(((DMA_Stream_TypeDef   *)hdma->Instance)->CR, (DMA_IT_TC | DMA_IT_TE | DMA_IT_DME 
 709:Drivers/STM32H7xx_HAL_Driver/Src/stm32h7xx_hal_dma.c **** 
 710:Drivers/STM32H7xx_HAL_Driver/Src/stm32h7xx_hal_dma.c ****       if(hdma->XferHalfCpltCallback != NULL)
 711:Drivers/STM32H7xx_HAL_Driver/Src/stm32h7xx_hal_dma.c ****       {
 712:Drivers/STM32H7xx_HAL_Driver/Src/stm32h7xx_hal_dma.c ****         /* Enable Half Transfer IT if corresponding Callback is set */
 713:Drivers/STM32H7xx_HAL_Driver/Src/stm32h7xx_hal_dma.c ****         ((DMA_Stream_TypeDef   *)hdma->Instance)->CR  |= DMA_IT_HT;
 714:Drivers/STM32H7xx_HAL_Driver/Src/stm32h7xx_hal_dma.c ****       }
 715:Drivers/STM32H7xx_HAL_Driver/Src/stm32h7xx_hal_dma.c ****     }
 716:Drivers/STM32H7xx_HAL_Driver/Src/stm32h7xx_hal_dma.c ****     else /* BDMA channel */
 717:Drivers/STM32H7xx_HAL_Driver/Src/stm32h7xx_hal_dma.c ****     {
ARM GAS  C:\Users\CompuTOP\AppData\Local\Temp\cc4hOfP8.s 			page 14


 718:Drivers/STM32H7xx_HAL_Driver/Src/stm32h7xx_hal_dma.c ****       /* Enable Common interrupts */
 719:Drivers/STM32H7xx_HAL_Driver/Src/stm32h7xx_hal_dma.c ****       MODIFY_REG(((BDMA_Channel_TypeDef   *)hdma->Instance)->CCR, (BDMA_CCR_TCIE | BDMA_CCR_HTIE | 
 720:Drivers/STM32H7xx_HAL_Driver/Src/stm32h7xx_hal_dma.c **** 
 721:Drivers/STM32H7xx_HAL_Driver/Src/stm32h7xx_hal_dma.c ****       if(hdma->XferHalfCpltCallback != NULL)
 722:Drivers/STM32H7xx_HAL_Driver/Src/stm32h7xx_hal_dma.c ****       {
 723:Drivers/STM32H7xx_HAL_Driver/Src/stm32h7xx_hal_dma.c ****         /*Enable Half Transfer IT if corresponding Callback is set */
 724:Drivers/STM32H7xx_HAL_Driver/Src/stm32h7xx_hal_dma.c ****         ((BDMA_Channel_TypeDef   *)hdma->Instance)->CCR  |= BDMA_CCR_HTIE;
 725:Drivers/STM32H7xx_HAL_Driver/Src/stm32h7xx_hal_dma.c ****       }
 726:Drivers/STM32H7xx_HAL_Driver/Src/stm32h7xx_hal_dma.c ****     }
 727:Drivers/STM32H7xx_HAL_Driver/Src/stm32h7xx_hal_dma.c **** 
 728:Drivers/STM32H7xx_HAL_Driver/Src/stm32h7xx_hal_dma.c ****     if(IS_DMA_DMAMUX_ALL_INSTANCE(hdma->Instance) != 0U) /* No DMAMUX available for BDMA1 */
 729:Drivers/STM32H7xx_HAL_Driver/Src/stm32h7xx_hal_dma.c ****     {
 730:Drivers/STM32H7xx_HAL_Driver/Src/stm32h7xx_hal_dma.c ****       /* Check if DMAMUX Synchronization is enabled */
 731:Drivers/STM32H7xx_HAL_Driver/Src/stm32h7xx_hal_dma.c ****       if((hdma->DMAmuxChannel->CCR & DMAMUX_CxCR_SE) != 0U)
 732:Drivers/STM32H7xx_HAL_Driver/Src/stm32h7xx_hal_dma.c ****       {
 733:Drivers/STM32H7xx_HAL_Driver/Src/stm32h7xx_hal_dma.c ****         /* Enable DMAMUX sync overrun IT*/
 734:Drivers/STM32H7xx_HAL_Driver/Src/stm32h7xx_hal_dma.c ****         hdma->DMAmuxChannel->CCR |= DMAMUX_CxCR_SOIE;
 735:Drivers/STM32H7xx_HAL_Driver/Src/stm32h7xx_hal_dma.c ****       }
 736:Drivers/STM32H7xx_HAL_Driver/Src/stm32h7xx_hal_dma.c **** 
 737:Drivers/STM32H7xx_HAL_Driver/Src/stm32h7xx_hal_dma.c ****       if(hdma->DMAmuxRequestGen != 0U)
 738:Drivers/STM32H7xx_HAL_Driver/Src/stm32h7xx_hal_dma.c ****       {
 739:Drivers/STM32H7xx_HAL_Driver/Src/stm32h7xx_hal_dma.c ****         /* if using DMAMUX request generator, enable the DMAMUX request generator overrun IT*/
 740:Drivers/STM32H7xx_HAL_Driver/Src/stm32h7xx_hal_dma.c ****         /* enable the request gen overrun IT */
 741:Drivers/STM32H7xx_HAL_Driver/Src/stm32h7xx_hal_dma.c ****         hdma->DMAmuxRequestGen->RGCR |= DMAMUX_RGxCR_OIE;
 742:Drivers/STM32H7xx_HAL_Driver/Src/stm32h7xx_hal_dma.c ****       }
 743:Drivers/STM32H7xx_HAL_Driver/Src/stm32h7xx_hal_dma.c ****     }
 744:Drivers/STM32H7xx_HAL_Driver/Src/stm32h7xx_hal_dma.c **** 
 745:Drivers/STM32H7xx_HAL_Driver/Src/stm32h7xx_hal_dma.c ****     /* Enable the Peripheral */
 746:Drivers/STM32H7xx_HAL_Driver/Src/stm32h7xx_hal_dma.c ****     __HAL_DMA_ENABLE(hdma);
 747:Drivers/STM32H7xx_HAL_Driver/Src/stm32h7xx_hal_dma.c ****   }
 748:Drivers/STM32H7xx_HAL_Driver/Src/stm32h7xx_hal_dma.c ****   else
 749:Drivers/STM32H7xx_HAL_Driver/Src/stm32h7xx_hal_dma.c ****   {
 750:Drivers/STM32H7xx_HAL_Driver/Src/stm32h7xx_hal_dma.c ****     /* Set the error code to busy */
 751:Drivers/STM32H7xx_HAL_Driver/Src/stm32h7xx_hal_dma.c ****     hdma->ErrorCode = HAL_DMA_ERROR_BUSY;
 752:Drivers/STM32H7xx_HAL_Driver/Src/stm32h7xx_hal_dma.c **** 
 753:Drivers/STM32H7xx_HAL_Driver/Src/stm32h7xx_hal_dma.c ****     /* Process unlocked */
 754:Drivers/STM32H7xx_HAL_Driver/Src/stm32h7xx_hal_dma.c ****     __HAL_UNLOCK(hdma);
 755:Drivers/STM32H7xx_HAL_Driver/Src/stm32h7xx_hal_dma.c **** 
 756:Drivers/STM32H7xx_HAL_Driver/Src/stm32h7xx_hal_dma.c ****     /* Return error status */
 757:Drivers/STM32H7xx_HAL_Driver/Src/stm32h7xx_hal_dma.c ****     status = HAL_ERROR;
 758:Drivers/STM32H7xx_HAL_Driver/Src/stm32h7xx_hal_dma.c ****   }
 759:Drivers/STM32H7xx_HAL_Driver/Src/stm32h7xx_hal_dma.c **** 
 760:Drivers/STM32H7xx_HAL_Driver/Src/stm32h7xx_hal_dma.c ****   return status;
 761:Drivers/STM32H7xx_HAL_Driver/Src/stm32h7xx_hal_dma.c **** }
 762:Drivers/STM32H7xx_HAL_Driver/Src/stm32h7xx_hal_dma.c **** 
 763:Drivers/STM32H7xx_HAL_Driver/Src/stm32h7xx_hal_dma.c **** /**
 764:Drivers/STM32H7xx_HAL_Driver/Src/stm32h7xx_hal_dma.c ****   * @brief  Aborts the DMA Transfer.
 765:Drivers/STM32H7xx_HAL_Driver/Src/stm32h7xx_hal_dma.c ****   * @param  hdma  : pointer to a DMA_HandleTypeDef structure that contains
 766:Drivers/STM32H7xx_HAL_Driver/Src/stm32h7xx_hal_dma.c ****   *                 the configuration information for the specified DMA Stream.
 767:Drivers/STM32H7xx_HAL_Driver/Src/stm32h7xx_hal_dma.c ****   *
 768:Drivers/STM32H7xx_HAL_Driver/Src/stm32h7xx_hal_dma.c ****   * @note  After disabling a DMA Stream, a check for wait until the DMA Stream is
 769:Drivers/STM32H7xx_HAL_Driver/Src/stm32h7xx_hal_dma.c ****   *        effectively disabled is added. If a Stream is disabled
 770:Drivers/STM32H7xx_HAL_Driver/Src/stm32h7xx_hal_dma.c ****   *        while a data transfer is ongoing, the current data will be transferred
 771:Drivers/STM32H7xx_HAL_Driver/Src/stm32h7xx_hal_dma.c ****   *        and the Stream will be effectively disabled only after the transfer of
 772:Drivers/STM32H7xx_HAL_Driver/Src/stm32h7xx_hal_dma.c ****   *        this single data is finished.
 773:Drivers/STM32H7xx_HAL_Driver/Src/stm32h7xx_hal_dma.c ****   * @retval HAL status
 774:Drivers/STM32H7xx_HAL_Driver/Src/stm32h7xx_hal_dma.c ****   */
ARM GAS  C:\Users\CompuTOP\AppData\Local\Temp\cc4hOfP8.s 			page 15


 775:Drivers/STM32H7xx_HAL_Driver/Src/stm32h7xx_hal_dma.c **** HAL_StatusTypeDef HAL_DMA_Abort(DMA_HandleTypeDef *hdma)
 776:Drivers/STM32H7xx_HAL_Driver/Src/stm32h7xx_hal_dma.c **** {
 777:Drivers/STM32H7xx_HAL_Driver/Src/stm32h7xx_hal_dma.c ****   /* calculate DMA base and stream number */
 778:Drivers/STM32H7xx_HAL_Driver/Src/stm32h7xx_hal_dma.c ****   DMA_Base_Registers *regs_dma;
 779:Drivers/STM32H7xx_HAL_Driver/Src/stm32h7xx_hal_dma.c ****   BDMA_Base_Registers *regs_bdma;
 780:Drivers/STM32H7xx_HAL_Driver/Src/stm32h7xx_hal_dma.c ****   const __IO uint32_t *enableRegister;
 781:Drivers/STM32H7xx_HAL_Driver/Src/stm32h7xx_hal_dma.c **** 
 782:Drivers/STM32H7xx_HAL_Driver/Src/stm32h7xx_hal_dma.c ****   uint32_t tickstart = HAL_GetTick();
 783:Drivers/STM32H7xx_HAL_Driver/Src/stm32h7xx_hal_dma.c **** 
 784:Drivers/STM32H7xx_HAL_Driver/Src/stm32h7xx_hal_dma.c ****  /* Check the DMA peripheral handle */
 785:Drivers/STM32H7xx_HAL_Driver/Src/stm32h7xx_hal_dma.c ****   if(hdma == NULL)
 786:Drivers/STM32H7xx_HAL_Driver/Src/stm32h7xx_hal_dma.c ****   {
 787:Drivers/STM32H7xx_HAL_Driver/Src/stm32h7xx_hal_dma.c ****     return HAL_ERROR;
 788:Drivers/STM32H7xx_HAL_Driver/Src/stm32h7xx_hal_dma.c ****   }
 789:Drivers/STM32H7xx_HAL_Driver/Src/stm32h7xx_hal_dma.c **** 
 790:Drivers/STM32H7xx_HAL_Driver/Src/stm32h7xx_hal_dma.c ****   /* Check the DMA peripheral state */
 791:Drivers/STM32H7xx_HAL_Driver/Src/stm32h7xx_hal_dma.c ****   if(hdma->State != HAL_DMA_STATE_BUSY)
 792:Drivers/STM32H7xx_HAL_Driver/Src/stm32h7xx_hal_dma.c ****   {
 793:Drivers/STM32H7xx_HAL_Driver/Src/stm32h7xx_hal_dma.c ****     hdma->ErrorCode = HAL_DMA_ERROR_NO_XFER;
 794:Drivers/STM32H7xx_HAL_Driver/Src/stm32h7xx_hal_dma.c **** 
 795:Drivers/STM32H7xx_HAL_Driver/Src/stm32h7xx_hal_dma.c ****     /* Process Unlocked */
 796:Drivers/STM32H7xx_HAL_Driver/Src/stm32h7xx_hal_dma.c ****     __HAL_UNLOCK(hdma);
 797:Drivers/STM32H7xx_HAL_Driver/Src/stm32h7xx_hal_dma.c **** 
 798:Drivers/STM32H7xx_HAL_Driver/Src/stm32h7xx_hal_dma.c ****     return HAL_ERROR;
 799:Drivers/STM32H7xx_HAL_Driver/Src/stm32h7xx_hal_dma.c ****   }
 800:Drivers/STM32H7xx_HAL_Driver/Src/stm32h7xx_hal_dma.c ****   else
 801:Drivers/STM32H7xx_HAL_Driver/Src/stm32h7xx_hal_dma.c ****   {
 802:Drivers/STM32H7xx_HAL_Driver/Src/stm32h7xx_hal_dma.c ****     /* Disable all the transfer interrupts */
 803:Drivers/STM32H7xx_HAL_Driver/Src/stm32h7xx_hal_dma.c ****     if(IS_DMA_STREAM_INSTANCE(hdma->Instance) != 0U) /* DMA1 or DMA2 instance */
 804:Drivers/STM32H7xx_HAL_Driver/Src/stm32h7xx_hal_dma.c ****     {
 805:Drivers/STM32H7xx_HAL_Driver/Src/stm32h7xx_hal_dma.c ****        /* Disable DMA All Interrupts  */
 806:Drivers/STM32H7xx_HAL_Driver/Src/stm32h7xx_hal_dma.c ****       ((DMA_Stream_TypeDef   *)hdma->Instance)->CR  &= ~(DMA_IT_TC | DMA_IT_TE | DMA_IT_DME | DMA_I
 807:Drivers/STM32H7xx_HAL_Driver/Src/stm32h7xx_hal_dma.c ****       ((DMA_Stream_TypeDef   *)hdma->Instance)->FCR &= ~(DMA_IT_FE);
 808:Drivers/STM32H7xx_HAL_Driver/Src/stm32h7xx_hal_dma.c **** 
 809:Drivers/STM32H7xx_HAL_Driver/Src/stm32h7xx_hal_dma.c ****       enableRegister = (__IO uint32_t *)(&(((DMA_Stream_TypeDef   *)hdma->Instance)->CR));
 810:Drivers/STM32H7xx_HAL_Driver/Src/stm32h7xx_hal_dma.c ****     }
 811:Drivers/STM32H7xx_HAL_Driver/Src/stm32h7xx_hal_dma.c ****     else /* BDMA channel */
 812:Drivers/STM32H7xx_HAL_Driver/Src/stm32h7xx_hal_dma.c ****     {
 813:Drivers/STM32H7xx_HAL_Driver/Src/stm32h7xx_hal_dma.c ****       /* Disable DMA All Interrupts */
 814:Drivers/STM32H7xx_HAL_Driver/Src/stm32h7xx_hal_dma.c ****       ((BDMA_Channel_TypeDef   *)hdma->Instance)->CCR  &= ~(BDMA_CCR_TCIE | BDMA_CCR_HTIE | BDMA_CC
 815:Drivers/STM32H7xx_HAL_Driver/Src/stm32h7xx_hal_dma.c **** 
 816:Drivers/STM32H7xx_HAL_Driver/Src/stm32h7xx_hal_dma.c ****       enableRegister = (__IO uint32_t *)(&(((BDMA_Channel_TypeDef   *)hdma->Instance)->CCR));
 817:Drivers/STM32H7xx_HAL_Driver/Src/stm32h7xx_hal_dma.c ****     }
 818:Drivers/STM32H7xx_HAL_Driver/Src/stm32h7xx_hal_dma.c **** 
 819:Drivers/STM32H7xx_HAL_Driver/Src/stm32h7xx_hal_dma.c ****     if(IS_DMA_DMAMUX_ALL_INSTANCE(hdma->Instance) != 0U) /* No DMAMUX available for BDMA1 */
 820:Drivers/STM32H7xx_HAL_Driver/Src/stm32h7xx_hal_dma.c ****     {
 821:Drivers/STM32H7xx_HAL_Driver/Src/stm32h7xx_hal_dma.c ****       /* disable the DMAMUX sync overrun IT */
 822:Drivers/STM32H7xx_HAL_Driver/Src/stm32h7xx_hal_dma.c ****       hdma->DMAmuxChannel->CCR &= ~DMAMUX_CxCR_SOIE;
 823:Drivers/STM32H7xx_HAL_Driver/Src/stm32h7xx_hal_dma.c ****     }
 824:Drivers/STM32H7xx_HAL_Driver/Src/stm32h7xx_hal_dma.c **** 
 825:Drivers/STM32H7xx_HAL_Driver/Src/stm32h7xx_hal_dma.c ****     /* Disable the stream */
 826:Drivers/STM32H7xx_HAL_Driver/Src/stm32h7xx_hal_dma.c ****     __HAL_DMA_DISABLE(hdma);
 827:Drivers/STM32H7xx_HAL_Driver/Src/stm32h7xx_hal_dma.c **** 
 828:Drivers/STM32H7xx_HAL_Driver/Src/stm32h7xx_hal_dma.c ****     /* Check if the DMA Stream is effectively disabled */
 829:Drivers/STM32H7xx_HAL_Driver/Src/stm32h7xx_hal_dma.c ****     while(((*enableRegister) & DMA_SxCR_EN) != 0U)
 830:Drivers/STM32H7xx_HAL_Driver/Src/stm32h7xx_hal_dma.c ****     {
 831:Drivers/STM32H7xx_HAL_Driver/Src/stm32h7xx_hal_dma.c ****       /* Check for the Timeout */
ARM GAS  C:\Users\CompuTOP\AppData\Local\Temp\cc4hOfP8.s 			page 16


 832:Drivers/STM32H7xx_HAL_Driver/Src/stm32h7xx_hal_dma.c ****       if((HAL_GetTick() - tickstart ) > HAL_TIMEOUT_DMA_ABORT)
 833:Drivers/STM32H7xx_HAL_Driver/Src/stm32h7xx_hal_dma.c ****       {
 834:Drivers/STM32H7xx_HAL_Driver/Src/stm32h7xx_hal_dma.c ****         /* Update error code */
 835:Drivers/STM32H7xx_HAL_Driver/Src/stm32h7xx_hal_dma.c ****         hdma->ErrorCode = HAL_DMA_ERROR_TIMEOUT;
 836:Drivers/STM32H7xx_HAL_Driver/Src/stm32h7xx_hal_dma.c **** 
 837:Drivers/STM32H7xx_HAL_Driver/Src/stm32h7xx_hal_dma.c ****         /* Change the DMA state */
 838:Drivers/STM32H7xx_HAL_Driver/Src/stm32h7xx_hal_dma.c ****         hdma->State = HAL_DMA_STATE_ERROR;
 839:Drivers/STM32H7xx_HAL_Driver/Src/stm32h7xx_hal_dma.c **** 
 840:Drivers/STM32H7xx_HAL_Driver/Src/stm32h7xx_hal_dma.c ****         /* Process Unlocked */
 841:Drivers/STM32H7xx_HAL_Driver/Src/stm32h7xx_hal_dma.c ****         __HAL_UNLOCK(hdma);
 842:Drivers/STM32H7xx_HAL_Driver/Src/stm32h7xx_hal_dma.c **** 
 843:Drivers/STM32H7xx_HAL_Driver/Src/stm32h7xx_hal_dma.c ****         return HAL_ERROR;
 844:Drivers/STM32H7xx_HAL_Driver/Src/stm32h7xx_hal_dma.c ****       }
 845:Drivers/STM32H7xx_HAL_Driver/Src/stm32h7xx_hal_dma.c ****     }
 846:Drivers/STM32H7xx_HAL_Driver/Src/stm32h7xx_hal_dma.c **** 
 847:Drivers/STM32H7xx_HAL_Driver/Src/stm32h7xx_hal_dma.c ****     /* Clear all interrupt flags at correct offset within the register */
 848:Drivers/STM32H7xx_HAL_Driver/Src/stm32h7xx_hal_dma.c ****     if(IS_DMA_STREAM_INSTANCE(hdma->Instance) != 0U) /* DMA1 or DMA2 instance */
 849:Drivers/STM32H7xx_HAL_Driver/Src/stm32h7xx_hal_dma.c ****     {
 850:Drivers/STM32H7xx_HAL_Driver/Src/stm32h7xx_hal_dma.c ****       regs_dma = (DMA_Base_Registers *)hdma->StreamBaseAddress;
 851:Drivers/STM32H7xx_HAL_Driver/Src/stm32h7xx_hal_dma.c ****       regs_dma->IFCR = 0x3FUL << (hdma->StreamIndex & 0x1FU);
 852:Drivers/STM32H7xx_HAL_Driver/Src/stm32h7xx_hal_dma.c ****     }
 853:Drivers/STM32H7xx_HAL_Driver/Src/stm32h7xx_hal_dma.c ****     else /* BDMA channel */
 854:Drivers/STM32H7xx_HAL_Driver/Src/stm32h7xx_hal_dma.c ****     {
 855:Drivers/STM32H7xx_HAL_Driver/Src/stm32h7xx_hal_dma.c ****       regs_bdma = (BDMA_Base_Registers *)hdma->StreamBaseAddress;
 856:Drivers/STM32H7xx_HAL_Driver/Src/stm32h7xx_hal_dma.c ****       regs_bdma->IFCR = ((BDMA_IFCR_CGIF0) << (hdma->StreamIndex & 0x1FU));
 857:Drivers/STM32H7xx_HAL_Driver/Src/stm32h7xx_hal_dma.c ****     }
 858:Drivers/STM32H7xx_HAL_Driver/Src/stm32h7xx_hal_dma.c **** 
 859:Drivers/STM32H7xx_HAL_Driver/Src/stm32h7xx_hal_dma.c ****     if(IS_DMA_DMAMUX_ALL_INSTANCE(hdma->Instance) != 0U) /* No DMAMUX available for BDMA1 */
 860:Drivers/STM32H7xx_HAL_Driver/Src/stm32h7xx_hal_dma.c ****     {
 861:Drivers/STM32H7xx_HAL_Driver/Src/stm32h7xx_hal_dma.c ****       /* Clear the DMAMUX synchro overrun flag */
 862:Drivers/STM32H7xx_HAL_Driver/Src/stm32h7xx_hal_dma.c ****       hdma->DMAmuxChannelStatus->CFR = hdma->DMAmuxChannelStatusMask;
 863:Drivers/STM32H7xx_HAL_Driver/Src/stm32h7xx_hal_dma.c **** 
 864:Drivers/STM32H7xx_HAL_Driver/Src/stm32h7xx_hal_dma.c ****       if(hdma->DMAmuxRequestGen != 0U)
 865:Drivers/STM32H7xx_HAL_Driver/Src/stm32h7xx_hal_dma.c ****       {
 866:Drivers/STM32H7xx_HAL_Driver/Src/stm32h7xx_hal_dma.c ****         /* if using DMAMUX request generator, disable the DMAMUX request generator overrun IT */
 867:Drivers/STM32H7xx_HAL_Driver/Src/stm32h7xx_hal_dma.c ****         /* disable the request gen overrun IT */
 868:Drivers/STM32H7xx_HAL_Driver/Src/stm32h7xx_hal_dma.c ****         hdma->DMAmuxRequestGen->RGCR &= ~DMAMUX_RGxCR_OIE;
 869:Drivers/STM32H7xx_HAL_Driver/Src/stm32h7xx_hal_dma.c **** 
 870:Drivers/STM32H7xx_HAL_Driver/Src/stm32h7xx_hal_dma.c ****         /* Clear the DMAMUX request generator overrun flag */
 871:Drivers/STM32H7xx_HAL_Driver/Src/stm32h7xx_hal_dma.c ****         hdma->DMAmuxRequestGenStatus->RGCFR = hdma->DMAmuxRequestGenStatusMask;
 872:Drivers/STM32H7xx_HAL_Driver/Src/stm32h7xx_hal_dma.c ****       }
 873:Drivers/STM32H7xx_HAL_Driver/Src/stm32h7xx_hal_dma.c ****     }
 874:Drivers/STM32H7xx_HAL_Driver/Src/stm32h7xx_hal_dma.c **** 
 875:Drivers/STM32H7xx_HAL_Driver/Src/stm32h7xx_hal_dma.c ****     /* Change the DMA state */
 876:Drivers/STM32H7xx_HAL_Driver/Src/stm32h7xx_hal_dma.c ****     hdma->State = HAL_DMA_STATE_READY;
 877:Drivers/STM32H7xx_HAL_Driver/Src/stm32h7xx_hal_dma.c **** 
 878:Drivers/STM32H7xx_HAL_Driver/Src/stm32h7xx_hal_dma.c ****     /* Process Unlocked */
 879:Drivers/STM32H7xx_HAL_Driver/Src/stm32h7xx_hal_dma.c ****     __HAL_UNLOCK(hdma);
 880:Drivers/STM32H7xx_HAL_Driver/Src/stm32h7xx_hal_dma.c ****   }
 881:Drivers/STM32H7xx_HAL_Driver/Src/stm32h7xx_hal_dma.c **** 
 882:Drivers/STM32H7xx_HAL_Driver/Src/stm32h7xx_hal_dma.c ****   return HAL_OK;
 883:Drivers/STM32H7xx_HAL_Driver/Src/stm32h7xx_hal_dma.c **** }
 884:Drivers/STM32H7xx_HAL_Driver/Src/stm32h7xx_hal_dma.c **** 
 885:Drivers/STM32H7xx_HAL_Driver/Src/stm32h7xx_hal_dma.c **** /**
 886:Drivers/STM32H7xx_HAL_Driver/Src/stm32h7xx_hal_dma.c ****   * @brief  Aborts the DMA Transfer in Interrupt mode.
 887:Drivers/STM32H7xx_HAL_Driver/Src/stm32h7xx_hal_dma.c ****   * @param  hdma  : pointer to a DMA_HandleTypeDef structure that contains
 888:Drivers/STM32H7xx_HAL_Driver/Src/stm32h7xx_hal_dma.c ****   *                 the configuration information for the specified DMA Stream.
ARM GAS  C:\Users\CompuTOP\AppData\Local\Temp\cc4hOfP8.s 			page 17


 889:Drivers/STM32H7xx_HAL_Driver/Src/stm32h7xx_hal_dma.c ****   * @retval HAL status
 890:Drivers/STM32H7xx_HAL_Driver/Src/stm32h7xx_hal_dma.c ****   */
 891:Drivers/STM32H7xx_HAL_Driver/Src/stm32h7xx_hal_dma.c **** HAL_StatusTypeDef HAL_DMA_Abort_IT(DMA_HandleTypeDef *hdma)
 892:Drivers/STM32H7xx_HAL_Driver/Src/stm32h7xx_hal_dma.c **** {
 893:Drivers/STM32H7xx_HAL_Driver/Src/stm32h7xx_hal_dma.c ****   BDMA_Base_Registers *regs_bdma;
 894:Drivers/STM32H7xx_HAL_Driver/Src/stm32h7xx_hal_dma.c **** 
 895:Drivers/STM32H7xx_HAL_Driver/Src/stm32h7xx_hal_dma.c ****   /* Check the DMA peripheral handle */
 896:Drivers/STM32H7xx_HAL_Driver/Src/stm32h7xx_hal_dma.c ****   if(hdma == NULL)
 897:Drivers/STM32H7xx_HAL_Driver/Src/stm32h7xx_hal_dma.c ****   {
 898:Drivers/STM32H7xx_HAL_Driver/Src/stm32h7xx_hal_dma.c ****     return HAL_ERROR;
 899:Drivers/STM32H7xx_HAL_Driver/Src/stm32h7xx_hal_dma.c ****   }
 900:Drivers/STM32H7xx_HAL_Driver/Src/stm32h7xx_hal_dma.c **** 
 901:Drivers/STM32H7xx_HAL_Driver/Src/stm32h7xx_hal_dma.c ****   if(hdma->State != HAL_DMA_STATE_BUSY)
 902:Drivers/STM32H7xx_HAL_Driver/Src/stm32h7xx_hal_dma.c ****   {
 903:Drivers/STM32H7xx_HAL_Driver/Src/stm32h7xx_hal_dma.c ****     hdma->ErrorCode = HAL_DMA_ERROR_NO_XFER;
 904:Drivers/STM32H7xx_HAL_Driver/Src/stm32h7xx_hal_dma.c ****     return HAL_ERROR;
 905:Drivers/STM32H7xx_HAL_Driver/Src/stm32h7xx_hal_dma.c ****   }
 906:Drivers/STM32H7xx_HAL_Driver/Src/stm32h7xx_hal_dma.c ****   else
 907:Drivers/STM32H7xx_HAL_Driver/Src/stm32h7xx_hal_dma.c ****   {
 908:Drivers/STM32H7xx_HAL_Driver/Src/stm32h7xx_hal_dma.c ****     if(IS_DMA_STREAM_INSTANCE(hdma->Instance) != 0U) /* DMA1 or DMA2 instance */
 909:Drivers/STM32H7xx_HAL_Driver/Src/stm32h7xx_hal_dma.c ****     {
 910:Drivers/STM32H7xx_HAL_Driver/Src/stm32h7xx_hal_dma.c ****       /* Set Abort State  */
 911:Drivers/STM32H7xx_HAL_Driver/Src/stm32h7xx_hal_dma.c ****       hdma->State = HAL_DMA_STATE_ABORT;
 912:Drivers/STM32H7xx_HAL_Driver/Src/stm32h7xx_hal_dma.c **** 
 913:Drivers/STM32H7xx_HAL_Driver/Src/stm32h7xx_hal_dma.c ****       /* Disable the stream */
 914:Drivers/STM32H7xx_HAL_Driver/Src/stm32h7xx_hal_dma.c ****       __HAL_DMA_DISABLE(hdma);
 915:Drivers/STM32H7xx_HAL_Driver/Src/stm32h7xx_hal_dma.c ****     }
 916:Drivers/STM32H7xx_HAL_Driver/Src/stm32h7xx_hal_dma.c ****     else /* BDMA channel */
 917:Drivers/STM32H7xx_HAL_Driver/Src/stm32h7xx_hal_dma.c ****     {
 918:Drivers/STM32H7xx_HAL_Driver/Src/stm32h7xx_hal_dma.c ****       /* Disable DMA All Interrupts  */
 919:Drivers/STM32H7xx_HAL_Driver/Src/stm32h7xx_hal_dma.c ****       ((BDMA_Channel_TypeDef   *)hdma->Instance)->CCR  &= ~(BDMA_CCR_TCIE | BDMA_CCR_HTIE | BDMA_CC
 920:Drivers/STM32H7xx_HAL_Driver/Src/stm32h7xx_hal_dma.c **** 
 921:Drivers/STM32H7xx_HAL_Driver/Src/stm32h7xx_hal_dma.c ****       /* Disable the channel */
 922:Drivers/STM32H7xx_HAL_Driver/Src/stm32h7xx_hal_dma.c ****       __HAL_DMA_DISABLE(hdma);
 923:Drivers/STM32H7xx_HAL_Driver/Src/stm32h7xx_hal_dma.c **** 
 924:Drivers/STM32H7xx_HAL_Driver/Src/stm32h7xx_hal_dma.c ****       if(IS_DMA_DMAMUX_ALL_INSTANCE(hdma->Instance) != 0U) /* No DMAMUX available for BDMA1 */
 925:Drivers/STM32H7xx_HAL_Driver/Src/stm32h7xx_hal_dma.c ****       {
 926:Drivers/STM32H7xx_HAL_Driver/Src/stm32h7xx_hal_dma.c ****         /* disable the DMAMUX sync overrun IT */
 927:Drivers/STM32H7xx_HAL_Driver/Src/stm32h7xx_hal_dma.c ****         hdma->DMAmuxChannel->CCR &= ~DMAMUX_CxCR_SOIE;
 928:Drivers/STM32H7xx_HAL_Driver/Src/stm32h7xx_hal_dma.c **** 
 929:Drivers/STM32H7xx_HAL_Driver/Src/stm32h7xx_hal_dma.c ****         /* Clear all flags */
 930:Drivers/STM32H7xx_HAL_Driver/Src/stm32h7xx_hal_dma.c ****         regs_bdma = (BDMA_Base_Registers *)hdma->StreamBaseAddress;
 931:Drivers/STM32H7xx_HAL_Driver/Src/stm32h7xx_hal_dma.c ****         regs_bdma->IFCR = ((BDMA_IFCR_CGIF0) << (hdma->StreamIndex & 0x1FU));
 932:Drivers/STM32H7xx_HAL_Driver/Src/stm32h7xx_hal_dma.c **** 
 933:Drivers/STM32H7xx_HAL_Driver/Src/stm32h7xx_hal_dma.c ****         /* Clear the DMAMUX synchro overrun flag */
 934:Drivers/STM32H7xx_HAL_Driver/Src/stm32h7xx_hal_dma.c ****         hdma->DMAmuxChannelStatus->CFR = hdma->DMAmuxChannelStatusMask;
 935:Drivers/STM32H7xx_HAL_Driver/Src/stm32h7xx_hal_dma.c **** 
 936:Drivers/STM32H7xx_HAL_Driver/Src/stm32h7xx_hal_dma.c ****         if(hdma->DMAmuxRequestGen != 0U)
 937:Drivers/STM32H7xx_HAL_Driver/Src/stm32h7xx_hal_dma.c ****         {
 938:Drivers/STM32H7xx_HAL_Driver/Src/stm32h7xx_hal_dma.c ****           /* if using DMAMUX request generator, disable the DMAMUX request generator overrun IT*/
 939:Drivers/STM32H7xx_HAL_Driver/Src/stm32h7xx_hal_dma.c ****           /* disable the request gen overrun IT */
 940:Drivers/STM32H7xx_HAL_Driver/Src/stm32h7xx_hal_dma.c ****           hdma->DMAmuxRequestGen->RGCR &= ~DMAMUX_RGxCR_OIE;
 941:Drivers/STM32H7xx_HAL_Driver/Src/stm32h7xx_hal_dma.c **** 
 942:Drivers/STM32H7xx_HAL_Driver/Src/stm32h7xx_hal_dma.c ****           /* Clear the DMAMUX request generator overrun flag */
 943:Drivers/STM32H7xx_HAL_Driver/Src/stm32h7xx_hal_dma.c ****           hdma->DMAmuxRequestGenStatus->RGCFR = hdma->DMAmuxRequestGenStatusMask;
 944:Drivers/STM32H7xx_HAL_Driver/Src/stm32h7xx_hal_dma.c ****         }
 945:Drivers/STM32H7xx_HAL_Driver/Src/stm32h7xx_hal_dma.c ****       }
ARM GAS  C:\Users\CompuTOP\AppData\Local\Temp\cc4hOfP8.s 			page 18


 946:Drivers/STM32H7xx_HAL_Driver/Src/stm32h7xx_hal_dma.c **** 
 947:Drivers/STM32H7xx_HAL_Driver/Src/stm32h7xx_hal_dma.c ****       /* Change the DMA state */
 948:Drivers/STM32H7xx_HAL_Driver/Src/stm32h7xx_hal_dma.c ****       hdma->State = HAL_DMA_STATE_READY;
 949:Drivers/STM32H7xx_HAL_Driver/Src/stm32h7xx_hal_dma.c **** 
 950:Drivers/STM32H7xx_HAL_Driver/Src/stm32h7xx_hal_dma.c ****       /* Process Unlocked */
 951:Drivers/STM32H7xx_HAL_Driver/Src/stm32h7xx_hal_dma.c ****       __HAL_UNLOCK(hdma);
 952:Drivers/STM32H7xx_HAL_Driver/Src/stm32h7xx_hal_dma.c **** 
 953:Drivers/STM32H7xx_HAL_Driver/Src/stm32h7xx_hal_dma.c ****       /* Call User Abort callback */
 954:Drivers/STM32H7xx_HAL_Driver/Src/stm32h7xx_hal_dma.c ****       if(hdma->XferAbortCallback != NULL)
 955:Drivers/STM32H7xx_HAL_Driver/Src/stm32h7xx_hal_dma.c ****       {
 956:Drivers/STM32H7xx_HAL_Driver/Src/stm32h7xx_hal_dma.c ****         hdma->XferAbortCallback(hdma);
 957:Drivers/STM32H7xx_HAL_Driver/Src/stm32h7xx_hal_dma.c ****       }
 958:Drivers/STM32H7xx_HAL_Driver/Src/stm32h7xx_hal_dma.c ****     }
 959:Drivers/STM32H7xx_HAL_Driver/Src/stm32h7xx_hal_dma.c ****   }
 960:Drivers/STM32H7xx_HAL_Driver/Src/stm32h7xx_hal_dma.c **** 
 961:Drivers/STM32H7xx_HAL_Driver/Src/stm32h7xx_hal_dma.c ****   return HAL_OK;
 962:Drivers/STM32H7xx_HAL_Driver/Src/stm32h7xx_hal_dma.c **** }
 963:Drivers/STM32H7xx_HAL_Driver/Src/stm32h7xx_hal_dma.c **** 
 964:Drivers/STM32H7xx_HAL_Driver/Src/stm32h7xx_hal_dma.c **** /**
 965:Drivers/STM32H7xx_HAL_Driver/Src/stm32h7xx_hal_dma.c ****   * @brief  Polling for transfer complete.
 966:Drivers/STM32H7xx_HAL_Driver/Src/stm32h7xx_hal_dma.c ****   * @param  hdma:          pointer to a DMA_HandleTypeDef structure that contains
 967:Drivers/STM32H7xx_HAL_Driver/Src/stm32h7xx_hal_dma.c ****   *                        the configuration information for the specified DMA Stream.
 968:Drivers/STM32H7xx_HAL_Driver/Src/stm32h7xx_hal_dma.c ****   * @param  CompleteLevel: Specifies the DMA level complete.
 969:Drivers/STM32H7xx_HAL_Driver/Src/stm32h7xx_hal_dma.c ****   * @note   The polling mode is kept in this version for legacy. it is recommended to use the IT mo
 970:Drivers/STM32H7xx_HAL_Driver/Src/stm32h7xx_hal_dma.c ****   *         This model could be used for debug purpose.
 971:Drivers/STM32H7xx_HAL_Driver/Src/stm32h7xx_hal_dma.c ****   * @note   The HAL_DMA_PollForTransfer API cannot be used in circular and double buffering mode (a
 972:Drivers/STM32H7xx_HAL_Driver/Src/stm32h7xx_hal_dma.c ****   * @param  Timeout:       Timeout duration.
 973:Drivers/STM32H7xx_HAL_Driver/Src/stm32h7xx_hal_dma.c ****   * @retval HAL status
 974:Drivers/STM32H7xx_HAL_Driver/Src/stm32h7xx_hal_dma.c ****   */
 975:Drivers/STM32H7xx_HAL_Driver/Src/stm32h7xx_hal_dma.c **** HAL_StatusTypeDef HAL_DMA_PollForTransfer(DMA_HandleTypeDef *hdma, HAL_DMA_LevelCompleteTypeDef Com
 976:Drivers/STM32H7xx_HAL_Driver/Src/stm32h7xx_hal_dma.c **** {
 977:Drivers/STM32H7xx_HAL_Driver/Src/stm32h7xx_hal_dma.c ****   HAL_StatusTypeDef status = HAL_OK;
 978:Drivers/STM32H7xx_HAL_Driver/Src/stm32h7xx_hal_dma.c ****   uint32_t cpltlevel_mask;
 979:Drivers/STM32H7xx_HAL_Driver/Src/stm32h7xx_hal_dma.c ****   uint32_t tickstart = HAL_GetTick();
 980:Drivers/STM32H7xx_HAL_Driver/Src/stm32h7xx_hal_dma.c **** 
 981:Drivers/STM32H7xx_HAL_Driver/Src/stm32h7xx_hal_dma.c ****   /* IT status register */
 982:Drivers/STM32H7xx_HAL_Driver/Src/stm32h7xx_hal_dma.c ****   __IO uint32_t *isr_reg;
 983:Drivers/STM32H7xx_HAL_Driver/Src/stm32h7xx_hal_dma.c ****   /* IT clear flag register */
 984:Drivers/STM32H7xx_HAL_Driver/Src/stm32h7xx_hal_dma.c ****   __IO uint32_t *ifcr_reg;
 985:Drivers/STM32H7xx_HAL_Driver/Src/stm32h7xx_hal_dma.c **** 
 986:Drivers/STM32H7xx_HAL_Driver/Src/stm32h7xx_hal_dma.c ****   /* Check the DMA peripheral handle */
 987:Drivers/STM32H7xx_HAL_Driver/Src/stm32h7xx_hal_dma.c ****   if(hdma == NULL)
 988:Drivers/STM32H7xx_HAL_Driver/Src/stm32h7xx_hal_dma.c ****   {
 989:Drivers/STM32H7xx_HAL_Driver/Src/stm32h7xx_hal_dma.c ****     return HAL_ERROR;
 990:Drivers/STM32H7xx_HAL_Driver/Src/stm32h7xx_hal_dma.c ****   }
 991:Drivers/STM32H7xx_HAL_Driver/Src/stm32h7xx_hal_dma.c **** 
 992:Drivers/STM32H7xx_HAL_Driver/Src/stm32h7xx_hal_dma.c ****   if(HAL_DMA_STATE_BUSY != hdma->State)
 993:Drivers/STM32H7xx_HAL_Driver/Src/stm32h7xx_hal_dma.c ****   {
 994:Drivers/STM32H7xx_HAL_Driver/Src/stm32h7xx_hal_dma.c ****     /* No transfer ongoing */
 995:Drivers/STM32H7xx_HAL_Driver/Src/stm32h7xx_hal_dma.c ****     hdma->ErrorCode = HAL_DMA_ERROR_NO_XFER;
 996:Drivers/STM32H7xx_HAL_Driver/Src/stm32h7xx_hal_dma.c ****     __HAL_UNLOCK(hdma);
 997:Drivers/STM32H7xx_HAL_Driver/Src/stm32h7xx_hal_dma.c **** 
 998:Drivers/STM32H7xx_HAL_Driver/Src/stm32h7xx_hal_dma.c ****     return HAL_ERROR;
 999:Drivers/STM32H7xx_HAL_Driver/Src/stm32h7xx_hal_dma.c ****   }
1000:Drivers/STM32H7xx_HAL_Driver/Src/stm32h7xx_hal_dma.c **** 
1001:Drivers/STM32H7xx_HAL_Driver/Src/stm32h7xx_hal_dma.c ****   if(IS_DMA_STREAM_INSTANCE(hdma->Instance) != 0U) /* DMA1 or DMA2 instance */
1002:Drivers/STM32H7xx_HAL_Driver/Src/stm32h7xx_hal_dma.c ****   {
ARM GAS  C:\Users\CompuTOP\AppData\Local\Temp\cc4hOfP8.s 			page 19


1003:Drivers/STM32H7xx_HAL_Driver/Src/stm32h7xx_hal_dma.c ****     /* Polling mode not supported in circular mode and double buffering mode */
1004:Drivers/STM32H7xx_HAL_Driver/Src/stm32h7xx_hal_dma.c ****     if ((((DMA_Stream_TypeDef   *)hdma->Instance)->CR & DMA_SxCR_CIRC) != 0U)
1005:Drivers/STM32H7xx_HAL_Driver/Src/stm32h7xx_hal_dma.c ****     {
1006:Drivers/STM32H7xx_HAL_Driver/Src/stm32h7xx_hal_dma.c ****       hdma->ErrorCode = HAL_DMA_ERROR_NOT_SUPPORTED;
1007:Drivers/STM32H7xx_HAL_Driver/Src/stm32h7xx_hal_dma.c ****       return HAL_ERROR;
1008:Drivers/STM32H7xx_HAL_Driver/Src/stm32h7xx_hal_dma.c ****     }
1009:Drivers/STM32H7xx_HAL_Driver/Src/stm32h7xx_hal_dma.c **** 
1010:Drivers/STM32H7xx_HAL_Driver/Src/stm32h7xx_hal_dma.c ****     /* Get the level transfer complete flag */
1011:Drivers/STM32H7xx_HAL_Driver/Src/stm32h7xx_hal_dma.c ****     if(CompleteLevel == HAL_DMA_FULL_TRANSFER)
1012:Drivers/STM32H7xx_HAL_Driver/Src/stm32h7xx_hal_dma.c ****     {
1013:Drivers/STM32H7xx_HAL_Driver/Src/stm32h7xx_hal_dma.c ****       /* Transfer Complete flag */
1014:Drivers/STM32H7xx_HAL_Driver/Src/stm32h7xx_hal_dma.c ****       cpltlevel_mask = DMA_FLAG_TCIF0_4 << (hdma->StreamIndex & 0x1FU);
1015:Drivers/STM32H7xx_HAL_Driver/Src/stm32h7xx_hal_dma.c ****     }
1016:Drivers/STM32H7xx_HAL_Driver/Src/stm32h7xx_hal_dma.c ****     else
1017:Drivers/STM32H7xx_HAL_Driver/Src/stm32h7xx_hal_dma.c ****     {
1018:Drivers/STM32H7xx_HAL_Driver/Src/stm32h7xx_hal_dma.c ****       /* Half Transfer Complete flag */
1019:Drivers/STM32H7xx_HAL_Driver/Src/stm32h7xx_hal_dma.c ****       cpltlevel_mask = DMA_FLAG_HTIF0_4 << (hdma->StreamIndex & 0x1FU);
1020:Drivers/STM32H7xx_HAL_Driver/Src/stm32h7xx_hal_dma.c ****     }
1021:Drivers/STM32H7xx_HAL_Driver/Src/stm32h7xx_hal_dma.c **** 
1022:Drivers/STM32H7xx_HAL_Driver/Src/stm32h7xx_hal_dma.c ****     isr_reg  = &(((DMA_Base_Registers *)hdma->StreamBaseAddress)->ISR);
1023:Drivers/STM32H7xx_HAL_Driver/Src/stm32h7xx_hal_dma.c ****     ifcr_reg = &(((DMA_Base_Registers *)hdma->StreamBaseAddress)->IFCR);
1024:Drivers/STM32H7xx_HAL_Driver/Src/stm32h7xx_hal_dma.c ****   }
1025:Drivers/STM32H7xx_HAL_Driver/Src/stm32h7xx_hal_dma.c ****   else /* BDMA channel */
1026:Drivers/STM32H7xx_HAL_Driver/Src/stm32h7xx_hal_dma.c ****   {
1027:Drivers/STM32H7xx_HAL_Driver/Src/stm32h7xx_hal_dma.c ****     /* Polling mode not supported in circular mode */
1028:Drivers/STM32H7xx_HAL_Driver/Src/stm32h7xx_hal_dma.c ****     if ((((BDMA_Channel_TypeDef   *)hdma->Instance)->CCR & BDMA_CCR_CIRC) != 0U)
1029:Drivers/STM32H7xx_HAL_Driver/Src/stm32h7xx_hal_dma.c ****     {
1030:Drivers/STM32H7xx_HAL_Driver/Src/stm32h7xx_hal_dma.c ****       hdma->ErrorCode = HAL_DMA_ERROR_NOT_SUPPORTED;
1031:Drivers/STM32H7xx_HAL_Driver/Src/stm32h7xx_hal_dma.c ****       return HAL_ERROR;
1032:Drivers/STM32H7xx_HAL_Driver/Src/stm32h7xx_hal_dma.c ****     }
1033:Drivers/STM32H7xx_HAL_Driver/Src/stm32h7xx_hal_dma.c **** 
1034:Drivers/STM32H7xx_HAL_Driver/Src/stm32h7xx_hal_dma.c ****     /* Get the level transfer complete flag */
1035:Drivers/STM32H7xx_HAL_Driver/Src/stm32h7xx_hal_dma.c ****     if(CompleteLevel == HAL_DMA_FULL_TRANSFER)
1036:Drivers/STM32H7xx_HAL_Driver/Src/stm32h7xx_hal_dma.c ****     {
1037:Drivers/STM32H7xx_HAL_Driver/Src/stm32h7xx_hal_dma.c ****       /* Transfer Complete flag */
1038:Drivers/STM32H7xx_HAL_Driver/Src/stm32h7xx_hal_dma.c ****       cpltlevel_mask = BDMA_FLAG_TC0 << (hdma->StreamIndex & 0x1FU);
1039:Drivers/STM32H7xx_HAL_Driver/Src/stm32h7xx_hal_dma.c ****     }
1040:Drivers/STM32H7xx_HAL_Driver/Src/stm32h7xx_hal_dma.c ****     else
1041:Drivers/STM32H7xx_HAL_Driver/Src/stm32h7xx_hal_dma.c ****     {
1042:Drivers/STM32H7xx_HAL_Driver/Src/stm32h7xx_hal_dma.c ****       /* Half Transfer Complete flag */
1043:Drivers/STM32H7xx_HAL_Driver/Src/stm32h7xx_hal_dma.c ****       cpltlevel_mask = BDMA_FLAG_HT0 << (hdma->StreamIndex & 0x1FU);
1044:Drivers/STM32H7xx_HAL_Driver/Src/stm32h7xx_hal_dma.c ****     }
1045:Drivers/STM32H7xx_HAL_Driver/Src/stm32h7xx_hal_dma.c **** 
1046:Drivers/STM32H7xx_HAL_Driver/Src/stm32h7xx_hal_dma.c ****     isr_reg  = &(((BDMA_Base_Registers *)hdma->StreamBaseAddress)->ISR);
1047:Drivers/STM32H7xx_HAL_Driver/Src/stm32h7xx_hal_dma.c ****     ifcr_reg = &(((BDMA_Base_Registers *)hdma->StreamBaseAddress)->IFCR);
1048:Drivers/STM32H7xx_HAL_Driver/Src/stm32h7xx_hal_dma.c ****   }
1049:Drivers/STM32H7xx_HAL_Driver/Src/stm32h7xx_hal_dma.c **** 
1050:Drivers/STM32H7xx_HAL_Driver/Src/stm32h7xx_hal_dma.c ****   while(((*isr_reg) & cpltlevel_mask) == 0U)
1051:Drivers/STM32H7xx_HAL_Driver/Src/stm32h7xx_hal_dma.c ****   {
1052:Drivers/STM32H7xx_HAL_Driver/Src/stm32h7xx_hal_dma.c ****     if(IS_DMA_STREAM_INSTANCE(hdma->Instance) != 0U) /* DMA1 or DMA2 instance */
1053:Drivers/STM32H7xx_HAL_Driver/Src/stm32h7xx_hal_dma.c ****     {
1054:Drivers/STM32H7xx_HAL_Driver/Src/stm32h7xx_hal_dma.c ****       if(((*isr_reg) & (DMA_FLAG_FEIF0_4 << (hdma->StreamIndex & 0x1FU))) != 0U)
1055:Drivers/STM32H7xx_HAL_Driver/Src/stm32h7xx_hal_dma.c ****       {
1056:Drivers/STM32H7xx_HAL_Driver/Src/stm32h7xx_hal_dma.c ****         /* Update error code */
1057:Drivers/STM32H7xx_HAL_Driver/Src/stm32h7xx_hal_dma.c ****         hdma->ErrorCode |= HAL_DMA_ERROR_FE;
1058:Drivers/STM32H7xx_HAL_Driver/Src/stm32h7xx_hal_dma.c **** 
1059:Drivers/STM32H7xx_HAL_Driver/Src/stm32h7xx_hal_dma.c ****         /* Clear the FIFO error flag */
ARM GAS  C:\Users\CompuTOP\AppData\Local\Temp\cc4hOfP8.s 			page 20


1060:Drivers/STM32H7xx_HAL_Driver/Src/stm32h7xx_hal_dma.c ****         (*ifcr_reg) = DMA_FLAG_FEIF0_4 << (hdma->StreamIndex & 0x1FU);
1061:Drivers/STM32H7xx_HAL_Driver/Src/stm32h7xx_hal_dma.c ****       }
1062:Drivers/STM32H7xx_HAL_Driver/Src/stm32h7xx_hal_dma.c **** 
1063:Drivers/STM32H7xx_HAL_Driver/Src/stm32h7xx_hal_dma.c ****       if(((*isr_reg) & (DMA_FLAG_DMEIF0_4 << (hdma->StreamIndex & 0x1FU))) != 0U)
1064:Drivers/STM32H7xx_HAL_Driver/Src/stm32h7xx_hal_dma.c ****       {
1065:Drivers/STM32H7xx_HAL_Driver/Src/stm32h7xx_hal_dma.c ****         /* Update error code */
1066:Drivers/STM32H7xx_HAL_Driver/Src/stm32h7xx_hal_dma.c ****         hdma->ErrorCode |= HAL_DMA_ERROR_DME;
1067:Drivers/STM32H7xx_HAL_Driver/Src/stm32h7xx_hal_dma.c **** 
1068:Drivers/STM32H7xx_HAL_Driver/Src/stm32h7xx_hal_dma.c ****         /* Clear the Direct Mode error flag */
1069:Drivers/STM32H7xx_HAL_Driver/Src/stm32h7xx_hal_dma.c ****         (*ifcr_reg) = DMA_FLAG_DMEIF0_4 << (hdma->StreamIndex & 0x1FU);
1070:Drivers/STM32H7xx_HAL_Driver/Src/stm32h7xx_hal_dma.c ****       }
1071:Drivers/STM32H7xx_HAL_Driver/Src/stm32h7xx_hal_dma.c **** 
1072:Drivers/STM32H7xx_HAL_Driver/Src/stm32h7xx_hal_dma.c ****       if(((*isr_reg) & (DMA_FLAG_TEIF0_4 << (hdma->StreamIndex & 0x1FU))) != 0U)
1073:Drivers/STM32H7xx_HAL_Driver/Src/stm32h7xx_hal_dma.c ****       {
1074:Drivers/STM32H7xx_HAL_Driver/Src/stm32h7xx_hal_dma.c ****         /* Update error code */
1075:Drivers/STM32H7xx_HAL_Driver/Src/stm32h7xx_hal_dma.c ****         hdma->ErrorCode |= HAL_DMA_ERROR_TE;
1076:Drivers/STM32H7xx_HAL_Driver/Src/stm32h7xx_hal_dma.c **** 
1077:Drivers/STM32H7xx_HAL_Driver/Src/stm32h7xx_hal_dma.c ****         /* Clear the transfer error flag */
1078:Drivers/STM32H7xx_HAL_Driver/Src/stm32h7xx_hal_dma.c ****         (*ifcr_reg) = DMA_FLAG_TEIF0_4 << (hdma->StreamIndex & 0x1FU);
1079:Drivers/STM32H7xx_HAL_Driver/Src/stm32h7xx_hal_dma.c **** 
1080:Drivers/STM32H7xx_HAL_Driver/Src/stm32h7xx_hal_dma.c ****         /* Change the DMA state */
1081:Drivers/STM32H7xx_HAL_Driver/Src/stm32h7xx_hal_dma.c ****         hdma->State = HAL_DMA_STATE_READY;
1082:Drivers/STM32H7xx_HAL_Driver/Src/stm32h7xx_hal_dma.c **** 
1083:Drivers/STM32H7xx_HAL_Driver/Src/stm32h7xx_hal_dma.c ****         /* Process Unlocked */
1084:Drivers/STM32H7xx_HAL_Driver/Src/stm32h7xx_hal_dma.c ****         __HAL_UNLOCK(hdma);
1085:Drivers/STM32H7xx_HAL_Driver/Src/stm32h7xx_hal_dma.c **** 
1086:Drivers/STM32H7xx_HAL_Driver/Src/stm32h7xx_hal_dma.c ****         return HAL_ERROR;
1087:Drivers/STM32H7xx_HAL_Driver/Src/stm32h7xx_hal_dma.c ****       }
1088:Drivers/STM32H7xx_HAL_Driver/Src/stm32h7xx_hal_dma.c ****     }
1089:Drivers/STM32H7xx_HAL_Driver/Src/stm32h7xx_hal_dma.c ****     else /* BDMA channel */
1090:Drivers/STM32H7xx_HAL_Driver/Src/stm32h7xx_hal_dma.c ****     {
1091:Drivers/STM32H7xx_HAL_Driver/Src/stm32h7xx_hal_dma.c ****       if(((*isr_reg) & (BDMA_FLAG_TE0 << (hdma->StreamIndex & 0x1FU))) != 0U)
1092:Drivers/STM32H7xx_HAL_Driver/Src/stm32h7xx_hal_dma.c ****       {
1093:Drivers/STM32H7xx_HAL_Driver/Src/stm32h7xx_hal_dma.c ****         /* When a DMA transfer error occurs */
1094:Drivers/STM32H7xx_HAL_Driver/Src/stm32h7xx_hal_dma.c ****         /* A hardware clear of its EN bits is performed */
1095:Drivers/STM32H7xx_HAL_Driver/Src/stm32h7xx_hal_dma.c ****         /* Clear all flags */
1096:Drivers/STM32H7xx_HAL_Driver/Src/stm32h7xx_hal_dma.c ****         (*isr_reg) = ((BDMA_ISR_GIF0) << (hdma->StreamIndex & 0x1FU));
1097:Drivers/STM32H7xx_HAL_Driver/Src/stm32h7xx_hal_dma.c **** 
1098:Drivers/STM32H7xx_HAL_Driver/Src/stm32h7xx_hal_dma.c ****         /* Update error code */
1099:Drivers/STM32H7xx_HAL_Driver/Src/stm32h7xx_hal_dma.c ****         hdma->ErrorCode = HAL_DMA_ERROR_TE;
1100:Drivers/STM32H7xx_HAL_Driver/Src/stm32h7xx_hal_dma.c **** 
1101:Drivers/STM32H7xx_HAL_Driver/Src/stm32h7xx_hal_dma.c ****         /* Change the DMA state */
1102:Drivers/STM32H7xx_HAL_Driver/Src/stm32h7xx_hal_dma.c ****         hdma->State = HAL_DMA_STATE_READY;
1103:Drivers/STM32H7xx_HAL_Driver/Src/stm32h7xx_hal_dma.c **** 
1104:Drivers/STM32H7xx_HAL_Driver/Src/stm32h7xx_hal_dma.c ****         /* Process Unlocked */
1105:Drivers/STM32H7xx_HAL_Driver/Src/stm32h7xx_hal_dma.c ****         __HAL_UNLOCK(hdma);
1106:Drivers/STM32H7xx_HAL_Driver/Src/stm32h7xx_hal_dma.c **** 
1107:Drivers/STM32H7xx_HAL_Driver/Src/stm32h7xx_hal_dma.c ****         return HAL_ERROR;
1108:Drivers/STM32H7xx_HAL_Driver/Src/stm32h7xx_hal_dma.c ****       }
1109:Drivers/STM32H7xx_HAL_Driver/Src/stm32h7xx_hal_dma.c ****     }
1110:Drivers/STM32H7xx_HAL_Driver/Src/stm32h7xx_hal_dma.c **** 
1111:Drivers/STM32H7xx_HAL_Driver/Src/stm32h7xx_hal_dma.c ****     /* Check for the Timeout (Not applicable in circular mode)*/
1112:Drivers/STM32H7xx_HAL_Driver/Src/stm32h7xx_hal_dma.c ****     if(Timeout != HAL_MAX_DELAY)
1113:Drivers/STM32H7xx_HAL_Driver/Src/stm32h7xx_hal_dma.c ****     {
1114:Drivers/STM32H7xx_HAL_Driver/Src/stm32h7xx_hal_dma.c ****       if(((HAL_GetTick() - tickstart ) > Timeout)||(Timeout == 0U))
1115:Drivers/STM32H7xx_HAL_Driver/Src/stm32h7xx_hal_dma.c ****       {
1116:Drivers/STM32H7xx_HAL_Driver/Src/stm32h7xx_hal_dma.c ****         /* Update error code */
ARM GAS  C:\Users\CompuTOP\AppData\Local\Temp\cc4hOfP8.s 			page 21


1117:Drivers/STM32H7xx_HAL_Driver/Src/stm32h7xx_hal_dma.c ****         hdma->ErrorCode = HAL_DMA_ERROR_TIMEOUT;
1118:Drivers/STM32H7xx_HAL_Driver/Src/stm32h7xx_hal_dma.c **** 
1119:Drivers/STM32H7xx_HAL_Driver/Src/stm32h7xx_hal_dma.c ****         /* if timeout then abort the current transfer */
1120:Drivers/STM32H7xx_HAL_Driver/Src/stm32h7xx_hal_dma.c ****         /* No need to check return value: as in this case we will return HAL_ERROR with HAL_DMA_ERR
1121:Drivers/STM32H7xx_HAL_Driver/Src/stm32h7xx_hal_dma.c ****         (void) HAL_DMA_Abort(hdma);
1122:Drivers/STM32H7xx_HAL_Driver/Src/stm32h7xx_hal_dma.c ****           /*
1123:Drivers/STM32H7xx_HAL_Driver/Src/stm32h7xx_hal_dma.c ****             Note that the Abort function will
1124:Drivers/STM32H7xx_HAL_Driver/Src/stm32h7xx_hal_dma.c ****               - Clear the transfer error flags
1125:Drivers/STM32H7xx_HAL_Driver/Src/stm32h7xx_hal_dma.c ****               - Unlock
1126:Drivers/STM32H7xx_HAL_Driver/Src/stm32h7xx_hal_dma.c ****               - Set the State
1127:Drivers/STM32H7xx_HAL_Driver/Src/stm32h7xx_hal_dma.c ****           */
1128:Drivers/STM32H7xx_HAL_Driver/Src/stm32h7xx_hal_dma.c **** 
1129:Drivers/STM32H7xx_HAL_Driver/Src/stm32h7xx_hal_dma.c ****         return HAL_ERROR;
1130:Drivers/STM32H7xx_HAL_Driver/Src/stm32h7xx_hal_dma.c ****       }
1131:Drivers/STM32H7xx_HAL_Driver/Src/stm32h7xx_hal_dma.c ****     }
1132:Drivers/STM32H7xx_HAL_Driver/Src/stm32h7xx_hal_dma.c **** 
1133:Drivers/STM32H7xx_HAL_Driver/Src/stm32h7xx_hal_dma.c ****     if(IS_DMA_DMAMUX_ALL_INSTANCE(hdma->Instance) != 0U) /* No DMAMUX available for BDMA1 */
1134:Drivers/STM32H7xx_HAL_Driver/Src/stm32h7xx_hal_dma.c ****     {
1135:Drivers/STM32H7xx_HAL_Driver/Src/stm32h7xx_hal_dma.c ****       /* Check for DMAMUX Request generator (if used) overrun status */
1136:Drivers/STM32H7xx_HAL_Driver/Src/stm32h7xx_hal_dma.c ****       if(hdma->DMAmuxRequestGen != 0U)
1137:Drivers/STM32H7xx_HAL_Driver/Src/stm32h7xx_hal_dma.c ****       {
1138:Drivers/STM32H7xx_HAL_Driver/Src/stm32h7xx_hal_dma.c ****         /* if using DMAMUX request generator Check for DMAMUX request generator overrun */
1139:Drivers/STM32H7xx_HAL_Driver/Src/stm32h7xx_hal_dma.c ****         if((hdma->DMAmuxRequestGenStatus->RGSR & hdma->DMAmuxRequestGenStatusMask) != 0U)
1140:Drivers/STM32H7xx_HAL_Driver/Src/stm32h7xx_hal_dma.c ****         {
1141:Drivers/STM32H7xx_HAL_Driver/Src/stm32h7xx_hal_dma.c ****           /* Clear the DMAMUX request generator overrun flag */
1142:Drivers/STM32H7xx_HAL_Driver/Src/stm32h7xx_hal_dma.c ****           hdma->DMAmuxRequestGenStatus->RGCFR = hdma->DMAmuxRequestGenStatusMask;
1143:Drivers/STM32H7xx_HAL_Driver/Src/stm32h7xx_hal_dma.c **** 
1144:Drivers/STM32H7xx_HAL_Driver/Src/stm32h7xx_hal_dma.c ****           /* Update error code */
1145:Drivers/STM32H7xx_HAL_Driver/Src/stm32h7xx_hal_dma.c ****           hdma->ErrorCode |= HAL_DMA_ERROR_REQGEN;
1146:Drivers/STM32H7xx_HAL_Driver/Src/stm32h7xx_hal_dma.c ****         }
1147:Drivers/STM32H7xx_HAL_Driver/Src/stm32h7xx_hal_dma.c ****       }
1148:Drivers/STM32H7xx_HAL_Driver/Src/stm32h7xx_hal_dma.c **** 
1149:Drivers/STM32H7xx_HAL_Driver/Src/stm32h7xx_hal_dma.c ****       /* Check for DMAMUX Synchronization overrun */
1150:Drivers/STM32H7xx_HAL_Driver/Src/stm32h7xx_hal_dma.c ****       if((hdma->DMAmuxChannelStatus->CSR & hdma->DMAmuxChannelStatusMask) != 0U)
1151:Drivers/STM32H7xx_HAL_Driver/Src/stm32h7xx_hal_dma.c ****       {
1152:Drivers/STM32H7xx_HAL_Driver/Src/stm32h7xx_hal_dma.c ****         /* Clear the DMAMUX synchro overrun flag */
1153:Drivers/STM32H7xx_HAL_Driver/Src/stm32h7xx_hal_dma.c ****         hdma->DMAmuxChannelStatus->CFR = hdma->DMAmuxChannelStatusMask;
1154:Drivers/STM32H7xx_HAL_Driver/Src/stm32h7xx_hal_dma.c **** 
1155:Drivers/STM32H7xx_HAL_Driver/Src/stm32h7xx_hal_dma.c ****         /* Update error code */
1156:Drivers/STM32H7xx_HAL_Driver/Src/stm32h7xx_hal_dma.c ****         hdma->ErrorCode |= HAL_DMA_ERROR_SYNC;
1157:Drivers/STM32H7xx_HAL_Driver/Src/stm32h7xx_hal_dma.c ****       }
1158:Drivers/STM32H7xx_HAL_Driver/Src/stm32h7xx_hal_dma.c ****     }
1159:Drivers/STM32H7xx_HAL_Driver/Src/stm32h7xx_hal_dma.c ****   }
1160:Drivers/STM32H7xx_HAL_Driver/Src/stm32h7xx_hal_dma.c **** 
1161:Drivers/STM32H7xx_HAL_Driver/Src/stm32h7xx_hal_dma.c **** 
1162:Drivers/STM32H7xx_HAL_Driver/Src/stm32h7xx_hal_dma.c ****   /* Get the level transfer complete flag */
1163:Drivers/STM32H7xx_HAL_Driver/Src/stm32h7xx_hal_dma.c ****   if(CompleteLevel == HAL_DMA_FULL_TRANSFER)
1164:Drivers/STM32H7xx_HAL_Driver/Src/stm32h7xx_hal_dma.c ****   {
1165:Drivers/STM32H7xx_HAL_Driver/Src/stm32h7xx_hal_dma.c ****     /* Clear the half transfer and transfer complete flags */
1166:Drivers/STM32H7xx_HAL_Driver/Src/stm32h7xx_hal_dma.c ****     if(IS_DMA_STREAM_INSTANCE(hdma->Instance) != 0U) /* DMA1 or DMA2 instance */
1167:Drivers/STM32H7xx_HAL_Driver/Src/stm32h7xx_hal_dma.c ****     {
1168:Drivers/STM32H7xx_HAL_Driver/Src/stm32h7xx_hal_dma.c ****       (*ifcr_reg) = (DMA_FLAG_HTIF0_4 | DMA_FLAG_TCIF0_4) << (hdma->StreamIndex & 0x1FU);
1169:Drivers/STM32H7xx_HAL_Driver/Src/stm32h7xx_hal_dma.c ****     }
1170:Drivers/STM32H7xx_HAL_Driver/Src/stm32h7xx_hal_dma.c ****     else /* BDMA channel */
1171:Drivers/STM32H7xx_HAL_Driver/Src/stm32h7xx_hal_dma.c ****     {
1172:Drivers/STM32H7xx_HAL_Driver/Src/stm32h7xx_hal_dma.c ****       (*ifcr_reg) = (BDMA_FLAG_TC0 << (hdma->StreamIndex & 0x1FU));
1173:Drivers/STM32H7xx_HAL_Driver/Src/stm32h7xx_hal_dma.c ****     }
ARM GAS  C:\Users\CompuTOP\AppData\Local\Temp\cc4hOfP8.s 			page 22


1174:Drivers/STM32H7xx_HAL_Driver/Src/stm32h7xx_hal_dma.c **** 
1175:Drivers/STM32H7xx_HAL_Driver/Src/stm32h7xx_hal_dma.c ****     hdma->State = HAL_DMA_STATE_READY;
1176:Drivers/STM32H7xx_HAL_Driver/Src/stm32h7xx_hal_dma.c **** 
1177:Drivers/STM32H7xx_HAL_Driver/Src/stm32h7xx_hal_dma.c ****     /* Process Unlocked */
1178:Drivers/STM32H7xx_HAL_Driver/Src/stm32h7xx_hal_dma.c ****     __HAL_UNLOCK(hdma);
1179:Drivers/STM32H7xx_HAL_Driver/Src/stm32h7xx_hal_dma.c ****   }
1180:Drivers/STM32H7xx_HAL_Driver/Src/stm32h7xx_hal_dma.c ****   else /*CompleteLevel = HAL_DMA_HALF_TRANSFER*/
1181:Drivers/STM32H7xx_HAL_Driver/Src/stm32h7xx_hal_dma.c ****   {
1182:Drivers/STM32H7xx_HAL_Driver/Src/stm32h7xx_hal_dma.c ****     /* Clear the half transfer and transfer complete flags */
1183:Drivers/STM32H7xx_HAL_Driver/Src/stm32h7xx_hal_dma.c ****     if(IS_DMA_STREAM_INSTANCE(hdma->Instance) != 0U) /* DMA1 or DMA2 instance */
1184:Drivers/STM32H7xx_HAL_Driver/Src/stm32h7xx_hal_dma.c ****     {
1185:Drivers/STM32H7xx_HAL_Driver/Src/stm32h7xx_hal_dma.c ****       (*ifcr_reg) = (DMA_FLAG_HTIF0_4) << (hdma->StreamIndex & 0x1FU);
1186:Drivers/STM32H7xx_HAL_Driver/Src/stm32h7xx_hal_dma.c ****     }
1187:Drivers/STM32H7xx_HAL_Driver/Src/stm32h7xx_hal_dma.c ****     else /* BDMA channel */
1188:Drivers/STM32H7xx_HAL_Driver/Src/stm32h7xx_hal_dma.c ****     {
1189:Drivers/STM32H7xx_HAL_Driver/Src/stm32h7xx_hal_dma.c ****       (*ifcr_reg) = (BDMA_FLAG_HT0 << (hdma->StreamIndex & 0x1FU));
1190:Drivers/STM32H7xx_HAL_Driver/Src/stm32h7xx_hal_dma.c ****     }
1191:Drivers/STM32H7xx_HAL_Driver/Src/stm32h7xx_hal_dma.c ****   }
1192:Drivers/STM32H7xx_HAL_Driver/Src/stm32h7xx_hal_dma.c **** 
1193:Drivers/STM32H7xx_HAL_Driver/Src/stm32h7xx_hal_dma.c ****   return status;
1194:Drivers/STM32H7xx_HAL_Driver/Src/stm32h7xx_hal_dma.c **** }
1195:Drivers/STM32H7xx_HAL_Driver/Src/stm32h7xx_hal_dma.c **** 
1196:Drivers/STM32H7xx_HAL_Driver/Src/stm32h7xx_hal_dma.c **** /**
1197:Drivers/STM32H7xx_HAL_Driver/Src/stm32h7xx_hal_dma.c ****   * @brief  Handles DMA interrupt request.
1198:Drivers/STM32H7xx_HAL_Driver/Src/stm32h7xx_hal_dma.c ****   * @param  hdma: pointer to a DMA_HandleTypeDef structure that contains
1199:Drivers/STM32H7xx_HAL_Driver/Src/stm32h7xx_hal_dma.c ****   *               the configuration information for the specified DMA Stream.
1200:Drivers/STM32H7xx_HAL_Driver/Src/stm32h7xx_hal_dma.c ****   * @retval None
1201:Drivers/STM32H7xx_HAL_Driver/Src/stm32h7xx_hal_dma.c ****   */
1202:Drivers/STM32H7xx_HAL_Driver/Src/stm32h7xx_hal_dma.c **** void HAL_DMA_IRQHandler(DMA_HandleTypeDef *hdma)
1203:Drivers/STM32H7xx_HAL_Driver/Src/stm32h7xx_hal_dma.c **** {
1204:Drivers/STM32H7xx_HAL_Driver/Src/stm32h7xx_hal_dma.c ****   uint32_t tmpisr_dma, tmpisr_bdma;
1205:Drivers/STM32H7xx_HAL_Driver/Src/stm32h7xx_hal_dma.c ****   uint32_t ccr_reg;
1206:Drivers/STM32H7xx_HAL_Driver/Src/stm32h7xx_hal_dma.c ****   __IO uint32_t count = 0U;
1207:Drivers/STM32H7xx_HAL_Driver/Src/stm32h7xx_hal_dma.c ****   uint32_t timeout = SystemCoreClock / 9600U;
1208:Drivers/STM32H7xx_HAL_Driver/Src/stm32h7xx_hal_dma.c **** 
1209:Drivers/STM32H7xx_HAL_Driver/Src/stm32h7xx_hal_dma.c ****   /* calculate DMA base and stream number */
1210:Drivers/STM32H7xx_HAL_Driver/Src/stm32h7xx_hal_dma.c ****   DMA_Base_Registers  *regs_dma  = (DMA_Base_Registers *)hdma->StreamBaseAddress;
1211:Drivers/STM32H7xx_HAL_Driver/Src/stm32h7xx_hal_dma.c ****   BDMA_Base_Registers *regs_bdma = (BDMA_Base_Registers *)hdma->StreamBaseAddress;
1212:Drivers/STM32H7xx_HAL_Driver/Src/stm32h7xx_hal_dma.c **** 
1213:Drivers/STM32H7xx_HAL_Driver/Src/stm32h7xx_hal_dma.c ****   tmpisr_dma  = regs_dma->ISR;
1214:Drivers/STM32H7xx_HAL_Driver/Src/stm32h7xx_hal_dma.c ****   tmpisr_bdma = regs_bdma->ISR;
1215:Drivers/STM32H7xx_HAL_Driver/Src/stm32h7xx_hal_dma.c **** 
1216:Drivers/STM32H7xx_HAL_Driver/Src/stm32h7xx_hal_dma.c ****   if(IS_DMA_STREAM_INSTANCE(hdma->Instance) != 0U)  /* DMA1 or DMA2 instance */
1217:Drivers/STM32H7xx_HAL_Driver/Src/stm32h7xx_hal_dma.c ****   {
1218:Drivers/STM32H7xx_HAL_Driver/Src/stm32h7xx_hal_dma.c ****     /* Transfer Error Interrupt management ***************************************/
1219:Drivers/STM32H7xx_HAL_Driver/Src/stm32h7xx_hal_dma.c ****     if ((tmpisr_dma & (DMA_FLAG_TEIF0_4 << (hdma->StreamIndex & 0x1FU))) != 0U)
1220:Drivers/STM32H7xx_HAL_Driver/Src/stm32h7xx_hal_dma.c ****     {
1221:Drivers/STM32H7xx_HAL_Driver/Src/stm32h7xx_hal_dma.c ****       if(__HAL_DMA_GET_IT_SOURCE(hdma, DMA_IT_TE) != 0U)
1222:Drivers/STM32H7xx_HAL_Driver/Src/stm32h7xx_hal_dma.c ****       {
1223:Drivers/STM32H7xx_HAL_Driver/Src/stm32h7xx_hal_dma.c ****         /* Disable the transfer error interrupt */
1224:Drivers/STM32H7xx_HAL_Driver/Src/stm32h7xx_hal_dma.c ****         ((DMA_Stream_TypeDef   *)hdma->Instance)->CR  &= ~(DMA_IT_TE);
1225:Drivers/STM32H7xx_HAL_Driver/Src/stm32h7xx_hal_dma.c **** 
1226:Drivers/STM32H7xx_HAL_Driver/Src/stm32h7xx_hal_dma.c ****         /* Clear the transfer error flag */
1227:Drivers/STM32H7xx_HAL_Driver/Src/stm32h7xx_hal_dma.c ****         regs_dma->IFCR = DMA_FLAG_TEIF0_4 << (hdma->StreamIndex & 0x1FU);
1228:Drivers/STM32H7xx_HAL_Driver/Src/stm32h7xx_hal_dma.c **** 
1229:Drivers/STM32H7xx_HAL_Driver/Src/stm32h7xx_hal_dma.c ****         /* Update error code */
1230:Drivers/STM32H7xx_HAL_Driver/Src/stm32h7xx_hal_dma.c ****         hdma->ErrorCode |= HAL_DMA_ERROR_TE;
ARM GAS  C:\Users\CompuTOP\AppData\Local\Temp\cc4hOfP8.s 			page 23


1231:Drivers/STM32H7xx_HAL_Driver/Src/stm32h7xx_hal_dma.c ****       }
1232:Drivers/STM32H7xx_HAL_Driver/Src/stm32h7xx_hal_dma.c ****     }
1233:Drivers/STM32H7xx_HAL_Driver/Src/stm32h7xx_hal_dma.c ****     /* FIFO Error Interrupt management ******************************************/
1234:Drivers/STM32H7xx_HAL_Driver/Src/stm32h7xx_hal_dma.c ****     if ((tmpisr_dma & (DMA_FLAG_FEIF0_4 << (hdma->StreamIndex & 0x1FU))) != 0U)
1235:Drivers/STM32H7xx_HAL_Driver/Src/stm32h7xx_hal_dma.c ****     {
1236:Drivers/STM32H7xx_HAL_Driver/Src/stm32h7xx_hal_dma.c ****       if(__HAL_DMA_GET_IT_SOURCE(hdma, DMA_IT_FE) != 0U)
1237:Drivers/STM32H7xx_HAL_Driver/Src/stm32h7xx_hal_dma.c ****       {
1238:Drivers/STM32H7xx_HAL_Driver/Src/stm32h7xx_hal_dma.c ****         /* Clear the FIFO error flag */
1239:Drivers/STM32H7xx_HAL_Driver/Src/stm32h7xx_hal_dma.c ****         regs_dma->IFCR = DMA_FLAG_FEIF0_4 << (hdma->StreamIndex & 0x1FU);
1240:Drivers/STM32H7xx_HAL_Driver/Src/stm32h7xx_hal_dma.c **** 
1241:Drivers/STM32H7xx_HAL_Driver/Src/stm32h7xx_hal_dma.c ****         /* Update error code */
1242:Drivers/STM32H7xx_HAL_Driver/Src/stm32h7xx_hal_dma.c ****         hdma->ErrorCode |= HAL_DMA_ERROR_FE;
1243:Drivers/STM32H7xx_HAL_Driver/Src/stm32h7xx_hal_dma.c ****       }
1244:Drivers/STM32H7xx_HAL_Driver/Src/stm32h7xx_hal_dma.c ****     }
1245:Drivers/STM32H7xx_HAL_Driver/Src/stm32h7xx_hal_dma.c ****     /* Direct Mode Error Interrupt management ***********************************/
1246:Drivers/STM32H7xx_HAL_Driver/Src/stm32h7xx_hal_dma.c ****     if ((tmpisr_dma & (DMA_FLAG_DMEIF0_4 << (hdma->StreamIndex & 0x1FU))) != 0U)
1247:Drivers/STM32H7xx_HAL_Driver/Src/stm32h7xx_hal_dma.c ****     {
1248:Drivers/STM32H7xx_HAL_Driver/Src/stm32h7xx_hal_dma.c ****       if(__HAL_DMA_GET_IT_SOURCE(hdma, DMA_IT_DME) != 0U)
1249:Drivers/STM32H7xx_HAL_Driver/Src/stm32h7xx_hal_dma.c ****       {
1250:Drivers/STM32H7xx_HAL_Driver/Src/stm32h7xx_hal_dma.c ****         /* Clear the direct mode error flag */
1251:Drivers/STM32H7xx_HAL_Driver/Src/stm32h7xx_hal_dma.c ****         regs_dma->IFCR = DMA_FLAG_DMEIF0_4 << (hdma->StreamIndex & 0x1FU);
1252:Drivers/STM32H7xx_HAL_Driver/Src/stm32h7xx_hal_dma.c **** 
1253:Drivers/STM32H7xx_HAL_Driver/Src/stm32h7xx_hal_dma.c ****         /* Update error code */
1254:Drivers/STM32H7xx_HAL_Driver/Src/stm32h7xx_hal_dma.c ****         hdma->ErrorCode |= HAL_DMA_ERROR_DME;
1255:Drivers/STM32H7xx_HAL_Driver/Src/stm32h7xx_hal_dma.c ****       }
1256:Drivers/STM32H7xx_HAL_Driver/Src/stm32h7xx_hal_dma.c ****     }
1257:Drivers/STM32H7xx_HAL_Driver/Src/stm32h7xx_hal_dma.c ****     /* Half Transfer Complete Interrupt management ******************************/
1258:Drivers/STM32H7xx_HAL_Driver/Src/stm32h7xx_hal_dma.c ****     if ((tmpisr_dma & (DMA_FLAG_HTIF0_4 << (hdma->StreamIndex & 0x1FU))) != 0U)
1259:Drivers/STM32H7xx_HAL_Driver/Src/stm32h7xx_hal_dma.c ****     {
1260:Drivers/STM32H7xx_HAL_Driver/Src/stm32h7xx_hal_dma.c ****       if(__HAL_DMA_GET_IT_SOURCE(hdma, DMA_IT_HT) != 0U)
1261:Drivers/STM32H7xx_HAL_Driver/Src/stm32h7xx_hal_dma.c ****       {
1262:Drivers/STM32H7xx_HAL_Driver/Src/stm32h7xx_hal_dma.c ****         /* Clear the half transfer complete flag */
1263:Drivers/STM32H7xx_HAL_Driver/Src/stm32h7xx_hal_dma.c ****         regs_dma->IFCR = DMA_FLAG_HTIF0_4 << (hdma->StreamIndex & 0x1FU);
1264:Drivers/STM32H7xx_HAL_Driver/Src/stm32h7xx_hal_dma.c **** 
1265:Drivers/STM32H7xx_HAL_Driver/Src/stm32h7xx_hal_dma.c ****         /* Multi_Buffering mode enabled */
1266:Drivers/STM32H7xx_HAL_Driver/Src/stm32h7xx_hal_dma.c ****         if(((((DMA_Stream_TypeDef   *)hdma->Instance)->CR) & (uint32_t)(DMA_SxCR_DBM)) != 0U)
1267:Drivers/STM32H7xx_HAL_Driver/Src/stm32h7xx_hal_dma.c ****         {
1268:Drivers/STM32H7xx_HAL_Driver/Src/stm32h7xx_hal_dma.c ****           /* Current memory buffer used is Memory 0 */
1269:Drivers/STM32H7xx_HAL_Driver/Src/stm32h7xx_hal_dma.c ****           if((((DMA_Stream_TypeDef   *)hdma->Instance)->CR & DMA_SxCR_CT) == 0U)
1270:Drivers/STM32H7xx_HAL_Driver/Src/stm32h7xx_hal_dma.c ****           {
1271:Drivers/STM32H7xx_HAL_Driver/Src/stm32h7xx_hal_dma.c ****             if(hdma->XferHalfCpltCallback != NULL)
1272:Drivers/STM32H7xx_HAL_Driver/Src/stm32h7xx_hal_dma.c ****             {
1273:Drivers/STM32H7xx_HAL_Driver/Src/stm32h7xx_hal_dma.c ****               /* Half transfer callback */
1274:Drivers/STM32H7xx_HAL_Driver/Src/stm32h7xx_hal_dma.c ****               hdma->XferHalfCpltCallback(hdma);
1275:Drivers/STM32H7xx_HAL_Driver/Src/stm32h7xx_hal_dma.c ****             }
1276:Drivers/STM32H7xx_HAL_Driver/Src/stm32h7xx_hal_dma.c ****           }
1277:Drivers/STM32H7xx_HAL_Driver/Src/stm32h7xx_hal_dma.c ****           /* Current memory buffer used is Memory 1 */
1278:Drivers/STM32H7xx_HAL_Driver/Src/stm32h7xx_hal_dma.c ****           else
1279:Drivers/STM32H7xx_HAL_Driver/Src/stm32h7xx_hal_dma.c ****           {
1280:Drivers/STM32H7xx_HAL_Driver/Src/stm32h7xx_hal_dma.c ****             if(hdma->XferM1HalfCpltCallback != NULL)
1281:Drivers/STM32H7xx_HAL_Driver/Src/stm32h7xx_hal_dma.c ****             {
1282:Drivers/STM32H7xx_HAL_Driver/Src/stm32h7xx_hal_dma.c ****               /* Half transfer callback */
1283:Drivers/STM32H7xx_HAL_Driver/Src/stm32h7xx_hal_dma.c ****               hdma->XferM1HalfCpltCallback(hdma);
1284:Drivers/STM32H7xx_HAL_Driver/Src/stm32h7xx_hal_dma.c ****             }
1285:Drivers/STM32H7xx_HAL_Driver/Src/stm32h7xx_hal_dma.c ****           }
1286:Drivers/STM32H7xx_HAL_Driver/Src/stm32h7xx_hal_dma.c ****         }
1287:Drivers/STM32H7xx_HAL_Driver/Src/stm32h7xx_hal_dma.c ****         else
ARM GAS  C:\Users\CompuTOP\AppData\Local\Temp\cc4hOfP8.s 			page 24


1288:Drivers/STM32H7xx_HAL_Driver/Src/stm32h7xx_hal_dma.c ****         {
1289:Drivers/STM32H7xx_HAL_Driver/Src/stm32h7xx_hal_dma.c ****           /* Disable the half transfer interrupt if the DMA mode is not CIRCULAR */
1290:Drivers/STM32H7xx_HAL_Driver/Src/stm32h7xx_hal_dma.c ****           if((((DMA_Stream_TypeDef   *)hdma->Instance)->CR & DMA_SxCR_CIRC) == 0U)
1291:Drivers/STM32H7xx_HAL_Driver/Src/stm32h7xx_hal_dma.c ****           {
1292:Drivers/STM32H7xx_HAL_Driver/Src/stm32h7xx_hal_dma.c ****             /* Disable the half transfer interrupt */
1293:Drivers/STM32H7xx_HAL_Driver/Src/stm32h7xx_hal_dma.c ****             ((DMA_Stream_TypeDef   *)hdma->Instance)->CR  &= ~(DMA_IT_HT);
1294:Drivers/STM32H7xx_HAL_Driver/Src/stm32h7xx_hal_dma.c ****           }
1295:Drivers/STM32H7xx_HAL_Driver/Src/stm32h7xx_hal_dma.c **** 
1296:Drivers/STM32H7xx_HAL_Driver/Src/stm32h7xx_hal_dma.c ****           if(hdma->XferHalfCpltCallback != NULL)
1297:Drivers/STM32H7xx_HAL_Driver/Src/stm32h7xx_hal_dma.c ****           {
1298:Drivers/STM32H7xx_HAL_Driver/Src/stm32h7xx_hal_dma.c ****             /* Half transfer callback */
1299:Drivers/STM32H7xx_HAL_Driver/Src/stm32h7xx_hal_dma.c ****             hdma->XferHalfCpltCallback(hdma);
1300:Drivers/STM32H7xx_HAL_Driver/Src/stm32h7xx_hal_dma.c ****           }
1301:Drivers/STM32H7xx_HAL_Driver/Src/stm32h7xx_hal_dma.c ****         }
1302:Drivers/STM32H7xx_HAL_Driver/Src/stm32h7xx_hal_dma.c ****       }
1303:Drivers/STM32H7xx_HAL_Driver/Src/stm32h7xx_hal_dma.c ****     }
1304:Drivers/STM32H7xx_HAL_Driver/Src/stm32h7xx_hal_dma.c ****     /* Transfer Complete Interrupt management ***********************************/
1305:Drivers/STM32H7xx_HAL_Driver/Src/stm32h7xx_hal_dma.c ****     if ((tmpisr_dma & (DMA_FLAG_TCIF0_4 << (hdma->StreamIndex & 0x1FU))) != 0U)
1306:Drivers/STM32H7xx_HAL_Driver/Src/stm32h7xx_hal_dma.c ****     {
1307:Drivers/STM32H7xx_HAL_Driver/Src/stm32h7xx_hal_dma.c ****       if(__HAL_DMA_GET_IT_SOURCE(hdma, DMA_IT_TC) != 0U)
1308:Drivers/STM32H7xx_HAL_Driver/Src/stm32h7xx_hal_dma.c ****       {
1309:Drivers/STM32H7xx_HAL_Driver/Src/stm32h7xx_hal_dma.c ****         /* Clear the transfer complete flag */
1310:Drivers/STM32H7xx_HAL_Driver/Src/stm32h7xx_hal_dma.c ****         regs_dma->IFCR = DMA_FLAG_TCIF0_4 << (hdma->StreamIndex & 0x1FU);
1311:Drivers/STM32H7xx_HAL_Driver/Src/stm32h7xx_hal_dma.c **** 
1312:Drivers/STM32H7xx_HAL_Driver/Src/stm32h7xx_hal_dma.c ****         if(HAL_DMA_STATE_ABORT == hdma->State)
1313:Drivers/STM32H7xx_HAL_Driver/Src/stm32h7xx_hal_dma.c ****         {
1314:Drivers/STM32H7xx_HAL_Driver/Src/stm32h7xx_hal_dma.c ****           /* Disable all the transfer interrupts */
1315:Drivers/STM32H7xx_HAL_Driver/Src/stm32h7xx_hal_dma.c ****           ((DMA_Stream_TypeDef   *)hdma->Instance)->CR  &= ~(DMA_IT_TC | DMA_IT_TE | DMA_IT_DME);
1316:Drivers/STM32H7xx_HAL_Driver/Src/stm32h7xx_hal_dma.c ****           ((DMA_Stream_TypeDef   *)hdma->Instance)->FCR &= ~(DMA_IT_FE);
1317:Drivers/STM32H7xx_HAL_Driver/Src/stm32h7xx_hal_dma.c **** 
1318:Drivers/STM32H7xx_HAL_Driver/Src/stm32h7xx_hal_dma.c ****           if((hdma->XferHalfCpltCallback != NULL) || (hdma->XferM1HalfCpltCallback != NULL))
1319:Drivers/STM32H7xx_HAL_Driver/Src/stm32h7xx_hal_dma.c ****           {
1320:Drivers/STM32H7xx_HAL_Driver/Src/stm32h7xx_hal_dma.c ****             ((DMA_Stream_TypeDef   *)hdma->Instance)->CR  &= ~(DMA_IT_HT);
1321:Drivers/STM32H7xx_HAL_Driver/Src/stm32h7xx_hal_dma.c ****           }
1322:Drivers/STM32H7xx_HAL_Driver/Src/stm32h7xx_hal_dma.c **** 
1323:Drivers/STM32H7xx_HAL_Driver/Src/stm32h7xx_hal_dma.c ****           /* Clear all interrupt flags at correct offset within the register */
1324:Drivers/STM32H7xx_HAL_Driver/Src/stm32h7xx_hal_dma.c ****           regs_dma->IFCR = 0x3FUL << (hdma->StreamIndex & 0x1FU);
1325:Drivers/STM32H7xx_HAL_Driver/Src/stm32h7xx_hal_dma.c **** 
1326:Drivers/STM32H7xx_HAL_Driver/Src/stm32h7xx_hal_dma.c ****           /* Change the DMA state */
1327:Drivers/STM32H7xx_HAL_Driver/Src/stm32h7xx_hal_dma.c ****           hdma->State = HAL_DMA_STATE_READY;
1328:Drivers/STM32H7xx_HAL_Driver/Src/stm32h7xx_hal_dma.c **** 
1329:Drivers/STM32H7xx_HAL_Driver/Src/stm32h7xx_hal_dma.c ****           /* Process Unlocked */
1330:Drivers/STM32H7xx_HAL_Driver/Src/stm32h7xx_hal_dma.c ****           __HAL_UNLOCK(hdma);
1331:Drivers/STM32H7xx_HAL_Driver/Src/stm32h7xx_hal_dma.c **** 
1332:Drivers/STM32H7xx_HAL_Driver/Src/stm32h7xx_hal_dma.c ****           if(hdma->XferAbortCallback != NULL)
1333:Drivers/STM32H7xx_HAL_Driver/Src/stm32h7xx_hal_dma.c ****           {
1334:Drivers/STM32H7xx_HAL_Driver/Src/stm32h7xx_hal_dma.c ****             hdma->XferAbortCallback(hdma);
1335:Drivers/STM32H7xx_HAL_Driver/Src/stm32h7xx_hal_dma.c ****           }
1336:Drivers/STM32H7xx_HAL_Driver/Src/stm32h7xx_hal_dma.c ****           return;
1337:Drivers/STM32H7xx_HAL_Driver/Src/stm32h7xx_hal_dma.c ****         }
1338:Drivers/STM32H7xx_HAL_Driver/Src/stm32h7xx_hal_dma.c **** 
1339:Drivers/STM32H7xx_HAL_Driver/Src/stm32h7xx_hal_dma.c ****         if(((((DMA_Stream_TypeDef   *)hdma->Instance)->CR) & (uint32_t)(DMA_SxCR_DBM)) != 0U)
1340:Drivers/STM32H7xx_HAL_Driver/Src/stm32h7xx_hal_dma.c ****         {
1341:Drivers/STM32H7xx_HAL_Driver/Src/stm32h7xx_hal_dma.c ****           /* Current memory buffer used is Memory 0 */
1342:Drivers/STM32H7xx_HAL_Driver/Src/stm32h7xx_hal_dma.c ****           if((((DMA_Stream_TypeDef   *)hdma->Instance)->CR & DMA_SxCR_CT) == 0U)
1343:Drivers/STM32H7xx_HAL_Driver/Src/stm32h7xx_hal_dma.c ****           {
1344:Drivers/STM32H7xx_HAL_Driver/Src/stm32h7xx_hal_dma.c ****             if(hdma->XferM1CpltCallback != NULL)
ARM GAS  C:\Users\CompuTOP\AppData\Local\Temp\cc4hOfP8.s 			page 25


1345:Drivers/STM32H7xx_HAL_Driver/Src/stm32h7xx_hal_dma.c ****             {
1346:Drivers/STM32H7xx_HAL_Driver/Src/stm32h7xx_hal_dma.c ****               /* Transfer complete Callback for memory1 */
1347:Drivers/STM32H7xx_HAL_Driver/Src/stm32h7xx_hal_dma.c ****               hdma->XferM1CpltCallback(hdma);
1348:Drivers/STM32H7xx_HAL_Driver/Src/stm32h7xx_hal_dma.c ****             }
1349:Drivers/STM32H7xx_HAL_Driver/Src/stm32h7xx_hal_dma.c ****           }
1350:Drivers/STM32H7xx_HAL_Driver/Src/stm32h7xx_hal_dma.c ****           /* Current memory buffer used is Memory 1 */
1351:Drivers/STM32H7xx_HAL_Driver/Src/stm32h7xx_hal_dma.c ****           else
1352:Drivers/STM32H7xx_HAL_Driver/Src/stm32h7xx_hal_dma.c ****           {
1353:Drivers/STM32H7xx_HAL_Driver/Src/stm32h7xx_hal_dma.c ****             if(hdma->XferCpltCallback != NULL)
1354:Drivers/STM32H7xx_HAL_Driver/Src/stm32h7xx_hal_dma.c ****             {
1355:Drivers/STM32H7xx_HAL_Driver/Src/stm32h7xx_hal_dma.c ****               /* Transfer complete Callback for memory0 */
1356:Drivers/STM32H7xx_HAL_Driver/Src/stm32h7xx_hal_dma.c ****               hdma->XferCpltCallback(hdma);
1357:Drivers/STM32H7xx_HAL_Driver/Src/stm32h7xx_hal_dma.c ****             }
1358:Drivers/STM32H7xx_HAL_Driver/Src/stm32h7xx_hal_dma.c ****           }
1359:Drivers/STM32H7xx_HAL_Driver/Src/stm32h7xx_hal_dma.c ****         }
1360:Drivers/STM32H7xx_HAL_Driver/Src/stm32h7xx_hal_dma.c ****         /* Disable the transfer complete interrupt if the DMA mode is not CIRCULAR */
1361:Drivers/STM32H7xx_HAL_Driver/Src/stm32h7xx_hal_dma.c ****         else
1362:Drivers/STM32H7xx_HAL_Driver/Src/stm32h7xx_hal_dma.c ****         {
1363:Drivers/STM32H7xx_HAL_Driver/Src/stm32h7xx_hal_dma.c ****           if((((DMA_Stream_TypeDef   *)hdma->Instance)->CR & DMA_SxCR_CIRC) == 0U)
1364:Drivers/STM32H7xx_HAL_Driver/Src/stm32h7xx_hal_dma.c ****           {
1365:Drivers/STM32H7xx_HAL_Driver/Src/stm32h7xx_hal_dma.c ****             /* Disable the transfer complete interrupt */
1366:Drivers/STM32H7xx_HAL_Driver/Src/stm32h7xx_hal_dma.c ****             ((DMA_Stream_TypeDef   *)hdma->Instance)->CR  &= ~(DMA_IT_TC);
1367:Drivers/STM32H7xx_HAL_Driver/Src/stm32h7xx_hal_dma.c **** 
1368:Drivers/STM32H7xx_HAL_Driver/Src/stm32h7xx_hal_dma.c ****             /* Change the DMA state */
1369:Drivers/STM32H7xx_HAL_Driver/Src/stm32h7xx_hal_dma.c ****             hdma->State = HAL_DMA_STATE_READY;
1370:Drivers/STM32H7xx_HAL_Driver/Src/stm32h7xx_hal_dma.c **** 
1371:Drivers/STM32H7xx_HAL_Driver/Src/stm32h7xx_hal_dma.c ****             /* Process Unlocked */
1372:Drivers/STM32H7xx_HAL_Driver/Src/stm32h7xx_hal_dma.c ****             __HAL_UNLOCK(hdma);
1373:Drivers/STM32H7xx_HAL_Driver/Src/stm32h7xx_hal_dma.c ****           }
1374:Drivers/STM32H7xx_HAL_Driver/Src/stm32h7xx_hal_dma.c **** 
1375:Drivers/STM32H7xx_HAL_Driver/Src/stm32h7xx_hal_dma.c ****           if(hdma->XferCpltCallback != NULL)
1376:Drivers/STM32H7xx_HAL_Driver/Src/stm32h7xx_hal_dma.c ****           {
1377:Drivers/STM32H7xx_HAL_Driver/Src/stm32h7xx_hal_dma.c ****             /* Transfer complete callback */
1378:Drivers/STM32H7xx_HAL_Driver/Src/stm32h7xx_hal_dma.c ****             hdma->XferCpltCallback(hdma);
1379:Drivers/STM32H7xx_HAL_Driver/Src/stm32h7xx_hal_dma.c ****           }
1380:Drivers/STM32H7xx_HAL_Driver/Src/stm32h7xx_hal_dma.c ****         }
1381:Drivers/STM32H7xx_HAL_Driver/Src/stm32h7xx_hal_dma.c ****       }
1382:Drivers/STM32H7xx_HAL_Driver/Src/stm32h7xx_hal_dma.c ****     }
1383:Drivers/STM32H7xx_HAL_Driver/Src/stm32h7xx_hal_dma.c **** 
1384:Drivers/STM32H7xx_HAL_Driver/Src/stm32h7xx_hal_dma.c ****     /* manage error case */
1385:Drivers/STM32H7xx_HAL_Driver/Src/stm32h7xx_hal_dma.c ****     if(hdma->ErrorCode != HAL_DMA_ERROR_NONE)
1386:Drivers/STM32H7xx_HAL_Driver/Src/stm32h7xx_hal_dma.c ****     {
1387:Drivers/STM32H7xx_HAL_Driver/Src/stm32h7xx_hal_dma.c ****       if((hdma->ErrorCode & HAL_DMA_ERROR_TE) != 0U)
1388:Drivers/STM32H7xx_HAL_Driver/Src/stm32h7xx_hal_dma.c ****       {
1389:Drivers/STM32H7xx_HAL_Driver/Src/stm32h7xx_hal_dma.c ****         hdma->State = HAL_DMA_STATE_ABORT;
1390:Drivers/STM32H7xx_HAL_Driver/Src/stm32h7xx_hal_dma.c **** 
1391:Drivers/STM32H7xx_HAL_Driver/Src/stm32h7xx_hal_dma.c ****         /* Disable the stream */
1392:Drivers/STM32H7xx_HAL_Driver/Src/stm32h7xx_hal_dma.c ****         __HAL_DMA_DISABLE(hdma);
1393:Drivers/STM32H7xx_HAL_Driver/Src/stm32h7xx_hal_dma.c **** 
1394:Drivers/STM32H7xx_HAL_Driver/Src/stm32h7xx_hal_dma.c ****         do
1395:Drivers/STM32H7xx_HAL_Driver/Src/stm32h7xx_hal_dma.c ****         {
1396:Drivers/STM32H7xx_HAL_Driver/Src/stm32h7xx_hal_dma.c ****           if (++count > timeout)
1397:Drivers/STM32H7xx_HAL_Driver/Src/stm32h7xx_hal_dma.c ****           {
1398:Drivers/STM32H7xx_HAL_Driver/Src/stm32h7xx_hal_dma.c ****             break;
1399:Drivers/STM32H7xx_HAL_Driver/Src/stm32h7xx_hal_dma.c ****           }
1400:Drivers/STM32H7xx_HAL_Driver/Src/stm32h7xx_hal_dma.c ****         }
1401:Drivers/STM32H7xx_HAL_Driver/Src/stm32h7xx_hal_dma.c ****         while((((DMA_Stream_TypeDef   *)hdma->Instance)->CR & DMA_SxCR_EN) != 0U);
ARM GAS  C:\Users\CompuTOP\AppData\Local\Temp\cc4hOfP8.s 			page 26


1402:Drivers/STM32H7xx_HAL_Driver/Src/stm32h7xx_hal_dma.c **** 
1403:Drivers/STM32H7xx_HAL_Driver/Src/stm32h7xx_hal_dma.c ****         if((((DMA_Stream_TypeDef   *)hdma->Instance)->CR & DMA_SxCR_EN) != 0U)
1404:Drivers/STM32H7xx_HAL_Driver/Src/stm32h7xx_hal_dma.c ****         {
1405:Drivers/STM32H7xx_HAL_Driver/Src/stm32h7xx_hal_dma.c ****           /* Change the DMA state to error if DMA disable fails */
1406:Drivers/STM32H7xx_HAL_Driver/Src/stm32h7xx_hal_dma.c ****           hdma->State = HAL_DMA_STATE_ERROR;
1407:Drivers/STM32H7xx_HAL_Driver/Src/stm32h7xx_hal_dma.c ****         }
1408:Drivers/STM32H7xx_HAL_Driver/Src/stm32h7xx_hal_dma.c ****         else
1409:Drivers/STM32H7xx_HAL_Driver/Src/stm32h7xx_hal_dma.c ****         {
1410:Drivers/STM32H7xx_HAL_Driver/Src/stm32h7xx_hal_dma.c ****           /* Change the DMA state to Ready if DMA disable success */
1411:Drivers/STM32H7xx_HAL_Driver/Src/stm32h7xx_hal_dma.c ****           hdma->State = HAL_DMA_STATE_READY;
1412:Drivers/STM32H7xx_HAL_Driver/Src/stm32h7xx_hal_dma.c ****         }
1413:Drivers/STM32H7xx_HAL_Driver/Src/stm32h7xx_hal_dma.c **** 
1414:Drivers/STM32H7xx_HAL_Driver/Src/stm32h7xx_hal_dma.c ****         /* Process Unlocked */
1415:Drivers/STM32H7xx_HAL_Driver/Src/stm32h7xx_hal_dma.c ****         __HAL_UNLOCK(hdma);
1416:Drivers/STM32H7xx_HAL_Driver/Src/stm32h7xx_hal_dma.c ****       }
1417:Drivers/STM32H7xx_HAL_Driver/Src/stm32h7xx_hal_dma.c **** 
1418:Drivers/STM32H7xx_HAL_Driver/Src/stm32h7xx_hal_dma.c ****       if(hdma->XferErrorCallback != NULL)
1419:Drivers/STM32H7xx_HAL_Driver/Src/stm32h7xx_hal_dma.c ****       {
1420:Drivers/STM32H7xx_HAL_Driver/Src/stm32h7xx_hal_dma.c ****         /* Transfer error callback */
1421:Drivers/STM32H7xx_HAL_Driver/Src/stm32h7xx_hal_dma.c ****         hdma->XferErrorCallback(hdma);
1422:Drivers/STM32H7xx_HAL_Driver/Src/stm32h7xx_hal_dma.c ****       }
1423:Drivers/STM32H7xx_HAL_Driver/Src/stm32h7xx_hal_dma.c ****     }
1424:Drivers/STM32H7xx_HAL_Driver/Src/stm32h7xx_hal_dma.c ****   }
1425:Drivers/STM32H7xx_HAL_Driver/Src/stm32h7xx_hal_dma.c ****   else if(IS_BDMA_CHANNEL_INSTANCE(hdma->Instance) != 0U)  /* BDMA instance(s) */
1426:Drivers/STM32H7xx_HAL_Driver/Src/stm32h7xx_hal_dma.c ****   {
1427:Drivers/STM32H7xx_HAL_Driver/Src/stm32h7xx_hal_dma.c ****     ccr_reg = (((BDMA_Channel_TypeDef   *)hdma->Instance)->CCR);
1428:Drivers/STM32H7xx_HAL_Driver/Src/stm32h7xx_hal_dma.c **** 
1429:Drivers/STM32H7xx_HAL_Driver/Src/stm32h7xx_hal_dma.c ****     /* Half Transfer Complete Interrupt management ******************************/
1430:Drivers/STM32H7xx_HAL_Driver/Src/stm32h7xx_hal_dma.c ****     if (((tmpisr_bdma & (BDMA_FLAG_HT0 << (hdma->StreamIndex & 0x1FU))) != 0U) && ((ccr_reg & BDMA_
1431:Drivers/STM32H7xx_HAL_Driver/Src/stm32h7xx_hal_dma.c ****     {
1432:Drivers/STM32H7xx_HAL_Driver/Src/stm32h7xx_hal_dma.c ****       /* Clear the half transfer complete flag */
1433:Drivers/STM32H7xx_HAL_Driver/Src/stm32h7xx_hal_dma.c ****       regs_bdma->IFCR = (BDMA_ISR_HTIF0 << (hdma->StreamIndex & 0x1FU));
1434:Drivers/STM32H7xx_HAL_Driver/Src/stm32h7xx_hal_dma.c **** 
1435:Drivers/STM32H7xx_HAL_Driver/Src/stm32h7xx_hal_dma.c ****       /* Disable the transfer complete interrupt if the DMA mode is Double Buffering */
1436:Drivers/STM32H7xx_HAL_Driver/Src/stm32h7xx_hal_dma.c ****       if((ccr_reg & BDMA_CCR_DBM) != 0U)
1437:Drivers/STM32H7xx_HAL_Driver/Src/stm32h7xx_hal_dma.c ****       {
1438:Drivers/STM32H7xx_HAL_Driver/Src/stm32h7xx_hal_dma.c ****         /* Current memory buffer used is Memory 0 */
1439:Drivers/STM32H7xx_HAL_Driver/Src/stm32h7xx_hal_dma.c ****         if((ccr_reg & BDMA_CCR_CT) == 0U)
1440:Drivers/STM32H7xx_HAL_Driver/Src/stm32h7xx_hal_dma.c ****         {
1441:Drivers/STM32H7xx_HAL_Driver/Src/stm32h7xx_hal_dma.c ****           if(hdma->XferM1HalfCpltCallback != NULL)
1442:Drivers/STM32H7xx_HAL_Driver/Src/stm32h7xx_hal_dma.c ****           {
1443:Drivers/STM32H7xx_HAL_Driver/Src/stm32h7xx_hal_dma.c ****             /* Half transfer Callback for Memory 1 */
1444:Drivers/STM32H7xx_HAL_Driver/Src/stm32h7xx_hal_dma.c ****             hdma->XferM1HalfCpltCallback(hdma);
1445:Drivers/STM32H7xx_HAL_Driver/Src/stm32h7xx_hal_dma.c ****           }
1446:Drivers/STM32H7xx_HAL_Driver/Src/stm32h7xx_hal_dma.c ****         }
1447:Drivers/STM32H7xx_HAL_Driver/Src/stm32h7xx_hal_dma.c ****         /* Current memory buffer used is Memory 1 */
1448:Drivers/STM32H7xx_HAL_Driver/Src/stm32h7xx_hal_dma.c ****         else
1449:Drivers/STM32H7xx_HAL_Driver/Src/stm32h7xx_hal_dma.c ****         {
1450:Drivers/STM32H7xx_HAL_Driver/Src/stm32h7xx_hal_dma.c ****           if(hdma->XferHalfCpltCallback != NULL)
1451:Drivers/STM32H7xx_HAL_Driver/Src/stm32h7xx_hal_dma.c ****           {
1452:Drivers/STM32H7xx_HAL_Driver/Src/stm32h7xx_hal_dma.c ****             /* Half transfer Callback for Memory 0 */
1453:Drivers/STM32H7xx_HAL_Driver/Src/stm32h7xx_hal_dma.c ****             hdma->XferHalfCpltCallback(hdma);
1454:Drivers/STM32H7xx_HAL_Driver/Src/stm32h7xx_hal_dma.c ****           }
1455:Drivers/STM32H7xx_HAL_Driver/Src/stm32h7xx_hal_dma.c ****         }
1456:Drivers/STM32H7xx_HAL_Driver/Src/stm32h7xx_hal_dma.c ****       }
1457:Drivers/STM32H7xx_HAL_Driver/Src/stm32h7xx_hal_dma.c ****       else
1458:Drivers/STM32H7xx_HAL_Driver/Src/stm32h7xx_hal_dma.c ****       {
ARM GAS  C:\Users\CompuTOP\AppData\Local\Temp\cc4hOfP8.s 			page 27


1459:Drivers/STM32H7xx_HAL_Driver/Src/stm32h7xx_hal_dma.c ****         if((ccr_reg & BDMA_CCR_CIRC) == 0U)
1460:Drivers/STM32H7xx_HAL_Driver/Src/stm32h7xx_hal_dma.c ****         {
1461:Drivers/STM32H7xx_HAL_Driver/Src/stm32h7xx_hal_dma.c ****           /* Disable the half transfer interrupt */
1462:Drivers/STM32H7xx_HAL_Driver/Src/stm32h7xx_hal_dma.c ****           __HAL_DMA_DISABLE_IT(hdma, DMA_IT_HT);
1463:Drivers/STM32H7xx_HAL_Driver/Src/stm32h7xx_hal_dma.c ****         }
1464:Drivers/STM32H7xx_HAL_Driver/Src/stm32h7xx_hal_dma.c **** 
1465:Drivers/STM32H7xx_HAL_Driver/Src/stm32h7xx_hal_dma.c ****         /* DMA peripheral state is not updated in Half Transfer */
1466:Drivers/STM32H7xx_HAL_Driver/Src/stm32h7xx_hal_dma.c ****         /* but in Transfer Complete case */
1467:Drivers/STM32H7xx_HAL_Driver/Src/stm32h7xx_hal_dma.c **** 
1468:Drivers/STM32H7xx_HAL_Driver/Src/stm32h7xx_hal_dma.c ****        if(hdma->XferHalfCpltCallback != NULL)
1469:Drivers/STM32H7xx_HAL_Driver/Src/stm32h7xx_hal_dma.c ****         {
1470:Drivers/STM32H7xx_HAL_Driver/Src/stm32h7xx_hal_dma.c ****           /* Half transfer callback */
1471:Drivers/STM32H7xx_HAL_Driver/Src/stm32h7xx_hal_dma.c ****           hdma->XferHalfCpltCallback(hdma);
1472:Drivers/STM32H7xx_HAL_Driver/Src/stm32h7xx_hal_dma.c ****         }
1473:Drivers/STM32H7xx_HAL_Driver/Src/stm32h7xx_hal_dma.c ****       }
1474:Drivers/STM32H7xx_HAL_Driver/Src/stm32h7xx_hal_dma.c ****     }
1475:Drivers/STM32H7xx_HAL_Driver/Src/stm32h7xx_hal_dma.c **** 
1476:Drivers/STM32H7xx_HAL_Driver/Src/stm32h7xx_hal_dma.c ****     /* Transfer Complete Interrupt management ***********************************/
1477:Drivers/STM32H7xx_HAL_Driver/Src/stm32h7xx_hal_dma.c ****     else if (((tmpisr_bdma & (BDMA_FLAG_TC0 << (hdma->StreamIndex & 0x1FU))) != 0U) && ((ccr_reg & 
1478:Drivers/STM32H7xx_HAL_Driver/Src/stm32h7xx_hal_dma.c ****     {
1479:Drivers/STM32H7xx_HAL_Driver/Src/stm32h7xx_hal_dma.c ****       /* Clear the transfer complete flag */
1480:Drivers/STM32H7xx_HAL_Driver/Src/stm32h7xx_hal_dma.c ****       regs_bdma->IFCR = (BDMA_ISR_TCIF0) << (hdma->StreamIndex & 0x1FU);
1481:Drivers/STM32H7xx_HAL_Driver/Src/stm32h7xx_hal_dma.c **** 
1482:Drivers/STM32H7xx_HAL_Driver/Src/stm32h7xx_hal_dma.c ****       /* Disable the transfer complete interrupt if the DMA mode is Double Buffering */
1483:Drivers/STM32H7xx_HAL_Driver/Src/stm32h7xx_hal_dma.c ****       if((ccr_reg & BDMA_CCR_DBM) != 0U)
1484:Drivers/STM32H7xx_HAL_Driver/Src/stm32h7xx_hal_dma.c ****       {
1485:Drivers/STM32H7xx_HAL_Driver/Src/stm32h7xx_hal_dma.c ****         /* Current memory buffer used is Memory 0 */
1486:Drivers/STM32H7xx_HAL_Driver/Src/stm32h7xx_hal_dma.c ****         if((ccr_reg & BDMA_CCR_CT) == 0U)
1487:Drivers/STM32H7xx_HAL_Driver/Src/stm32h7xx_hal_dma.c ****         {
1488:Drivers/STM32H7xx_HAL_Driver/Src/stm32h7xx_hal_dma.c ****           if(hdma->XferM1CpltCallback != NULL)
1489:Drivers/STM32H7xx_HAL_Driver/Src/stm32h7xx_hal_dma.c ****           {
1490:Drivers/STM32H7xx_HAL_Driver/Src/stm32h7xx_hal_dma.c ****             /* Transfer complete Callback for Memory 1 */
1491:Drivers/STM32H7xx_HAL_Driver/Src/stm32h7xx_hal_dma.c ****             hdma->XferM1CpltCallback(hdma);
1492:Drivers/STM32H7xx_HAL_Driver/Src/stm32h7xx_hal_dma.c ****           }
1493:Drivers/STM32H7xx_HAL_Driver/Src/stm32h7xx_hal_dma.c ****         }
1494:Drivers/STM32H7xx_HAL_Driver/Src/stm32h7xx_hal_dma.c ****         /* Current memory buffer used is Memory 1 */
1495:Drivers/STM32H7xx_HAL_Driver/Src/stm32h7xx_hal_dma.c ****         else
1496:Drivers/STM32H7xx_HAL_Driver/Src/stm32h7xx_hal_dma.c ****         {
1497:Drivers/STM32H7xx_HAL_Driver/Src/stm32h7xx_hal_dma.c ****           if(hdma->XferCpltCallback != NULL)
1498:Drivers/STM32H7xx_HAL_Driver/Src/stm32h7xx_hal_dma.c ****           {
1499:Drivers/STM32H7xx_HAL_Driver/Src/stm32h7xx_hal_dma.c ****             /* Transfer complete Callback for Memory 0 */
1500:Drivers/STM32H7xx_HAL_Driver/Src/stm32h7xx_hal_dma.c ****             hdma->XferCpltCallback(hdma);
1501:Drivers/STM32H7xx_HAL_Driver/Src/stm32h7xx_hal_dma.c ****           }
1502:Drivers/STM32H7xx_HAL_Driver/Src/stm32h7xx_hal_dma.c ****         }
1503:Drivers/STM32H7xx_HAL_Driver/Src/stm32h7xx_hal_dma.c ****       }
1504:Drivers/STM32H7xx_HAL_Driver/Src/stm32h7xx_hal_dma.c ****       else
1505:Drivers/STM32H7xx_HAL_Driver/Src/stm32h7xx_hal_dma.c ****       {
1506:Drivers/STM32H7xx_HAL_Driver/Src/stm32h7xx_hal_dma.c ****         if((ccr_reg & BDMA_CCR_CIRC) == 0U)
1507:Drivers/STM32H7xx_HAL_Driver/Src/stm32h7xx_hal_dma.c ****         {
1508:Drivers/STM32H7xx_HAL_Driver/Src/stm32h7xx_hal_dma.c ****           /* Disable the transfer complete and error interrupt, if the DMA mode is not CIRCULAR */
1509:Drivers/STM32H7xx_HAL_Driver/Src/stm32h7xx_hal_dma.c ****           __HAL_DMA_DISABLE_IT(hdma, DMA_IT_TE | DMA_IT_TC);
1510:Drivers/STM32H7xx_HAL_Driver/Src/stm32h7xx_hal_dma.c **** 
1511:Drivers/STM32H7xx_HAL_Driver/Src/stm32h7xx_hal_dma.c ****           /* Change the DMA state */
1512:Drivers/STM32H7xx_HAL_Driver/Src/stm32h7xx_hal_dma.c ****           hdma->State = HAL_DMA_STATE_READY;
1513:Drivers/STM32H7xx_HAL_Driver/Src/stm32h7xx_hal_dma.c **** 
1514:Drivers/STM32H7xx_HAL_Driver/Src/stm32h7xx_hal_dma.c ****           /* Process Unlocked */
1515:Drivers/STM32H7xx_HAL_Driver/Src/stm32h7xx_hal_dma.c ****           __HAL_UNLOCK(hdma);
ARM GAS  C:\Users\CompuTOP\AppData\Local\Temp\cc4hOfP8.s 			page 28


1516:Drivers/STM32H7xx_HAL_Driver/Src/stm32h7xx_hal_dma.c ****         }
1517:Drivers/STM32H7xx_HAL_Driver/Src/stm32h7xx_hal_dma.c **** 
1518:Drivers/STM32H7xx_HAL_Driver/Src/stm32h7xx_hal_dma.c ****         if(hdma->XferCpltCallback != NULL)
1519:Drivers/STM32H7xx_HAL_Driver/Src/stm32h7xx_hal_dma.c ****         {
1520:Drivers/STM32H7xx_HAL_Driver/Src/stm32h7xx_hal_dma.c ****           /* Transfer complete callback */
1521:Drivers/STM32H7xx_HAL_Driver/Src/stm32h7xx_hal_dma.c ****           hdma->XferCpltCallback(hdma);
1522:Drivers/STM32H7xx_HAL_Driver/Src/stm32h7xx_hal_dma.c ****         }
1523:Drivers/STM32H7xx_HAL_Driver/Src/stm32h7xx_hal_dma.c ****       }
1524:Drivers/STM32H7xx_HAL_Driver/Src/stm32h7xx_hal_dma.c ****     }
1525:Drivers/STM32H7xx_HAL_Driver/Src/stm32h7xx_hal_dma.c ****     /* Transfer Error Interrupt management **************************************/
1526:Drivers/STM32H7xx_HAL_Driver/Src/stm32h7xx_hal_dma.c ****     else if (((tmpisr_bdma & (BDMA_FLAG_TE0 << (hdma->StreamIndex & 0x1FU))) != 0U) && ((ccr_reg & 
1527:Drivers/STM32H7xx_HAL_Driver/Src/stm32h7xx_hal_dma.c ****     {
1528:Drivers/STM32H7xx_HAL_Driver/Src/stm32h7xx_hal_dma.c ****       /* When a DMA transfer error occurs */
1529:Drivers/STM32H7xx_HAL_Driver/Src/stm32h7xx_hal_dma.c ****       /* A hardware clear of its EN bits is performed */
1530:Drivers/STM32H7xx_HAL_Driver/Src/stm32h7xx_hal_dma.c ****       /* Disable ALL DMA IT */
1531:Drivers/STM32H7xx_HAL_Driver/Src/stm32h7xx_hal_dma.c ****       __HAL_DMA_DISABLE_IT(hdma, (DMA_IT_TC | DMA_IT_HT | DMA_IT_TE));
1532:Drivers/STM32H7xx_HAL_Driver/Src/stm32h7xx_hal_dma.c **** 
1533:Drivers/STM32H7xx_HAL_Driver/Src/stm32h7xx_hal_dma.c ****       /* Clear all flags */
1534:Drivers/STM32H7xx_HAL_Driver/Src/stm32h7xx_hal_dma.c ****       regs_bdma->IFCR = (BDMA_ISR_GIF0) << (hdma->StreamIndex & 0x1FU);
1535:Drivers/STM32H7xx_HAL_Driver/Src/stm32h7xx_hal_dma.c **** 
1536:Drivers/STM32H7xx_HAL_Driver/Src/stm32h7xx_hal_dma.c ****       /* Update error code */
1537:Drivers/STM32H7xx_HAL_Driver/Src/stm32h7xx_hal_dma.c ****       hdma->ErrorCode = HAL_DMA_ERROR_TE;
1538:Drivers/STM32H7xx_HAL_Driver/Src/stm32h7xx_hal_dma.c **** 
1539:Drivers/STM32H7xx_HAL_Driver/Src/stm32h7xx_hal_dma.c ****       /* Change the DMA state */
1540:Drivers/STM32H7xx_HAL_Driver/Src/stm32h7xx_hal_dma.c ****       hdma->State = HAL_DMA_STATE_READY;
1541:Drivers/STM32H7xx_HAL_Driver/Src/stm32h7xx_hal_dma.c **** 
1542:Drivers/STM32H7xx_HAL_Driver/Src/stm32h7xx_hal_dma.c ****       /* Process Unlocked */
1543:Drivers/STM32H7xx_HAL_Driver/Src/stm32h7xx_hal_dma.c ****       __HAL_UNLOCK(hdma);
1544:Drivers/STM32H7xx_HAL_Driver/Src/stm32h7xx_hal_dma.c **** 
1545:Drivers/STM32H7xx_HAL_Driver/Src/stm32h7xx_hal_dma.c ****       if (hdma->XferErrorCallback != NULL)
1546:Drivers/STM32H7xx_HAL_Driver/Src/stm32h7xx_hal_dma.c ****       {
1547:Drivers/STM32H7xx_HAL_Driver/Src/stm32h7xx_hal_dma.c ****         /* Transfer error callback */
1548:Drivers/STM32H7xx_HAL_Driver/Src/stm32h7xx_hal_dma.c ****         hdma->XferErrorCallback(hdma);
1549:Drivers/STM32H7xx_HAL_Driver/Src/stm32h7xx_hal_dma.c ****       }
1550:Drivers/STM32H7xx_HAL_Driver/Src/stm32h7xx_hal_dma.c ****     }
1551:Drivers/STM32H7xx_HAL_Driver/Src/stm32h7xx_hal_dma.c ****     else
1552:Drivers/STM32H7xx_HAL_Driver/Src/stm32h7xx_hal_dma.c ****     {
1553:Drivers/STM32H7xx_HAL_Driver/Src/stm32h7xx_hal_dma.c ****       /* Nothing To Do */
1554:Drivers/STM32H7xx_HAL_Driver/Src/stm32h7xx_hal_dma.c ****     }
1555:Drivers/STM32H7xx_HAL_Driver/Src/stm32h7xx_hal_dma.c ****   }
1556:Drivers/STM32H7xx_HAL_Driver/Src/stm32h7xx_hal_dma.c ****   else
1557:Drivers/STM32H7xx_HAL_Driver/Src/stm32h7xx_hal_dma.c ****   {
1558:Drivers/STM32H7xx_HAL_Driver/Src/stm32h7xx_hal_dma.c ****     /* Nothing To Do */
1559:Drivers/STM32H7xx_HAL_Driver/Src/stm32h7xx_hal_dma.c ****   }
1560:Drivers/STM32H7xx_HAL_Driver/Src/stm32h7xx_hal_dma.c **** }
1561:Drivers/STM32H7xx_HAL_Driver/Src/stm32h7xx_hal_dma.c **** 
1562:Drivers/STM32H7xx_HAL_Driver/Src/stm32h7xx_hal_dma.c **** /**
1563:Drivers/STM32H7xx_HAL_Driver/Src/stm32h7xx_hal_dma.c ****   * @brief  Register callbacks
1564:Drivers/STM32H7xx_HAL_Driver/Src/stm32h7xx_hal_dma.c ****   * @param  hdma:                 pointer to a DMA_HandleTypeDef structure that contains
1565:Drivers/STM32H7xx_HAL_Driver/Src/stm32h7xx_hal_dma.c ****   *                               the configuration information for the specified DMA Stream.
1566:Drivers/STM32H7xx_HAL_Driver/Src/stm32h7xx_hal_dma.c ****   * @param  CallbackID:           User Callback identifier
1567:Drivers/STM32H7xx_HAL_Driver/Src/stm32h7xx_hal_dma.c ****   *                               a DMA_HandleTypeDef structure as parameter.
1568:Drivers/STM32H7xx_HAL_Driver/Src/stm32h7xx_hal_dma.c ****   * @param  pCallback:            pointer to private callback function which has pointer to
1569:Drivers/STM32H7xx_HAL_Driver/Src/stm32h7xx_hal_dma.c ****   *                               a DMA_HandleTypeDef structure as parameter.
1570:Drivers/STM32H7xx_HAL_Driver/Src/stm32h7xx_hal_dma.c ****   * @retval HAL status
1571:Drivers/STM32H7xx_HAL_Driver/Src/stm32h7xx_hal_dma.c ****   */
1572:Drivers/STM32H7xx_HAL_Driver/Src/stm32h7xx_hal_dma.c **** HAL_StatusTypeDef HAL_DMA_RegisterCallback(DMA_HandleTypeDef *hdma, HAL_DMA_CallbackIDTypeDef Callb
ARM GAS  C:\Users\CompuTOP\AppData\Local\Temp\cc4hOfP8.s 			page 29


1573:Drivers/STM32H7xx_HAL_Driver/Src/stm32h7xx_hal_dma.c **** {
1574:Drivers/STM32H7xx_HAL_Driver/Src/stm32h7xx_hal_dma.c **** 
1575:Drivers/STM32H7xx_HAL_Driver/Src/stm32h7xx_hal_dma.c ****   HAL_StatusTypeDef status = HAL_OK;
1576:Drivers/STM32H7xx_HAL_Driver/Src/stm32h7xx_hal_dma.c **** 
1577:Drivers/STM32H7xx_HAL_Driver/Src/stm32h7xx_hal_dma.c ****   /* Check the DMA peripheral handle */
1578:Drivers/STM32H7xx_HAL_Driver/Src/stm32h7xx_hal_dma.c ****   if(hdma == NULL)
1579:Drivers/STM32H7xx_HAL_Driver/Src/stm32h7xx_hal_dma.c ****   {
1580:Drivers/STM32H7xx_HAL_Driver/Src/stm32h7xx_hal_dma.c ****     return HAL_ERROR;
1581:Drivers/STM32H7xx_HAL_Driver/Src/stm32h7xx_hal_dma.c ****   }
1582:Drivers/STM32H7xx_HAL_Driver/Src/stm32h7xx_hal_dma.c **** 
1583:Drivers/STM32H7xx_HAL_Driver/Src/stm32h7xx_hal_dma.c ****   /* Process locked */
1584:Drivers/STM32H7xx_HAL_Driver/Src/stm32h7xx_hal_dma.c ****   __HAL_LOCK(hdma);
1585:Drivers/STM32H7xx_HAL_Driver/Src/stm32h7xx_hal_dma.c **** 
1586:Drivers/STM32H7xx_HAL_Driver/Src/stm32h7xx_hal_dma.c ****   if(HAL_DMA_STATE_READY == hdma->State)
1587:Drivers/STM32H7xx_HAL_Driver/Src/stm32h7xx_hal_dma.c ****   {
1588:Drivers/STM32H7xx_HAL_Driver/Src/stm32h7xx_hal_dma.c ****     switch (CallbackID)
1589:Drivers/STM32H7xx_HAL_Driver/Src/stm32h7xx_hal_dma.c ****     {
1590:Drivers/STM32H7xx_HAL_Driver/Src/stm32h7xx_hal_dma.c ****     case  HAL_DMA_XFER_CPLT_CB_ID:
1591:Drivers/STM32H7xx_HAL_Driver/Src/stm32h7xx_hal_dma.c ****       hdma->XferCpltCallback = pCallback;
1592:Drivers/STM32H7xx_HAL_Driver/Src/stm32h7xx_hal_dma.c ****       break;
1593:Drivers/STM32H7xx_HAL_Driver/Src/stm32h7xx_hal_dma.c **** 
1594:Drivers/STM32H7xx_HAL_Driver/Src/stm32h7xx_hal_dma.c ****     case  HAL_DMA_XFER_HALFCPLT_CB_ID:
1595:Drivers/STM32H7xx_HAL_Driver/Src/stm32h7xx_hal_dma.c ****       hdma->XferHalfCpltCallback = pCallback;
1596:Drivers/STM32H7xx_HAL_Driver/Src/stm32h7xx_hal_dma.c ****       break;
1597:Drivers/STM32H7xx_HAL_Driver/Src/stm32h7xx_hal_dma.c **** 
1598:Drivers/STM32H7xx_HAL_Driver/Src/stm32h7xx_hal_dma.c ****     case  HAL_DMA_XFER_M1CPLT_CB_ID:
1599:Drivers/STM32H7xx_HAL_Driver/Src/stm32h7xx_hal_dma.c ****       hdma->XferM1CpltCallback = pCallback;
1600:Drivers/STM32H7xx_HAL_Driver/Src/stm32h7xx_hal_dma.c ****       break;
1601:Drivers/STM32H7xx_HAL_Driver/Src/stm32h7xx_hal_dma.c **** 
1602:Drivers/STM32H7xx_HAL_Driver/Src/stm32h7xx_hal_dma.c ****     case  HAL_DMA_XFER_M1HALFCPLT_CB_ID:
1603:Drivers/STM32H7xx_HAL_Driver/Src/stm32h7xx_hal_dma.c ****       hdma->XferM1HalfCpltCallback = pCallback;
1604:Drivers/STM32H7xx_HAL_Driver/Src/stm32h7xx_hal_dma.c ****       break;
1605:Drivers/STM32H7xx_HAL_Driver/Src/stm32h7xx_hal_dma.c **** 
1606:Drivers/STM32H7xx_HAL_Driver/Src/stm32h7xx_hal_dma.c ****     case  HAL_DMA_XFER_ERROR_CB_ID:
1607:Drivers/STM32H7xx_HAL_Driver/Src/stm32h7xx_hal_dma.c ****       hdma->XferErrorCallback = pCallback;
1608:Drivers/STM32H7xx_HAL_Driver/Src/stm32h7xx_hal_dma.c ****       break;
1609:Drivers/STM32H7xx_HAL_Driver/Src/stm32h7xx_hal_dma.c **** 
1610:Drivers/STM32H7xx_HAL_Driver/Src/stm32h7xx_hal_dma.c ****     case  HAL_DMA_XFER_ABORT_CB_ID:
1611:Drivers/STM32H7xx_HAL_Driver/Src/stm32h7xx_hal_dma.c ****       hdma->XferAbortCallback = pCallback;
1612:Drivers/STM32H7xx_HAL_Driver/Src/stm32h7xx_hal_dma.c ****       break;
1613:Drivers/STM32H7xx_HAL_Driver/Src/stm32h7xx_hal_dma.c **** 
1614:Drivers/STM32H7xx_HAL_Driver/Src/stm32h7xx_hal_dma.c ****     default:
1615:Drivers/STM32H7xx_HAL_Driver/Src/stm32h7xx_hal_dma.c ****       status =  HAL_ERROR;
1616:Drivers/STM32H7xx_HAL_Driver/Src/stm32h7xx_hal_dma.c ****       break;
1617:Drivers/STM32H7xx_HAL_Driver/Src/stm32h7xx_hal_dma.c ****     }
1618:Drivers/STM32H7xx_HAL_Driver/Src/stm32h7xx_hal_dma.c ****   }
1619:Drivers/STM32H7xx_HAL_Driver/Src/stm32h7xx_hal_dma.c ****   else
1620:Drivers/STM32H7xx_HAL_Driver/Src/stm32h7xx_hal_dma.c ****   {
1621:Drivers/STM32H7xx_HAL_Driver/Src/stm32h7xx_hal_dma.c ****     /* Return error status */
1622:Drivers/STM32H7xx_HAL_Driver/Src/stm32h7xx_hal_dma.c ****     status =  HAL_ERROR;
1623:Drivers/STM32H7xx_HAL_Driver/Src/stm32h7xx_hal_dma.c ****   }
1624:Drivers/STM32H7xx_HAL_Driver/Src/stm32h7xx_hal_dma.c **** 
1625:Drivers/STM32H7xx_HAL_Driver/Src/stm32h7xx_hal_dma.c ****   /* Release Lock */
1626:Drivers/STM32H7xx_HAL_Driver/Src/stm32h7xx_hal_dma.c ****   __HAL_UNLOCK(hdma);
1627:Drivers/STM32H7xx_HAL_Driver/Src/stm32h7xx_hal_dma.c **** 
1628:Drivers/STM32H7xx_HAL_Driver/Src/stm32h7xx_hal_dma.c ****   return status;
1629:Drivers/STM32H7xx_HAL_Driver/Src/stm32h7xx_hal_dma.c **** }
ARM GAS  C:\Users\CompuTOP\AppData\Local\Temp\cc4hOfP8.s 			page 30


1630:Drivers/STM32H7xx_HAL_Driver/Src/stm32h7xx_hal_dma.c **** 
1631:Drivers/STM32H7xx_HAL_Driver/Src/stm32h7xx_hal_dma.c **** /**
1632:Drivers/STM32H7xx_HAL_Driver/Src/stm32h7xx_hal_dma.c ****   * @brief  UnRegister callbacks
1633:Drivers/STM32H7xx_HAL_Driver/Src/stm32h7xx_hal_dma.c ****   * @param  hdma:                 pointer to a DMA_HandleTypeDef structure that contains
1634:Drivers/STM32H7xx_HAL_Driver/Src/stm32h7xx_hal_dma.c ****   *                               the configuration information for the specified DMA Stream.
1635:Drivers/STM32H7xx_HAL_Driver/Src/stm32h7xx_hal_dma.c ****   * @param  CallbackID:           User Callback identifier
1636:Drivers/STM32H7xx_HAL_Driver/Src/stm32h7xx_hal_dma.c ****   *                               a HAL_DMA_CallbackIDTypeDef ENUM as parameter.
1637:Drivers/STM32H7xx_HAL_Driver/Src/stm32h7xx_hal_dma.c ****   * @retval HAL status
1638:Drivers/STM32H7xx_HAL_Driver/Src/stm32h7xx_hal_dma.c ****   */
1639:Drivers/STM32H7xx_HAL_Driver/Src/stm32h7xx_hal_dma.c **** HAL_StatusTypeDef HAL_DMA_UnRegisterCallback(DMA_HandleTypeDef *hdma, HAL_DMA_CallbackIDTypeDef Cal
1640:Drivers/STM32H7xx_HAL_Driver/Src/stm32h7xx_hal_dma.c **** {
1641:Drivers/STM32H7xx_HAL_Driver/Src/stm32h7xx_hal_dma.c ****   HAL_StatusTypeDef status = HAL_OK;
1642:Drivers/STM32H7xx_HAL_Driver/Src/stm32h7xx_hal_dma.c **** 
1643:Drivers/STM32H7xx_HAL_Driver/Src/stm32h7xx_hal_dma.c ****   /* Check the DMA peripheral handle */
1644:Drivers/STM32H7xx_HAL_Driver/Src/stm32h7xx_hal_dma.c ****   if(hdma == NULL)
1645:Drivers/STM32H7xx_HAL_Driver/Src/stm32h7xx_hal_dma.c ****   {
1646:Drivers/STM32H7xx_HAL_Driver/Src/stm32h7xx_hal_dma.c ****     return HAL_ERROR;
1647:Drivers/STM32H7xx_HAL_Driver/Src/stm32h7xx_hal_dma.c ****   }
1648:Drivers/STM32H7xx_HAL_Driver/Src/stm32h7xx_hal_dma.c **** 
1649:Drivers/STM32H7xx_HAL_Driver/Src/stm32h7xx_hal_dma.c ****   /* Process locked */
1650:Drivers/STM32H7xx_HAL_Driver/Src/stm32h7xx_hal_dma.c ****   __HAL_LOCK(hdma);
1651:Drivers/STM32H7xx_HAL_Driver/Src/stm32h7xx_hal_dma.c **** 
1652:Drivers/STM32H7xx_HAL_Driver/Src/stm32h7xx_hal_dma.c ****   if(HAL_DMA_STATE_READY == hdma->State)
1653:Drivers/STM32H7xx_HAL_Driver/Src/stm32h7xx_hal_dma.c ****   {
1654:Drivers/STM32H7xx_HAL_Driver/Src/stm32h7xx_hal_dma.c ****     switch (CallbackID)
1655:Drivers/STM32H7xx_HAL_Driver/Src/stm32h7xx_hal_dma.c ****     {
1656:Drivers/STM32H7xx_HAL_Driver/Src/stm32h7xx_hal_dma.c ****     case  HAL_DMA_XFER_CPLT_CB_ID:
1657:Drivers/STM32H7xx_HAL_Driver/Src/stm32h7xx_hal_dma.c ****       hdma->XferCpltCallback = NULL;
1658:Drivers/STM32H7xx_HAL_Driver/Src/stm32h7xx_hal_dma.c ****       break;
1659:Drivers/STM32H7xx_HAL_Driver/Src/stm32h7xx_hal_dma.c **** 
1660:Drivers/STM32H7xx_HAL_Driver/Src/stm32h7xx_hal_dma.c ****     case  HAL_DMA_XFER_HALFCPLT_CB_ID:
1661:Drivers/STM32H7xx_HAL_Driver/Src/stm32h7xx_hal_dma.c ****       hdma->XferHalfCpltCallback = NULL;
1662:Drivers/STM32H7xx_HAL_Driver/Src/stm32h7xx_hal_dma.c ****       break;
1663:Drivers/STM32H7xx_HAL_Driver/Src/stm32h7xx_hal_dma.c **** 
1664:Drivers/STM32H7xx_HAL_Driver/Src/stm32h7xx_hal_dma.c ****     case  HAL_DMA_XFER_M1CPLT_CB_ID:
1665:Drivers/STM32H7xx_HAL_Driver/Src/stm32h7xx_hal_dma.c ****       hdma->XferM1CpltCallback = NULL;
1666:Drivers/STM32H7xx_HAL_Driver/Src/stm32h7xx_hal_dma.c ****       break;
1667:Drivers/STM32H7xx_HAL_Driver/Src/stm32h7xx_hal_dma.c **** 
1668:Drivers/STM32H7xx_HAL_Driver/Src/stm32h7xx_hal_dma.c ****     case  HAL_DMA_XFER_M1HALFCPLT_CB_ID:
1669:Drivers/STM32H7xx_HAL_Driver/Src/stm32h7xx_hal_dma.c ****       hdma->XferM1HalfCpltCallback = NULL;
1670:Drivers/STM32H7xx_HAL_Driver/Src/stm32h7xx_hal_dma.c ****       break;
1671:Drivers/STM32H7xx_HAL_Driver/Src/stm32h7xx_hal_dma.c **** 
1672:Drivers/STM32H7xx_HAL_Driver/Src/stm32h7xx_hal_dma.c ****     case  HAL_DMA_XFER_ERROR_CB_ID:
1673:Drivers/STM32H7xx_HAL_Driver/Src/stm32h7xx_hal_dma.c ****       hdma->XferErrorCallback = NULL;
1674:Drivers/STM32H7xx_HAL_Driver/Src/stm32h7xx_hal_dma.c ****       break;
1675:Drivers/STM32H7xx_HAL_Driver/Src/stm32h7xx_hal_dma.c **** 
1676:Drivers/STM32H7xx_HAL_Driver/Src/stm32h7xx_hal_dma.c ****     case  HAL_DMA_XFER_ABORT_CB_ID:
1677:Drivers/STM32H7xx_HAL_Driver/Src/stm32h7xx_hal_dma.c ****       hdma->XferAbortCallback = NULL;
1678:Drivers/STM32H7xx_HAL_Driver/Src/stm32h7xx_hal_dma.c ****       break;
1679:Drivers/STM32H7xx_HAL_Driver/Src/stm32h7xx_hal_dma.c **** 
1680:Drivers/STM32H7xx_HAL_Driver/Src/stm32h7xx_hal_dma.c ****     case   HAL_DMA_XFER_ALL_CB_ID:
1681:Drivers/STM32H7xx_HAL_Driver/Src/stm32h7xx_hal_dma.c ****       hdma->XferCpltCallback = NULL;
1682:Drivers/STM32H7xx_HAL_Driver/Src/stm32h7xx_hal_dma.c ****       hdma->XferHalfCpltCallback = NULL;
1683:Drivers/STM32H7xx_HAL_Driver/Src/stm32h7xx_hal_dma.c ****       hdma->XferM1CpltCallback = NULL;
1684:Drivers/STM32H7xx_HAL_Driver/Src/stm32h7xx_hal_dma.c ****       hdma->XferM1HalfCpltCallback = NULL;
1685:Drivers/STM32H7xx_HAL_Driver/Src/stm32h7xx_hal_dma.c ****       hdma->XferErrorCallback = NULL;
1686:Drivers/STM32H7xx_HAL_Driver/Src/stm32h7xx_hal_dma.c ****       hdma->XferAbortCallback = NULL;
ARM GAS  C:\Users\CompuTOP\AppData\Local\Temp\cc4hOfP8.s 			page 31


1687:Drivers/STM32H7xx_HAL_Driver/Src/stm32h7xx_hal_dma.c ****       break;
1688:Drivers/STM32H7xx_HAL_Driver/Src/stm32h7xx_hal_dma.c **** 
1689:Drivers/STM32H7xx_HAL_Driver/Src/stm32h7xx_hal_dma.c ****     default:
1690:Drivers/STM32H7xx_HAL_Driver/Src/stm32h7xx_hal_dma.c ****       status = HAL_ERROR;
1691:Drivers/STM32H7xx_HAL_Driver/Src/stm32h7xx_hal_dma.c ****       break;
1692:Drivers/STM32H7xx_HAL_Driver/Src/stm32h7xx_hal_dma.c ****     }
1693:Drivers/STM32H7xx_HAL_Driver/Src/stm32h7xx_hal_dma.c ****   }
1694:Drivers/STM32H7xx_HAL_Driver/Src/stm32h7xx_hal_dma.c ****   else
1695:Drivers/STM32H7xx_HAL_Driver/Src/stm32h7xx_hal_dma.c ****   {
1696:Drivers/STM32H7xx_HAL_Driver/Src/stm32h7xx_hal_dma.c ****     status = HAL_ERROR;
1697:Drivers/STM32H7xx_HAL_Driver/Src/stm32h7xx_hal_dma.c ****   }
1698:Drivers/STM32H7xx_HAL_Driver/Src/stm32h7xx_hal_dma.c **** 
1699:Drivers/STM32H7xx_HAL_Driver/Src/stm32h7xx_hal_dma.c ****   /* Release Lock */
1700:Drivers/STM32H7xx_HAL_Driver/Src/stm32h7xx_hal_dma.c ****   __HAL_UNLOCK(hdma);
1701:Drivers/STM32H7xx_HAL_Driver/Src/stm32h7xx_hal_dma.c **** 
1702:Drivers/STM32H7xx_HAL_Driver/Src/stm32h7xx_hal_dma.c ****   return status;
1703:Drivers/STM32H7xx_HAL_Driver/Src/stm32h7xx_hal_dma.c **** }
1704:Drivers/STM32H7xx_HAL_Driver/Src/stm32h7xx_hal_dma.c **** 
1705:Drivers/STM32H7xx_HAL_Driver/Src/stm32h7xx_hal_dma.c **** /**
1706:Drivers/STM32H7xx_HAL_Driver/Src/stm32h7xx_hal_dma.c ****   * @}
1707:Drivers/STM32H7xx_HAL_Driver/Src/stm32h7xx_hal_dma.c ****   */
1708:Drivers/STM32H7xx_HAL_Driver/Src/stm32h7xx_hal_dma.c **** 
1709:Drivers/STM32H7xx_HAL_Driver/Src/stm32h7xx_hal_dma.c **** /** @addtogroup DMA_Exported_Functions_Group3
1710:Drivers/STM32H7xx_HAL_Driver/Src/stm32h7xx_hal_dma.c ****   *
1711:Drivers/STM32H7xx_HAL_Driver/Src/stm32h7xx_hal_dma.c **** @verbatim
1712:Drivers/STM32H7xx_HAL_Driver/Src/stm32h7xx_hal_dma.c ****  ===============================================================================
1713:Drivers/STM32H7xx_HAL_Driver/Src/stm32h7xx_hal_dma.c ****                     ##### State and Errors functions #####
1714:Drivers/STM32H7xx_HAL_Driver/Src/stm32h7xx_hal_dma.c ****  ===============================================================================
1715:Drivers/STM32H7xx_HAL_Driver/Src/stm32h7xx_hal_dma.c ****     [..]
1716:Drivers/STM32H7xx_HAL_Driver/Src/stm32h7xx_hal_dma.c ****     This subsection provides functions allowing to
1717:Drivers/STM32H7xx_HAL_Driver/Src/stm32h7xx_hal_dma.c ****       (+) Check the DMA state
1718:Drivers/STM32H7xx_HAL_Driver/Src/stm32h7xx_hal_dma.c ****       (+) Get error code
1719:Drivers/STM32H7xx_HAL_Driver/Src/stm32h7xx_hal_dma.c **** 
1720:Drivers/STM32H7xx_HAL_Driver/Src/stm32h7xx_hal_dma.c **** @endverbatim
1721:Drivers/STM32H7xx_HAL_Driver/Src/stm32h7xx_hal_dma.c ****   * @{
1722:Drivers/STM32H7xx_HAL_Driver/Src/stm32h7xx_hal_dma.c ****   */
1723:Drivers/STM32H7xx_HAL_Driver/Src/stm32h7xx_hal_dma.c **** 
1724:Drivers/STM32H7xx_HAL_Driver/Src/stm32h7xx_hal_dma.c **** /**
1725:Drivers/STM32H7xx_HAL_Driver/Src/stm32h7xx_hal_dma.c ****   * @brief  Returns the DMA state.
1726:Drivers/STM32H7xx_HAL_Driver/Src/stm32h7xx_hal_dma.c ****   * @param  hdma: pointer to a DMA_HandleTypeDef structure that contains
1727:Drivers/STM32H7xx_HAL_Driver/Src/stm32h7xx_hal_dma.c ****   *               the configuration information for the specified DMA Stream.
1728:Drivers/STM32H7xx_HAL_Driver/Src/stm32h7xx_hal_dma.c ****   * @retval HAL state
1729:Drivers/STM32H7xx_HAL_Driver/Src/stm32h7xx_hal_dma.c ****   */
1730:Drivers/STM32H7xx_HAL_Driver/Src/stm32h7xx_hal_dma.c **** HAL_DMA_StateTypeDef HAL_DMA_GetState(DMA_HandleTypeDef *hdma)
1731:Drivers/STM32H7xx_HAL_Driver/Src/stm32h7xx_hal_dma.c **** {
1732:Drivers/STM32H7xx_HAL_Driver/Src/stm32h7xx_hal_dma.c ****   return hdma->State;
1733:Drivers/STM32H7xx_HAL_Driver/Src/stm32h7xx_hal_dma.c **** }
1734:Drivers/STM32H7xx_HAL_Driver/Src/stm32h7xx_hal_dma.c **** 
1735:Drivers/STM32H7xx_HAL_Driver/Src/stm32h7xx_hal_dma.c **** /**
1736:Drivers/STM32H7xx_HAL_Driver/Src/stm32h7xx_hal_dma.c ****   * @brief  Return the DMA error code
1737:Drivers/STM32H7xx_HAL_Driver/Src/stm32h7xx_hal_dma.c ****   * @param  hdma : pointer to a DMA_HandleTypeDef structure that contains
1738:Drivers/STM32H7xx_HAL_Driver/Src/stm32h7xx_hal_dma.c ****   *              the configuration information for the specified DMA Stream.
1739:Drivers/STM32H7xx_HAL_Driver/Src/stm32h7xx_hal_dma.c ****   * @retval DMA Error Code
1740:Drivers/STM32H7xx_HAL_Driver/Src/stm32h7xx_hal_dma.c ****   */
1741:Drivers/STM32H7xx_HAL_Driver/Src/stm32h7xx_hal_dma.c **** uint32_t HAL_DMA_GetError(DMA_HandleTypeDef *hdma)
1742:Drivers/STM32H7xx_HAL_Driver/Src/stm32h7xx_hal_dma.c **** {
1743:Drivers/STM32H7xx_HAL_Driver/Src/stm32h7xx_hal_dma.c ****   return hdma->ErrorCode;
ARM GAS  C:\Users\CompuTOP\AppData\Local\Temp\cc4hOfP8.s 			page 32


1744:Drivers/STM32H7xx_HAL_Driver/Src/stm32h7xx_hal_dma.c **** }
1745:Drivers/STM32H7xx_HAL_Driver/Src/stm32h7xx_hal_dma.c **** 
1746:Drivers/STM32H7xx_HAL_Driver/Src/stm32h7xx_hal_dma.c **** /**
1747:Drivers/STM32H7xx_HAL_Driver/Src/stm32h7xx_hal_dma.c ****   * @}
1748:Drivers/STM32H7xx_HAL_Driver/Src/stm32h7xx_hal_dma.c ****   */
1749:Drivers/STM32H7xx_HAL_Driver/Src/stm32h7xx_hal_dma.c **** 
1750:Drivers/STM32H7xx_HAL_Driver/Src/stm32h7xx_hal_dma.c **** /**
1751:Drivers/STM32H7xx_HAL_Driver/Src/stm32h7xx_hal_dma.c ****   * @}
1752:Drivers/STM32H7xx_HAL_Driver/Src/stm32h7xx_hal_dma.c ****   */
1753:Drivers/STM32H7xx_HAL_Driver/Src/stm32h7xx_hal_dma.c **** 
1754:Drivers/STM32H7xx_HAL_Driver/Src/stm32h7xx_hal_dma.c **** /** @addtogroup DMA_Private_Functions
1755:Drivers/STM32H7xx_HAL_Driver/Src/stm32h7xx_hal_dma.c ****   * @{
1756:Drivers/STM32H7xx_HAL_Driver/Src/stm32h7xx_hal_dma.c ****   */
1757:Drivers/STM32H7xx_HAL_Driver/Src/stm32h7xx_hal_dma.c **** 
1758:Drivers/STM32H7xx_HAL_Driver/Src/stm32h7xx_hal_dma.c **** /**
1759:Drivers/STM32H7xx_HAL_Driver/Src/stm32h7xx_hal_dma.c ****   * @brief  Sets the DMA Transfer parameter.
1760:Drivers/STM32H7xx_HAL_Driver/Src/stm32h7xx_hal_dma.c ****   * @param  hdma:       pointer to a DMA_HandleTypeDef structure that contains
1761:Drivers/STM32H7xx_HAL_Driver/Src/stm32h7xx_hal_dma.c ****   *                     the configuration information for the specified DMA Stream.
1762:Drivers/STM32H7xx_HAL_Driver/Src/stm32h7xx_hal_dma.c ****   * @param  SrcAddress: The source memory Buffer address
1763:Drivers/STM32H7xx_HAL_Driver/Src/stm32h7xx_hal_dma.c ****   * @param  DstAddress: The destination memory Buffer address
1764:Drivers/STM32H7xx_HAL_Driver/Src/stm32h7xx_hal_dma.c ****   * @param  DataLength: The length of data to be transferred from source to destination
1765:Drivers/STM32H7xx_HAL_Driver/Src/stm32h7xx_hal_dma.c ****   * @retval None
1766:Drivers/STM32H7xx_HAL_Driver/Src/stm32h7xx_hal_dma.c ****   */
1767:Drivers/STM32H7xx_HAL_Driver/Src/stm32h7xx_hal_dma.c **** static void DMA_SetConfig(DMA_HandleTypeDef *hdma, uint32_t SrcAddress, uint32_t DstAddress, uint32
1768:Drivers/STM32H7xx_HAL_Driver/Src/stm32h7xx_hal_dma.c **** {
  26              		.loc 1 1768 0
  27              		.cfi_startproc
  28              		@ args = 0, pretend = 0, frame = 0
  29              		@ frame_needed = 0, uses_anonymous_args = 0
  30              	.LVL0:
  31 0000 F0B5     		push	{r4, r5, r6, r7, lr}
  32              	.LCFI0:
  33              		.cfi_def_cfa_offset 20
  34              		.cfi_offset 4, -20
  35              		.cfi_offset 5, -16
  36              		.cfi_offset 6, -12
  37              		.cfi_offset 7, -8
  38              		.cfi_offset 14, -4
1769:Drivers/STM32H7xx_HAL_Driver/Src/stm32h7xx_hal_dma.c ****   /* calculate DMA base and stream number */
1770:Drivers/STM32H7xx_HAL_Driver/Src/stm32h7xx_hal_dma.c ****   DMA_Base_Registers  *regs_dma  = (DMA_Base_Registers *)hdma->StreamBaseAddress;
  39              		.loc 1 1770 0
  40 0002 876D     		ldr	r7, [r0, #88]
  41              	.LVL1:
1771:Drivers/STM32H7xx_HAL_Driver/Src/stm32h7xx_hal_dma.c ****   BDMA_Base_Registers *regs_bdma = (BDMA_Base_Registers *)hdma->StreamBaseAddress;
1772:Drivers/STM32H7xx_HAL_Driver/Src/stm32h7xx_hal_dma.c **** 
1773:Drivers/STM32H7xx_HAL_Driver/Src/stm32h7xx_hal_dma.c ****   if(IS_DMA_DMAMUX_ALL_INSTANCE(hdma->Instance) != 0U) /* No DMAMUX available for BDMA1 */
  42              		.loc 1 1773 0
  43 0004 0468     		ldr	r4, [r0]
  44 0006 964D     		ldr	r5, .L59
  45 0008 964E     		ldr	r6, .L59+4
  46 000a AC42     		cmp	r4, r5
  47 000c 18BF     		it	ne
  48 000e B442     		cmpne	r4, r6
  49 0010 48D0     		beq	.L10
  50              		.loc 1 1773 0 is_stmt 0 discriminator 2
  51 0012 1835     		adds	r5, r5, #24
  52 0014 AC42     		cmp	r4, r5
ARM GAS  C:\Users\CompuTOP\AppData\Local\Temp\cc4hOfP8.s 			page 33


  53 0016 00F08380 		beq	.L11
  54              		.loc 1 1773 0 discriminator 4
  55 001a 1835     		adds	r5, r5, #24
  56 001c AC42     		cmp	r4, r5
  57 001e 00F08180 		beq	.L12
  58              		.loc 1 1773 0 discriminator 6
  59 0022 1835     		adds	r5, r5, #24
  60 0024 AC42     		cmp	r4, r5
  61 0026 7FD0     		beq	.L13
  62              		.loc 1 1773 0 discriminator 8
  63 0028 1835     		adds	r5, r5, #24
  64 002a AC42     		cmp	r4, r5
  65 002c 7ED0     		beq	.L14
  66              		.loc 1 1773 0 discriminator 10
  67 002e 1835     		adds	r5, r5, #24
  68 0030 AC42     		cmp	r4, r5
  69 0032 7DD0     		beq	.L15
  70              		.loc 1 1773 0 discriminator 12
  71 0034 1835     		adds	r5, r5, #24
  72 0036 AC42     		cmp	r4, r5
  73 0038 7CD0     		beq	.L16
  74              		.loc 1 1773 0 discriminator 14
  75 003a 05F55675 		add	r5, r5, #856
  76 003e AC42     		cmp	r4, r5
  77 0040 7AD0     		beq	.L17
  78              		.loc 1 1773 0 discriminator 16
  79 0042 1835     		adds	r5, r5, #24
  80 0044 AC42     		cmp	r4, r5
  81 0046 79D0     		beq	.L18
  82              		.loc 1 1773 0 discriminator 18
  83 0048 1835     		adds	r5, r5, #24
  84 004a AC42     		cmp	r4, r5
  85 004c 78D0     		beq	.L19
  86              		.loc 1 1773 0 discriminator 20
  87 004e 1835     		adds	r5, r5, #24
  88 0050 AC42     		cmp	r4, r5
  89 0052 77D0     		beq	.L20
  90              		.loc 1 1773 0 discriminator 22
  91 0054 1835     		adds	r5, r5, #24
  92 0056 AC42     		cmp	r4, r5
  93 0058 76D0     		beq	.L21
  94              		.loc 1 1773 0 discriminator 24
  95 005a 1835     		adds	r5, r5, #24
  96 005c AC42     		cmp	r4, r5
  97 005e 75D0     		beq	.L22
  98              		.loc 1 1773 0 discriminator 26
  99 0060 1835     		adds	r5, r5, #24
 100 0062 AC42     		cmp	r4, r5
 101 0064 74D0     		beq	.L23
 102              		.loc 1 1773 0 discriminator 28
 103 0066 1835     		adds	r5, r5, #24
 104 0068 AC42     		cmp	r4, r5
 105 006a 73D0     		beq	.L24
 106              		.loc 1 1773 0 discriminator 30
 107 006c 7E4D     		ldr	r5, .L59+8
 108 006e AC42     		cmp	r4, r5
 109 0070 72D0     		beq	.L25
ARM GAS  C:\Users\CompuTOP\AppData\Local\Temp\cc4hOfP8.s 			page 34


 110              		.loc 1 1773 0 discriminator 32
 111 0072 1435     		adds	r5, r5, #20
 112 0074 AC42     		cmp	r4, r5
 113 0076 71D0     		beq	.L26
 114              		.loc 1 1773 0 discriminator 34
 115 0078 1435     		adds	r5, r5, #20
 116 007a AC42     		cmp	r4, r5
 117 007c 70D0     		beq	.L27
 118              		.loc 1 1773 0 discriminator 36
 119 007e 1435     		adds	r5, r5, #20
 120 0080 AC42     		cmp	r4, r5
 121 0082 6FD0     		beq	.L28
 122              		.loc 1 1773 0 discriminator 38
 123 0084 1435     		adds	r5, r5, #20
 124 0086 AC42     		cmp	r4, r5
 125 0088 6ED0     		beq	.L29
 126              		.loc 1 1773 0 discriminator 40
 127 008a 1435     		adds	r5, r5, #20
 128 008c AC42     		cmp	r4, r5
 129 008e 6DD0     		beq	.L30
 130              		.loc 1 1773 0 discriminator 42
 131 0090 1435     		adds	r5, r5, #20
 132 0092 AC42     		cmp	r4, r5
 133 0094 6CD0     		beq	.L31
 134              		.loc 1 1773 0 discriminator 44
 135 0096 1435     		adds	r5, r5, #20
 136 0098 AC42     		cmp	r4, r5
 137 009a 01D0     		beq	.L55
 138              		.loc 1 1773 0
 139 009c 0024     		movs	r4, #0
 140 009e 02E0     		b	.L2
 141              	.L55:
 142 00a0 0124     		movs	r4, #1
 143 00a2 00E0     		b	.L2
 144              	.L10:
 145 00a4 0124     		movs	r4, #1
 146              	.L2:
 147              		.loc 1 1773 0 discriminator 48
 148 00a6 3CB1     		cbz	r4, .L3
1774:Drivers/STM32H7xx_HAL_Driver/Src/stm32h7xx_hal_dma.c ****   {
1775:Drivers/STM32H7xx_HAL_Driver/Src/stm32h7xx_hal_dma.c ****     /* Clear the DMAMUX synchro overrun flag */
1776:Drivers/STM32H7xx_HAL_Driver/Src/stm32h7xx_hal_dma.c ****     hdma->DMAmuxChannelStatus->CFR = hdma->DMAmuxChannelStatusMask;
 149              		.loc 1 1776 0 is_stmt 1
 150 00a8 446E     		ldr	r4, [r0, #100]
 151 00aa 856E     		ldr	r5, [r0, #104]
 152 00ac 6560     		str	r5, [r4, #4]
1777:Drivers/STM32H7xx_HAL_Driver/Src/stm32h7xx_hal_dma.c **** 
1778:Drivers/STM32H7xx_HAL_Driver/Src/stm32h7xx_hal_dma.c ****     if(hdma->DMAmuxRequestGen != 0U)
 153              		.loc 1 1778 0
 154 00ae C46E     		ldr	r4, [r0, #108]
 155 00b0 14B1     		cbz	r4, .L3
1779:Drivers/STM32H7xx_HAL_Driver/Src/stm32h7xx_hal_dma.c ****     {
1780:Drivers/STM32H7xx_HAL_Driver/Src/stm32h7xx_hal_dma.c ****       /* Clear the DMAMUX request generator overrun flag */
1781:Drivers/STM32H7xx_HAL_Driver/Src/stm32h7xx_hal_dma.c ****       hdma->DMAmuxRequestGenStatus->RGCFR = hdma->DMAmuxRequestGenStatusMask;
 156              		.loc 1 1781 0
 157 00b2 046F     		ldr	r4, [r0, #112]
 158 00b4 456F     		ldr	r5, [r0, #116]
ARM GAS  C:\Users\CompuTOP\AppData\Local\Temp\cc4hOfP8.s 			page 35


 159 00b6 6560     		str	r5, [r4, #4]
 160              	.L3:
1782:Drivers/STM32H7xx_HAL_Driver/Src/stm32h7xx_hal_dma.c ****     }
1783:Drivers/STM32H7xx_HAL_Driver/Src/stm32h7xx_hal_dma.c ****   }
1784:Drivers/STM32H7xx_HAL_Driver/Src/stm32h7xx_hal_dma.c **** 
1785:Drivers/STM32H7xx_HAL_Driver/Src/stm32h7xx_hal_dma.c ****   if(IS_DMA_STREAM_INSTANCE(hdma->Instance) != 0U) /* DMA1 or DMA2 instance */
 161              		.loc 1 1785 0
 162 00b8 0468     		ldr	r4, [r0]
 163 00ba 694D     		ldr	r5, .L59
 164 00bc 694E     		ldr	r6, .L59+4
 165 00be AC42     		cmp	r4, r5
 166 00c0 18BF     		it	ne
 167 00c2 B442     		cmpne	r4, r6
 168 00c4 58D0     		beq	.L33
 169              		.loc 1 1785 0 is_stmt 0 discriminator 2
 170 00c6 1835     		adds	r5, r5, #24
 171 00c8 AC42     		cmp	r4, r5
 172 00ca 6DD0     		beq	.L34
 173              		.loc 1 1785 0 discriminator 4
 174 00cc 1835     		adds	r5, r5, #24
 175 00ce AC42     		cmp	r4, r5
 176 00d0 6CD0     		beq	.L35
 177              		.loc 1 1785 0 discriminator 6
 178 00d2 1835     		adds	r5, r5, #24
 179 00d4 AC42     		cmp	r4, r5
 180 00d6 6BD0     		beq	.L36
 181              		.loc 1 1785 0 discriminator 8
 182 00d8 1835     		adds	r5, r5, #24
 183 00da AC42     		cmp	r4, r5
 184 00dc 6AD0     		beq	.L37
 185              		.loc 1 1785 0 discriminator 10
 186 00de 1835     		adds	r5, r5, #24
 187 00e0 AC42     		cmp	r4, r5
 188 00e2 69D0     		beq	.L38
 189              		.loc 1 1785 0 discriminator 12
 190 00e4 1835     		adds	r5, r5, #24
 191 00e6 AC42     		cmp	r4, r5
 192 00e8 68D0     		beq	.L39
 193              		.loc 1 1785 0 discriminator 14
 194 00ea 05F55675 		add	r5, r5, #856
 195 00ee AC42     		cmp	r4, r5
 196 00f0 66D0     		beq	.L40
 197              		.loc 1 1785 0 discriminator 16
 198 00f2 1835     		adds	r5, r5, #24
 199 00f4 AC42     		cmp	r4, r5
 200 00f6 65D0     		beq	.L41
 201              		.loc 1 1785 0 discriminator 18
 202 00f8 1835     		adds	r5, r5, #24
 203 00fa AC42     		cmp	r4, r5
 204 00fc 64D0     		beq	.L42
 205              		.loc 1 1785 0 discriminator 20
 206 00fe 1835     		adds	r5, r5, #24
 207 0100 AC42     		cmp	r4, r5
 208 0102 63D0     		beq	.L43
 209              		.loc 1 1785 0 discriminator 22
 210 0104 1835     		adds	r5, r5, #24
 211 0106 AC42     		cmp	r4, r5
ARM GAS  C:\Users\CompuTOP\AppData\Local\Temp\cc4hOfP8.s 			page 36


 212 0108 62D0     		beq	.L44
 213              		.loc 1 1785 0 discriminator 24
 214 010a 1835     		adds	r5, r5, #24
 215 010c AC42     		cmp	r4, r5
 216 010e 61D0     		beq	.L45
 217              		.loc 1 1785 0 discriminator 26
 218 0110 1835     		adds	r5, r5, #24
 219 0112 AC42     		cmp	r4, r5
 220 0114 60D0     		beq	.L46
 221              		.loc 1 1785 0 discriminator 28
 222 0116 1835     		adds	r5, r5, #24
 223 0118 AC42     		cmp	r4, r5
 224 011a 2BD0     		beq	.L56
 225              		.loc 1 1785 0
 226 011c 0025     		movs	r5, #0
 227 011e 2CE0     		b	.L4
 228              	.L11:
1773:Drivers/STM32H7xx_HAL_Driver/Src/stm32h7xx_hal_dma.c ****   {
 229              		.loc 1 1773 0 is_stmt 1
 230 0120 0124     		movs	r4, #1
 231 0122 C0E7     		b	.L2
 232              	.L12:
 233 0124 0124     		movs	r4, #1
 234 0126 BEE7     		b	.L2
 235              	.L13:
 236 0128 0124     		movs	r4, #1
 237 012a BCE7     		b	.L2
 238              	.L14:
 239 012c 0124     		movs	r4, #1
 240 012e BAE7     		b	.L2
 241              	.L15:
 242 0130 0124     		movs	r4, #1
 243 0132 B8E7     		b	.L2
 244              	.L16:
 245 0134 0124     		movs	r4, #1
 246 0136 B6E7     		b	.L2
 247              	.L17:
 248 0138 0124     		movs	r4, #1
 249 013a B4E7     		b	.L2
 250              	.L18:
 251 013c 0124     		movs	r4, #1
 252 013e B2E7     		b	.L2
 253              	.L19:
 254 0140 0124     		movs	r4, #1
 255 0142 B0E7     		b	.L2
 256              	.L20:
 257 0144 0124     		movs	r4, #1
 258 0146 AEE7     		b	.L2
 259              	.L21:
 260 0148 0124     		movs	r4, #1
 261 014a ACE7     		b	.L2
 262              	.L22:
 263 014c 0124     		movs	r4, #1
 264 014e AAE7     		b	.L2
 265              	.L23:
 266 0150 0124     		movs	r4, #1
 267 0152 A8E7     		b	.L2
ARM GAS  C:\Users\CompuTOP\AppData\Local\Temp\cc4hOfP8.s 			page 37


 268              	.L24:
 269 0154 0124     		movs	r4, #1
 270 0156 A6E7     		b	.L2
 271              	.L25:
 272 0158 0124     		movs	r4, #1
 273 015a A4E7     		b	.L2
 274              	.L26:
 275 015c 0124     		movs	r4, #1
 276 015e A2E7     		b	.L2
 277              	.L27:
 278 0160 0124     		movs	r4, #1
 279 0162 A0E7     		b	.L2
 280              	.L28:
 281 0164 0124     		movs	r4, #1
 282 0166 9EE7     		b	.L2
 283              	.L29:
 284 0168 0124     		movs	r4, #1
 285 016a 9CE7     		b	.L2
 286              	.L30:
 287 016c 0124     		movs	r4, #1
 288 016e 9AE7     		b	.L2
 289              	.L31:
 290 0170 0124     		movs	r4, #1
 291 0172 98E7     		b	.L2
 292              	.L56:
 293              		.loc 1 1785 0
 294 0174 0125     		movs	r5, #1
 295 0176 00E0     		b	.L4
 296              	.L33:
 297 0178 0125     		movs	r5, #1
 298              	.L4:
 299              		.loc 1 1785 0 is_stmt 0 discriminator 32
 300 017a 002D     		cmp	r5, #0
 301 017c 33D0     		beq	.L5
1786:Drivers/STM32H7xx_HAL_Driver/Src/stm32h7xx_hal_dma.c ****   {
1787:Drivers/STM32H7xx_HAL_Driver/Src/stm32h7xx_hal_dma.c ****     /* Clear all interrupt flags at correct offset within the register */
1788:Drivers/STM32H7xx_HAL_Driver/Src/stm32h7xx_hal_dma.c ****     regs_dma->IFCR = 0x3FUL << (hdma->StreamIndex & 0x1FU);
 302              		.loc 1 1788 0 is_stmt 1
 303 017e C46D     		ldr	r4, [r0, #92]
 304 0180 04F01F05 		and	r5, r4, #31
 305 0184 3F24     		movs	r4, #63
 306 0186 AC40     		lsls	r4, r4, r5
 307 0188 BC60     		str	r4, [r7, #8]
1789:Drivers/STM32H7xx_HAL_Driver/Src/stm32h7xx_hal_dma.c **** 
1790:Drivers/STM32H7xx_HAL_Driver/Src/stm32h7xx_hal_dma.c ****     /* Clear DBM bit */
1791:Drivers/STM32H7xx_HAL_Driver/Src/stm32h7xx_hal_dma.c ****     ((DMA_Stream_TypeDef *)hdma->Instance)->CR &= (uint32_t)(~DMA_SxCR_DBM);
 308              		.loc 1 1791 0
 309 018a 0568     		ldr	r5, [r0]
 310 018c 2C68     		ldr	r4, [r5]
 311 018e 24F48024 		bic	r4, r4, #262144
 312 0192 2C60     		str	r4, [r5]
1792:Drivers/STM32H7xx_HAL_Driver/Src/stm32h7xx_hal_dma.c **** 
1793:Drivers/STM32H7xx_HAL_Driver/Src/stm32h7xx_hal_dma.c ****     /* Configure DMA Stream data length */
1794:Drivers/STM32H7xx_HAL_Driver/Src/stm32h7xx_hal_dma.c ****     ((DMA_Stream_TypeDef *)hdma->Instance)->NDTR = DataLength;
 313              		.loc 1 1794 0
 314 0194 0468     		ldr	r4, [r0]
 315 0196 6360     		str	r3, [r4, #4]
ARM GAS  C:\Users\CompuTOP\AppData\Local\Temp\cc4hOfP8.s 			page 38


1795:Drivers/STM32H7xx_HAL_Driver/Src/stm32h7xx_hal_dma.c **** 
1796:Drivers/STM32H7xx_HAL_Driver/Src/stm32h7xx_hal_dma.c ****     /* Peripheral to Memory */
1797:Drivers/STM32H7xx_HAL_Driver/Src/stm32h7xx_hal_dma.c ****     if((hdma->Init.Direction) == DMA_MEMORY_TO_PERIPH)
 316              		.loc 1 1797 0
 317 0198 8368     		ldr	r3, [r0, #8]
 318              	.LVL2:
 319 019a 402B     		cmp	r3, #64
 320 019c 1ED0     		beq	.L57
1798:Drivers/STM32H7xx_HAL_Driver/Src/stm32h7xx_hal_dma.c ****     {
1799:Drivers/STM32H7xx_HAL_Driver/Src/stm32h7xx_hal_dma.c ****       /* Configure DMA Stream destination address */
1800:Drivers/STM32H7xx_HAL_Driver/Src/stm32h7xx_hal_dma.c ****       ((DMA_Stream_TypeDef *)hdma->Instance)->PAR = DstAddress;
1801:Drivers/STM32H7xx_HAL_Driver/Src/stm32h7xx_hal_dma.c **** 
1802:Drivers/STM32H7xx_HAL_Driver/Src/stm32h7xx_hal_dma.c ****       /* Configure DMA Stream source address */
1803:Drivers/STM32H7xx_HAL_Driver/Src/stm32h7xx_hal_dma.c ****       ((DMA_Stream_TypeDef *)hdma->Instance)->M0AR = SrcAddress;
1804:Drivers/STM32H7xx_HAL_Driver/Src/stm32h7xx_hal_dma.c ****     }
1805:Drivers/STM32H7xx_HAL_Driver/Src/stm32h7xx_hal_dma.c ****     /* Memory to Peripheral */
1806:Drivers/STM32H7xx_HAL_Driver/Src/stm32h7xx_hal_dma.c ****     else
1807:Drivers/STM32H7xx_HAL_Driver/Src/stm32h7xx_hal_dma.c ****     {
1808:Drivers/STM32H7xx_HAL_Driver/Src/stm32h7xx_hal_dma.c ****       /* Configure DMA Stream source address */
1809:Drivers/STM32H7xx_HAL_Driver/Src/stm32h7xx_hal_dma.c ****       ((DMA_Stream_TypeDef *)hdma->Instance)->PAR = SrcAddress;
 321              		.loc 1 1809 0
 322 019e 0368     		ldr	r3, [r0]
 323 01a0 9960     		str	r1, [r3, #8]
 324              	.LVL3:
1810:Drivers/STM32H7xx_HAL_Driver/Src/stm32h7xx_hal_dma.c **** 
1811:Drivers/STM32H7xx_HAL_Driver/Src/stm32h7xx_hal_dma.c ****       /* Configure DMA Stream destination address */
1812:Drivers/STM32H7xx_HAL_Driver/Src/stm32h7xx_hal_dma.c ****       ((DMA_Stream_TypeDef *)hdma->Instance)->M0AR = DstAddress;
 325              		.loc 1 1812 0
 326 01a2 0368     		ldr	r3, [r0]
 327 01a4 DA60     		str	r2, [r3, #12]
 328 01a6 F0BD     		pop	{r4, r5, r6, r7, pc}
 329              	.LVL4:
 330              	.L34:
1785:Drivers/STM32H7xx_HAL_Driver/Src/stm32h7xx_hal_dma.c ****   {
 331              		.loc 1 1785 0
 332 01a8 0125     		movs	r5, #1
 333 01aa E6E7     		b	.L4
 334              	.L35:
 335 01ac 0125     		movs	r5, #1
 336 01ae E4E7     		b	.L4
 337              	.L36:
 338 01b0 0125     		movs	r5, #1
 339 01b2 E2E7     		b	.L4
 340              	.L37:
 341 01b4 0125     		movs	r5, #1
 342 01b6 E0E7     		b	.L4
 343              	.L38:
 344 01b8 0125     		movs	r5, #1
 345 01ba DEE7     		b	.L4
 346              	.L39:
 347 01bc 0125     		movs	r5, #1
 348 01be DCE7     		b	.L4
 349              	.L40:
 350 01c0 0125     		movs	r5, #1
 351 01c2 DAE7     		b	.L4
 352              	.L41:
 353 01c4 0125     		movs	r5, #1
ARM GAS  C:\Users\CompuTOP\AppData\Local\Temp\cc4hOfP8.s 			page 39


 354 01c6 D8E7     		b	.L4
 355              	.L42:
 356 01c8 0125     		movs	r5, #1
 357 01ca D6E7     		b	.L4
 358              	.L43:
 359 01cc 0125     		movs	r5, #1
 360 01ce D4E7     		b	.L4
 361              	.L44:
 362 01d0 0125     		movs	r5, #1
 363 01d2 D2E7     		b	.L4
 364              	.L45:
 365 01d4 0125     		movs	r5, #1
 366 01d6 D0E7     		b	.L4
 367              	.L46:
 368 01d8 0125     		movs	r5, #1
 369 01da CEE7     		b	.L4
 370              	.LVL5:
 371              	.L57:
1800:Drivers/STM32H7xx_HAL_Driver/Src/stm32h7xx_hal_dma.c **** 
 372              		.loc 1 1800 0
 373 01dc 0368     		ldr	r3, [r0]
 374 01de 9A60     		str	r2, [r3, #8]
 375              	.LVL6:
1803:Drivers/STM32H7xx_HAL_Driver/Src/stm32h7xx_hal_dma.c ****     }
 376              		.loc 1 1803 0
 377 01e0 0368     		ldr	r3, [r0]
 378 01e2 D960     		str	r1, [r3, #12]
 379 01e4 F0BD     		pop	{r4, r5, r6, r7, pc}
 380              	.LVL7:
 381              	.L5:
1813:Drivers/STM32H7xx_HAL_Driver/Src/stm32h7xx_hal_dma.c ****     }
1814:Drivers/STM32H7xx_HAL_Driver/Src/stm32h7xx_hal_dma.c ****   }
1815:Drivers/STM32H7xx_HAL_Driver/Src/stm32h7xx_hal_dma.c ****   else if(IS_BDMA_CHANNEL_INSTANCE(hdma->Instance) != 0U) /* BDMA instance(s) */
 382              		.loc 1 1815 0
 383 01e6 214E     		ldr	r6, .L59+12
 384 01e8 DFF87CE0 		ldr	lr, .L59+8
 385 01ec B442     		cmp	r4, r6
 386 01ee 18BF     		it	ne
 387 01f0 7445     		cmpne	r4, lr
 388 01f2 13D0     		beq	.L48
 389              		.loc 1 1815 0 is_stmt 0 discriminator 2
 390 01f4 1436     		adds	r6, r6, #20
 391 01f6 B442     		cmp	r4, r6
 392 01f8 22D0     		beq	.L49
 393              		.loc 1 1815 0 discriminator 4
 394 01fa 1436     		adds	r6, r6, #20
 395 01fc B442     		cmp	r4, r6
 396 01fe 21D0     		beq	.L50
 397              		.loc 1 1815 0 discriminator 6
 398 0200 1436     		adds	r6, r6, #20
 399 0202 B442     		cmp	r4, r6
 400 0204 20D0     		beq	.L51
 401              		.loc 1 1815 0 discriminator 8
 402 0206 1436     		adds	r6, r6, #20
 403 0208 B442     		cmp	r4, r6
 404 020a 1FD0     		beq	.L52
 405              		.loc 1 1815 0 discriminator 10
ARM GAS  C:\Users\CompuTOP\AppData\Local\Temp\cc4hOfP8.s 			page 40


 406 020c 1436     		adds	r6, r6, #20
 407 020e B442     		cmp	r4, r6
 408 0210 1ED0     		beq	.L53
 409              		.loc 1 1815 0 discriminator 12
 410 0212 1436     		adds	r6, r6, #20
 411 0214 B442     		cmp	r4, r6
 412 0216 02D1     		bne	.L8
 413              		.loc 1 1815 0
 414 0218 0125     		movs	r5, #1
 415 021a 00E0     		b	.L8
 416              	.L48:
 417 021c 0125     		movs	r5, #1
 418              	.L8:
 419              		.loc 1 1815 0 discriminator 16
 420 021e 75B1     		cbz	r5, .L1
1816:Drivers/STM32H7xx_HAL_Driver/Src/stm32h7xx_hal_dma.c ****   {
1817:Drivers/STM32H7xx_HAL_Driver/Src/stm32h7xx_hal_dma.c ****     /* Clear all flags */
1818:Drivers/STM32H7xx_HAL_Driver/Src/stm32h7xx_hal_dma.c ****     regs_bdma->IFCR = (BDMA_ISR_GIF0) << (hdma->StreamIndex & 0x1FU);
 421              		.loc 1 1818 0 is_stmt 1
 422 0220 C46D     		ldr	r4, [r0, #92]
 423 0222 04F01F05 		and	r5, r4, #31
 424 0226 0124     		movs	r4, #1
 425 0228 AC40     		lsls	r4, r4, r5
 426 022a 7C60     		str	r4, [r7, #4]
1819:Drivers/STM32H7xx_HAL_Driver/Src/stm32h7xx_hal_dma.c **** 
1820:Drivers/STM32H7xx_HAL_Driver/Src/stm32h7xx_hal_dma.c ****     /* Configure DMA Channel data length */
1821:Drivers/STM32H7xx_HAL_Driver/Src/stm32h7xx_hal_dma.c ****     ((BDMA_Channel_TypeDef *)hdma->Instance)->CNDTR = DataLength;
 427              		.loc 1 1821 0
 428 022c 0468     		ldr	r4, [r0]
 429 022e 6360     		str	r3, [r4, #4]
1822:Drivers/STM32H7xx_HAL_Driver/Src/stm32h7xx_hal_dma.c **** 
1823:Drivers/STM32H7xx_HAL_Driver/Src/stm32h7xx_hal_dma.c ****     /* Peripheral to Memory */
1824:Drivers/STM32H7xx_HAL_Driver/Src/stm32h7xx_hal_dma.c ****     if((hdma->Init.Direction) == DMA_MEMORY_TO_PERIPH)
 430              		.loc 1 1824 0
 431 0230 8368     		ldr	r3, [r0, #8]
 432              	.LVL8:
 433 0232 402B     		cmp	r3, #64
 434 0234 0ED0     		beq	.L58
1825:Drivers/STM32H7xx_HAL_Driver/Src/stm32h7xx_hal_dma.c ****     {
1826:Drivers/STM32H7xx_HAL_Driver/Src/stm32h7xx_hal_dma.c ****       /* Configure DMA Channel destination address */
1827:Drivers/STM32H7xx_HAL_Driver/Src/stm32h7xx_hal_dma.c ****       ((BDMA_Channel_TypeDef *)hdma->Instance)->CPAR = DstAddress;
1828:Drivers/STM32H7xx_HAL_Driver/Src/stm32h7xx_hal_dma.c **** 
1829:Drivers/STM32H7xx_HAL_Driver/Src/stm32h7xx_hal_dma.c ****       /* Configure DMA Channel source address */
1830:Drivers/STM32H7xx_HAL_Driver/Src/stm32h7xx_hal_dma.c ****       ((BDMA_Channel_TypeDef *)hdma->Instance)->CM0AR = SrcAddress;
1831:Drivers/STM32H7xx_HAL_Driver/Src/stm32h7xx_hal_dma.c ****     }
1832:Drivers/STM32H7xx_HAL_Driver/Src/stm32h7xx_hal_dma.c ****     /* Memory to Peripheral */
1833:Drivers/STM32H7xx_HAL_Driver/Src/stm32h7xx_hal_dma.c ****     else
1834:Drivers/STM32H7xx_HAL_Driver/Src/stm32h7xx_hal_dma.c ****     {
1835:Drivers/STM32H7xx_HAL_Driver/Src/stm32h7xx_hal_dma.c ****       /* Configure DMA Channel source address */
1836:Drivers/STM32H7xx_HAL_Driver/Src/stm32h7xx_hal_dma.c ****       ((BDMA_Channel_TypeDef *)hdma->Instance)->CPAR = SrcAddress;
 435              		.loc 1 1836 0
 436 0236 0368     		ldr	r3, [r0]
 437 0238 9960     		str	r1, [r3, #8]
 438              	.LVL9:
1837:Drivers/STM32H7xx_HAL_Driver/Src/stm32h7xx_hal_dma.c **** 
1838:Drivers/STM32H7xx_HAL_Driver/Src/stm32h7xx_hal_dma.c ****       /* Configure DMA Channel destination address */
1839:Drivers/STM32H7xx_HAL_Driver/Src/stm32h7xx_hal_dma.c ****       ((BDMA_Channel_TypeDef *)hdma->Instance)->CM0AR = DstAddress;
ARM GAS  C:\Users\CompuTOP\AppData\Local\Temp\cc4hOfP8.s 			page 41


 439              		.loc 1 1839 0
 440 023a 0368     		ldr	r3, [r0]
 441 023c DA60     		str	r2, [r3, #12]
 442              	.L1:
 443 023e F0BD     		pop	{r4, r5, r6, r7, pc}
 444              	.LVL10:
 445              	.L49:
1815:Drivers/STM32H7xx_HAL_Driver/Src/stm32h7xx_hal_dma.c ****   {
 446              		.loc 1 1815 0
 447 0240 0125     		movs	r5, #1
 448 0242 ECE7     		b	.L8
 449              	.L50:
 450 0244 0125     		movs	r5, #1
 451 0246 EAE7     		b	.L8
 452              	.L51:
 453 0248 0125     		movs	r5, #1
 454 024a E8E7     		b	.L8
 455              	.L52:
 456 024c 0125     		movs	r5, #1
 457 024e E6E7     		b	.L8
 458              	.L53:
 459 0250 0125     		movs	r5, #1
 460 0252 E4E7     		b	.L8
 461              	.LVL11:
 462              	.L58:
1827:Drivers/STM32H7xx_HAL_Driver/Src/stm32h7xx_hal_dma.c **** 
 463              		.loc 1 1827 0
 464 0254 0368     		ldr	r3, [r0]
 465 0256 9A60     		str	r2, [r3, #8]
 466              	.LVL12:
1830:Drivers/STM32H7xx_HAL_Driver/Src/stm32h7xx_hal_dma.c ****     }
 467              		.loc 1 1830 0
 468 0258 0368     		ldr	r3, [r0]
 469 025a D960     		str	r1, [r3, #12]
 470 025c F0BD     		pop	{r4, r5, r6, r7, pc}
 471              	.LVL13:
 472              	.L60:
 473 025e 00BF     		.align	2
 474              	.L59:
 475 0260 28000240 		.word	1073872936
 476 0264 10000240 		.word	1073872912
 477 0268 08540258 		.word	1476547592
 478 026c 1C540258 		.word	1476547612
 479              		.cfi_endproc
 480              	.LFE156:
 482              		.section	.text.DMA_CalcBaseAndBitshift,"ax",%progbits
 483              		.align	1
 484              		.syntax unified
 485              		.thumb
 486              		.thumb_func
 487              		.fpu fpv5-d16
 489              	DMA_CalcBaseAndBitshift:
 490              	.LFB157:
1840:Drivers/STM32H7xx_HAL_Driver/Src/stm32h7xx_hal_dma.c ****     }
1841:Drivers/STM32H7xx_HAL_Driver/Src/stm32h7xx_hal_dma.c ****   }
1842:Drivers/STM32H7xx_HAL_Driver/Src/stm32h7xx_hal_dma.c ****   else
1843:Drivers/STM32H7xx_HAL_Driver/Src/stm32h7xx_hal_dma.c ****   {
ARM GAS  C:\Users\CompuTOP\AppData\Local\Temp\cc4hOfP8.s 			page 42


1844:Drivers/STM32H7xx_HAL_Driver/Src/stm32h7xx_hal_dma.c ****     /* Nothing To Do */
1845:Drivers/STM32H7xx_HAL_Driver/Src/stm32h7xx_hal_dma.c ****   }
1846:Drivers/STM32H7xx_HAL_Driver/Src/stm32h7xx_hal_dma.c **** }
1847:Drivers/STM32H7xx_HAL_Driver/Src/stm32h7xx_hal_dma.c **** 
1848:Drivers/STM32H7xx_HAL_Driver/Src/stm32h7xx_hal_dma.c **** /**
1849:Drivers/STM32H7xx_HAL_Driver/Src/stm32h7xx_hal_dma.c ****   * @brief  Returns the DMA Stream base address depending on stream number
1850:Drivers/STM32H7xx_HAL_Driver/Src/stm32h7xx_hal_dma.c ****   * @param  hdma:       pointer to a DMA_HandleTypeDef structure that contains
1851:Drivers/STM32H7xx_HAL_Driver/Src/stm32h7xx_hal_dma.c ****   *                     the configuration information for the specified DMA Stream.
1852:Drivers/STM32H7xx_HAL_Driver/Src/stm32h7xx_hal_dma.c ****   * @retval Stream base address
1853:Drivers/STM32H7xx_HAL_Driver/Src/stm32h7xx_hal_dma.c ****   */
1854:Drivers/STM32H7xx_HAL_Driver/Src/stm32h7xx_hal_dma.c **** static uint32_t DMA_CalcBaseAndBitshift(DMA_HandleTypeDef *hdma)
1855:Drivers/STM32H7xx_HAL_Driver/Src/stm32h7xx_hal_dma.c **** {
 491              		.loc 1 1855 0
 492              		.cfi_startproc
 493              		@ args = 0, pretend = 0, frame = 0
 494              		@ frame_needed = 0, uses_anonymous_args = 0
 495              		@ link register save eliminated.
 496              	.LVL14:
1856:Drivers/STM32H7xx_HAL_Driver/Src/stm32h7xx_hal_dma.c ****   if(IS_DMA_STREAM_INSTANCE(hdma->Instance) != 0U) /* DMA1 or DMA2 instance */
 497              		.loc 1 1856 0
 498 0000 0368     		ldr	r3, [r0]
 499 0002 384A     		ldr	r2, .L86
 500 0004 3849     		ldr	r1, .L86+4
 501 0006 9342     		cmp	r3, r2
 502 0008 18BF     		it	ne
 503 000a 8B42     		cmpne	r3, r1
 504 000c 2ED0     		beq	.L66
 505              		.loc 1 1856 0 is_stmt 0 discriminator 2
 506 000e 1832     		adds	r2, r2, #24
 507 0010 9342     		cmp	r3, r2
 508 0012 43D0     		beq	.L67
 509              		.loc 1 1856 0 discriminator 4
 510 0014 1832     		adds	r2, r2, #24
 511 0016 9342     		cmp	r3, r2
 512 0018 42D0     		beq	.L68
 513              		.loc 1 1856 0 discriminator 6
 514 001a 1832     		adds	r2, r2, #24
 515 001c 9342     		cmp	r3, r2
 516 001e 41D0     		beq	.L69
 517              		.loc 1 1856 0 discriminator 8
 518 0020 1832     		adds	r2, r2, #24
 519 0022 9342     		cmp	r3, r2
 520 0024 40D0     		beq	.L70
 521              		.loc 1 1856 0 discriminator 10
 522 0026 1832     		adds	r2, r2, #24
 523 0028 9342     		cmp	r3, r2
 524 002a 3FD0     		beq	.L71
 525              		.loc 1 1856 0 discriminator 12
 526 002c 1832     		adds	r2, r2, #24
 527 002e 9342     		cmp	r3, r2
 528 0030 3ED0     		beq	.L72
 529              		.loc 1 1856 0 discriminator 14
 530 0032 02F55672 		add	r2, r2, #856
 531 0036 9342     		cmp	r3, r2
 532 0038 3CD0     		beq	.L73
 533              		.loc 1 1856 0 discriminator 16
 534 003a 1832     		adds	r2, r2, #24
ARM GAS  C:\Users\CompuTOP\AppData\Local\Temp\cc4hOfP8.s 			page 43


 535 003c 9342     		cmp	r3, r2
 536 003e 3BD0     		beq	.L74
 537              		.loc 1 1856 0 discriminator 18
 538 0040 1832     		adds	r2, r2, #24
 539 0042 9342     		cmp	r3, r2
 540 0044 3AD0     		beq	.L75
 541              		.loc 1 1856 0 discriminator 20
 542 0046 1832     		adds	r2, r2, #24
 543 0048 9342     		cmp	r3, r2
 544 004a 39D0     		beq	.L76
 545              		.loc 1 1856 0 discriminator 22
 546 004c 1832     		adds	r2, r2, #24
 547 004e 9342     		cmp	r3, r2
 548 0050 38D0     		beq	.L77
 549              		.loc 1 1856 0 discriminator 24
 550 0052 1832     		adds	r2, r2, #24
 551 0054 9342     		cmp	r3, r2
 552 0056 37D0     		beq	.L78
 553              		.loc 1 1856 0 discriminator 26
 554 0058 1832     		adds	r2, r2, #24
 555 005a 9342     		cmp	r3, r2
 556 005c 36D0     		beq	.L79
 557              		.loc 1 1856 0 discriminator 28
 558 005e 1832     		adds	r2, r2, #24
 559 0060 9342     		cmp	r3, r2
 560 0062 01D0     		beq	.L85
 561              		.loc 1 1856 0
 562 0064 0022     		movs	r2, #0
 563 0066 02E0     		b	.L62
 564              	.L85:
 565 0068 0122     		movs	r2, #1
 566 006a 00E0     		b	.L62
 567              	.L66:
 568 006c 0122     		movs	r2, #1
 569              	.L62:
 570              		.loc 1 1856 0 discriminator 32
 571 006e 9AB3     		cbz	r2, .L63
1855:Drivers/STM32H7xx_HAL_Driver/Src/stm32h7xx_hal_dma.c ****   if(IS_DMA_STREAM_INSTANCE(hdma->Instance) != 0U) /* DMA1 or DMA2 instance */
 572              		.loc 1 1855 0 is_stmt 1
 573 0070 10B4     		push	{r4}
 574              	.LCFI1:
 575              		.cfi_def_cfa_offset 4
 576              		.cfi_offset 4, -4
 577              	.LBB2:
1857:Drivers/STM32H7xx_HAL_Driver/Src/stm32h7xx_hal_dma.c ****   {
1858:Drivers/STM32H7xx_HAL_Driver/Src/stm32h7xx_hal_dma.c ****     uint32_t stream_number = (((uint32_t)((uint32_t*)hdma->Instance) & 0xFFU) - 16U) / 24U;
 578              		.loc 1 1858 0
 579 0072 DAB2     		uxtb	r2, r3
 580 0074 103A     		subs	r2, r2, #16
 581 0076 1D49     		ldr	r1, .L86+8
 582 0078 A1FB0212 		umull	r1, r2, r1, r2
 583 007c 1209     		lsrs	r2, r2, #4
 584              	.LVL15:
1859:Drivers/STM32H7xx_HAL_Driver/Src/stm32h7xx_hal_dma.c **** 
1860:Drivers/STM32H7xx_HAL_Driver/Src/stm32h7xx_hal_dma.c ****     /* lookup table for necessary bitshift of flags within status registers */
1861:Drivers/STM32H7xx_HAL_Driver/Src/stm32h7xx_hal_dma.c ****     static const uint8_t flagBitshiftOffset[8U] = {0U, 6U, 16U, 22U, 0U, 6U, 16U, 22U};
1862:Drivers/STM32H7xx_HAL_Driver/Src/stm32h7xx_hal_dma.c ****     hdma->StreamIndex = flagBitshiftOffset[stream_number & 0x7U];
ARM GAS  C:\Users\CompuTOP\AppData\Local\Temp\cc4hOfP8.s 			page 44


 585              		.loc 1 1862 0
 586 007e 02F00701 		and	r1, r2, #7
 587 0082 1B4C     		ldr	r4, .L86+12
 588 0084 615C     		ldrb	r1, [r4, r1]	@ zero_extendqisi2
 589 0086 C165     		str	r1, [r0, #92]
1863:Drivers/STM32H7xx_HAL_Driver/Src/stm32h7xx_hal_dma.c **** 
1864:Drivers/STM32H7xx_HAL_Driver/Src/stm32h7xx_hal_dma.c ****     if (stream_number > 3U)
 590              		.loc 1 1864 0
 591 0088 032A     		cmp	r2, #3
 592 008a 21D9     		bls	.L64
1865:Drivers/STM32H7xx_HAL_Driver/Src/stm32h7xx_hal_dma.c ****     {
1866:Drivers/STM32H7xx_HAL_Driver/Src/stm32h7xx_hal_dma.c ****       /* return pointer to HISR and HIFCR */
1867:Drivers/STM32H7xx_HAL_Driver/Src/stm32h7xx_hal_dma.c ****       hdma->StreamBaseAddress = (((uint32_t)((uint32_t*)hdma->Instance) & (uint32_t)(~0x3FFU)) + 4U
 593              		.loc 1 1867 0
 594 008c 194A     		ldr	r2, .L86+16
 595              	.LVL16:
 596 008e 1A40     		ands	r2, r2, r3
 597 0090 0432     		adds	r2, r2, #4
 598 0092 8265     		str	r2, [r0, #88]
 599              	.L65:
 600              	.LBE2:
1868:Drivers/STM32H7xx_HAL_Driver/Src/stm32h7xx_hal_dma.c ****     }
1869:Drivers/STM32H7xx_HAL_Driver/Src/stm32h7xx_hal_dma.c ****     else
1870:Drivers/STM32H7xx_HAL_Driver/Src/stm32h7xx_hal_dma.c ****     {
1871:Drivers/STM32H7xx_HAL_Driver/Src/stm32h7xx_hal_dma.c ****       /* return pointer to LISR and LIFCR */
1872:Drivers/STM32H7xx_HAL_Driver/Src/stm32h7xx_hal_dma.c ****       hdma->StreamBaseAddress = ((uint32_t)((uint32_t*)hdma->Instance) & (uint32_t)(~0x3FFU));
1873:Drivers/STM32H7xx_HAL_Driver/Src/stm32h7xx_hal_dma.c ****     }
1874:Drivers/STM32H7xx_HAL_Driver/Src/stm32h7xx_hal_dma.c ****   }
1875:Drivers/STM32H7xx_HAL_Driver/Src/stm32h7xx_hal_dma.c ****   else /* BDMA instance(s) */
1876:Drivers/STM32H7xx_HAL_Driver/Src/stm32h7xx_hal_dma.c ****   {
1877:Drivers/STM32H7xx_HAL_Driver/Src/stm32h7xx_hal_dma.c ****     /* return pointer to ISR and IFCR */
1878:Drivers/STM32H7xx_HAL_Driver/Src/stm32h7xx_hal_dma.c ****     hdma->StreamBaseAddress = ((uint32_t)((uint32_t*)hdma->Instance) & (uint32_t)(~0xFFU));
1879:Drivers/STM32H7xx_HAL_Driver/Src/stm32h7xx_hal_dma.c ****   }
1880:Drivers/STM32H7xx_HAL_Driver/Src/stm32h7xx_hal_dma.c **** 
1881:Drivers/STM32H7xx_HAL_Driver/Src/stm32h7xx_hal_dma.c ****   return hdma->StreamBaseAddress;
1882:Drivers/STM32H7xx_HAL_Driver/Src/stm32h7xx_hal_dma.c **** }
 601              		.loc 1 1882 0
 602 0094 806D     		ldr	r0, [r0, #88]
 603              	.LVL17:
 604 0096 5DF8044B 		ldr	r4, [sp], #4
 605              	.LCFI2:
 606              		.cfi_restore 4
 607              		.cfi_def_cfa_offset 0
 608 009a 7047     		bx	lr
 609              	.LVL18:
 610              	.L67:
1856:Drivers/STM32H7xx_HAL_Driver/Src/stm32h7xx_hal_dma.c ****   {
 611              		.loc 1 1856 0
 612 009c 0122     		movs	r2, #1
 613 009e E6E7     		b	.L62
 614              	.L68:
 615 00a0 0122     		movs	r2, #1
 616 00a2 E4E7     		b	.L62
 617              	.L69:
 618 00a4 0122     		movs	r2, #1
 619 00a6 E2E7     		b	.L62
 620              	.L70:
ARM GAS  C:\Users\CompuTOP\AppData\Local\Temp\cc4hOfP8.s 			page 45


 621 00a8 0122     		movs	r2, #1
 622 00aa E0E7     		b	.L62
 623              	.L71:
 624 00ac 0122     		movs	r2, #1
 625 00ae DEE7     		b	.L62
 626              	.L72:
 627 00b0 0122     		movs	r2, #1
 628 00b2 DCE7     		b	.L62
 629              	.L73:
 630 00b4 0122     		movs	r2, #1
 631 00b6 DAE7     		b	.L62
 632              	.L74:
 633 00b8 0122     		movs	r2, #1
 634 00ba D8E7     		b	.L62
 635              	.L75:
 636 00bc 0122     		movs	r2, #1
 637 00be D6E7     		b	.L62
 638              	.L76:
 639 00c0 0122     		movs	r2, #1
 640 00c2 D4E7     		b	.L62
 641              	.L77:
 642 00c4 0122     		movs	r2, #1
 643 00c6 D2E7     		b	.L62
 644              	.L78:
 645 00c8 0122     		movs	r2, #1
 646 00ca D0E7     		b	.L62
 647              	.L79:
 648 00cc 0122     		movs	r2, #1
 649 00ce CEE7     		b	.L62
 650              	.LVL19:
 651              	.L64:
 652              	.LCFI3:
 653              		.cfi_def_cfa_offset 4
 654              		.cfi_offset 4, -4
 655              	.LBB3:
1872:Drivers/STM32H7xx_HAL_Driver/Src/stm32h7xx_hal_dma.c ****     }
 656              		.loc 1 1872 0
 657 00d0 084A     		ldr	r2, .L86+16
 658              	.LVL20:
 659 00d2 1A40     		ands	r2, r2, r3
 660 00d4 8265     		str	r2, [r0, #88]
 661 00d6 DDE7     		b	.L65
 662              	.LVL21:
 663              	.L63:
 664              	.LCFI4:
 665              		.cfi_def_cfa_offset 0
 666              		.cfi_restore 4
 667              	.LBE3:
1878:Drivers/STM32H7xx_HAL_Driver/Src/stm32h7xx_hal_dma.c ****   }
 668              		.loc 1 1878 0
 669 00d8 23F0FF03 		bic	r3, r3, #255
 670 00dc 8365     		str	r3, [r0, #88]
 671              		.loc 1 1882 0
 672 00de 806D     		ldr	r0, [r0, #88]
 673              	.LVL22:
 674 00e0 7047     		bx	lr
 675              	.L87:
ARM GAS  C:\Users\CompuTOP\AppData\Local\Temp\cc4hOfP8.s 			page 46


 676 00e2 00BF     		.align	2
 677              	.L86:
 678 00e4 28000240 		.word	1073872936
 679 00e8 10000240 		.word	1073872912
 680 00ec ABAAAAAA 		.word	-1431655765
 681 00f0 00000000 		.word	.LANCHOR0
 682 00f4 00FCFFFF 		.word	-1024
 683              		.cfi_endproc
 684              	.LFE157:
 686              		.section	.text.DMA_CheckFifoParam,"ax",%progbits
 687              		.align	1
 688              		.syntax unified
 689              		.thumb
 690              		.thumb_func
 691              		.fpu fpv5-d16
 693              	DMA_CheckFifoParam:
 694              	.LFB158:
1883:Drivers/STM32H7xx_HAL_Driver/Src/stm32h7xx_hal_dma.c **** 
1884:Drivers/STM32H7xx_HAL_Driver/Src/stm32h7xx_hal_dma.c **** /**
1885:Drivers/STM32H7xx_HAL_Driver/Src/stm32h7xx_hal_dma.c ****   * @brief  Check compatibility between FIFO threshold level and size of the memory burst
1886:Drivers/STM32H7xx_HAL_Driver/Src/stm32h7xx_hal_dma.c ****   * @param  hdma:       pointer to a DMA_HandleTypeDef structure that contains
1887:Drivers/STM32H7xx_HAL_Driver/Src/stm32h7xx_hal_dma.c ****   *                     the configuration information for the specified DMA Stream.
1888:Drivers/STM32H7xx_HAL_Driver/Src/stm32h7xx_hal_dma.c ****   * @retval HAL status
1889:Drivers/STM32H7xx_HAL_Driver/Src/stm32h7xx_hal_dma.c ****   */
1890:Drivers/STM32H7xx_HAL_Driver/Src/stm32h7xx_hal_dma.c **** static HAL_StatusTypeDef DMA_CheckFifoParam(DMA_HandleTypeDef *hdma)
1891:Drivers/STM32H7xx_HAL_Driver/Src/stm32h7xx_hal_dma.c **** {
 695              		.loc 1 1891 0
 696              		.cfi_startproc
 697              		@ args = 0, pretend = 0, frame = 0
 698              		@ frame_needed = 0, uses_anonymous_args = 0
 699              		@ link register save eliminated.
 700              	.LVL23:
1892:Drivers/STM32H7xx_HAL_Driver/Src/stm32h7xx_hal_dma.c ****   HAL_StatusTypeDef status = HAL_OK;
1893:Drivers/STM32H7xx_HAL_Driver/Src/stm32h7xx_hal_dma.c **** 
1894:Drivers/STM32H7xx_HAL_Driver/Src/stm32h7xx_hal_dma.c ****   /* Memory Data size equal to Byte */
1895:Drivers/STM32H7xx_HAL_Driver/Src/stm32h7xx_hal_dma.c ****   if (hdma->Init.MemDataAlignment == DMA_MDATAALIGN_BYTE)
 701              		.loc 1 1895 0
 702 0000 8369     		ldr	r3, [r0, #24]
 703 0002 9BB9     		cbnz	r3, .L89
1896:Drivers/STM32H7xx_HAL_Driver/Src/stm32h7xx_hal_dma.c ****   {
1897:Drivers/STM32H7xx_HAL_Driver/Src/stm32h7xx_hal_dma.c ****     switch (hdma->Init.FIFOThreshold)
 704              		.loc 1 1897 0
 705 0004 836A     		ldr	r3, [r0, #40]
 706 0006 012B     		cmp	r3, #1
 707 0008 0AD0     		beq	.L91
 708 000a 1BB1     		cbz	r3, .L92
 709 000c 022B     		cmp	r3, #2
 710 000e 01D0     		beq	.L92
1892:Drivers/STM32H7xx_HAL_Driver/Src/stm32h7xx_hal_dma.c ****   HAL_StatusTypeDef status = HAL_OK;
 711              		.loc 1 1892 0
 712 0010 0020     		movs	r0, #0
 713              	.LVL24:
 714 0012 7047     		bx	lr
 715              	.LVL25:
 716              	.L92:
1898:Drivers/STM32H7xx_HAL_Driver/Src/stm32h7xx_hal_dma.c ****     {
1899:Drivers/STM32H7xx_HAL_Driver/Src/stm32h7xx_hal_dma.c ****       case DMA_FIFO_THRESHOLD_1QUARTERFULL:
ARM GAS  C:\Users\CompuTOP\AppData\Local\Temp\cc4hOfP8.s 			page 47


1900:Drivers/STM32H7xx_HAL_Driver/Src/stm32h7xx_hal_dma.c ****       case DMA_FIFO_THRESHOLD_3QUARTERSFULL:
1901:Drivers/STM32H7xx_HAL_Driver/Src/stm32h7xx_hal_dma.c **** 
1902:Drivers/STM32H7xx_HAL_Driver/Src/stm32h7xx_hal_dma.c ****         if ((hdma->Init.MemBurst & DMA_SxCR_MBURST_1) == DMA_SxCR_MBURST_1)
 717              		.loc 1 1902 0
 718 0014 C36A     		ldr	r3, [r0, #44]
 719 0016 13F0807F 		tst	r3, #16777216
 720 001a 2ED1     		bne	.L101
1892:Drivers/STM32H7xx_HAL_Driver/Src/stm32h7xx_hal_dma.c **** 
 721              		.loc 1 1892 0
 722 001c 0020     		movs	r0, #0
 723              	.LVL26:
 724 001e 7047     		bx	lr
 725              	.LVL27:
 726              	.L91:
1903:Drivers/STM32H7xx_HAL_Driver/Src/stm32h7xx_hal_dma.c ****         {
1904:Drivers/STM32H7xx_HAL_Driver/Src/stm32h7xx_hal_dma.c ****           status = HAL_ERROR;
1905:Drivers/STM32H7xx_HAL_Driver/Src/stm32h7xx_hal_dma.c ****         }
1906:Drivers/STM32H7xx_HAL_Driver/Src/stm32h7xx_hal_dma.c ****         break;
1907:Drivers/STM32H7xx_HAL_Driver/Src/stm32h7xx_hal_dma.c **** 
1908:Drivers/STM32H7xx_HAL_Driver/Src/stm32h7xx_hal_dma.c ****       case DMA_FIFO_THRESHOLD_HALFFULL:
1909:Drivers/STM32H7xx_HAL_Driver/Src/stm32h7xx_hal_dma.c ****         if (hdma->Init.MemBurst == DMA_MBURST_INC16)
 727              		.loc 1 1909 0
 728 0020 C36A     		ldr	r3, [r0, #44]
 729 0022 B3F1C07F 		cmp	r3, #25165824
 730 0026 2AD0     		beq	.L102
1892:Drivers/STM32H7xx_HAL_Driver/Src/stm32h7xx_hal_dma.c **** 
 731              		.loc 1 1892 0
 732 0028 0020     		movs	r0, #0
 733              	.LVL28:
 734 002a 7047     		bx	lr
 735              	.LVL29:
 736              	.L89:
1910:Drivers/STM32H7xx_HAL_Driver/Src/stm32h7xx_hal_dma.c ****         {
1911:Drivers/STM32H7xx_HAL_Driver/Src/stm32h7xx_hal_dma.c ****           status = HAL_ERROR;
1912:Drivers/STM32H7xx_HAL_Driver/Src/stm32h7xx_hal_dma.c ****         }
1913:Drivers/STM32H7xx_HAL_Driver/Src/stm32h7xx_hal_dma.c ****         break;
1914:Drivers/STM32H7xx_HAL_Driver/Src/stm32h7xx_hal_dma.c **** 
1915:Drivers/STM32H7xx_HAL_Driver/Src/stm32h7xx_hal_dma.c ****       case DMA_FIFO_THRESHOLD_FULL:
1916:Drivers/STM32H7xx_HAL_Driver/Src/stm32h7xx_hal_dma.c ****         break;
1917:Drivers/STM32H7xx_HAL_Driver/Src/stm32h7xx_hal_dma.c **** 
1918:Drivers/STM32H7xx_HAL_Driver/Src/stm32h7xx_hal_dma.c ****       default:
1919:Drivers/STM32H7xx_HAL_Driver/Src/stm32h7xx_hal_dma.c ****         break;
1920:Drivers/STM32H7xx_HAL_Driver/Src/stm32h7xx_hal_dma.c ****     }
1921:Drivers/STM32H7xx_HAL_Driver/Src/stm32h7xx_hal_dma.c ****   }
1922:Drivers/STM32H7xx_HAL_Driver/Src/stm32h7xx_hal_dma.c **** 
1923:Drivers/STM32H7xx_HAL_Driver/Src/stm32h7xx_hal_dma.c ****   /* Memory Data size equal to Half-Word */
1924:Drivers/STM32H7xx_HAL_Driver/Src/stm32h7xx_hal_dma.c ****   else if (hdma->Init.MemDataAlignment == DMA_MDATAALIGN_HALFWORD)
 737              		.loc 1 1924 0
 738 002c B3F5005F 		cmp	r3, #8192
 739 0030 06D0     		beq	.L109
1925:Drivers/STM32H7xx_HAL_Driver/Src/stm32h7xx_hal_dma.c ****   {
1926:Drivers/STM32H7xx_HAL_Driver/Src/stm32h7xx_hal_dma.c ****     switch (hdma->Init.FIFOThreshold)
1927:Drivers/STM32H7xx_HAL_Driver/Src/stm32h7xx_hal_dma.c ****     {
1928:Drivers/STM32H7xx_HAL_Driver/Src/stm32h7xx_hal_dma.c ****       case DMA_FIFO_THRESHOLD_1QUARTERFULL:
1929:Drivers/STM32H7xx_HAL_Driver/Src/stm32h7xx_hal_dma.c ****       case DMA_FIFO_THRESHOLD_3QUARTERSFULL:
1930:Drivers/STM32H7xx_HAL_Driver/Src/stm32h7xx_hal_dma.c ****         status = HAL_ERROR;
1931:Drivers/STM32H7xx_HAL_Driver/Src/stm32h7xx_hal_dma.c ****         break;
ARM GAS  C:\Users\CompuTOP\AppData\Local\Temp\cc4hOfP8.s 			page 48


1932:Drivers/STM32H7xx_HAL_Driver/Src/stm32h7xx_hal_dma.c **** 
1933:Drivers/STM32H7xx_HAL_Driver/Src/stm32h7xx_hal_dma.c ****       case DMA_FIFO_THRESHOLD_HALFFULL:
1934:Drivers/STM32H7xx_HAL_Driver/Src/stm32h7xx_hal_dma.c ****         if ((hdma->Init.MemBurst & DMA_SxCR_MBURST_1) == DMA_SxCR_MBURST_1)
1935:Drivers/STM32H7xx_HAL_Driver/Src/stm32h7xx_hal_dma.c ****         {
1936:Drivers/STM32H7xx_HAL_Driver/Src/stm32h7xx_hal_dma.c ****           status = HAL_ERROR;
1937:Drivers/STM32H7xx_HAL_Driver/Src/stm32h7xx_hal_dma.c ****         }
1938:Drivers/STM32H7xx_HAL_Driver/Src/stm32h7xx_hal_dma.c ****         break;
1939:Drivers/STM32H7xx_HAL_Driver/Src/stm32h7xx_hal_dma.c **** 
1940:Drivers/STM32H7xx_HAL_Driver/Src/stm32h7xx_hal_dma.c ****       case DMA_FIFO_THRESHOLD_FULL:
1941:Drivers/STM32H7xx_HAL_Driver/Src/stm32h7xx_hal_dma.c ****         if (hdma->Init.MemBurst == DMA_MBURST_INC16)
1942:Drivers/STM32H7xx_HAL_Driver/Src/stm32h7xx_hal_dma.c ****         {
1943:Drivers/STM32H7xx_HAL_Driver/Src/stm32h7xx_hal_dma.c ****           status = HAL_ERROR;
1944:Drivers/STM32H7xx_HAL_Driver/Src/stm32h7xx_hal_dma.c ****         }
1945:Drivers/STM32H7xx_HAL_Driver/Src/stm32h7xx_hal_dma.c ****         break;
1946:Drivers/STM32H7xx_HAL_Driver/Src/stm32h7xx_hal_dma.c **** 
1947:Drivers/STM32H7xx_HAL_Driver/Src/stm32h7xx_hal_dma.c ****       default:
1948:Drivers/STM32H7xx_HAL_Driver/Src/stm32h7xx_hal_dma.c ****         break;
1949:Drivers/STM32H7xx_HAL_Driver/Src/stm32h7xx_hal_dma.c ****     }
1950:Drivers/STM32H7xx_HAL_Driver/Src/stm32h7xx_hal_dma.c ****   }
1951:Drivers/STM32H7xx_HAL_Driver/Src/stm32h7xx_hal_dma.c **** 
1952:Drivers/STM32H7xx_HAL_Driver/Src/stm32h7xx_hal_dma.c ****   /* Memory Data size equal to Word */
1953:Drivers/STM32H7xx_HAL_Driver/Src/stm32h7xx_hal_dma.c ****   else
1954:Drivers/STM32H7xx_HAL_Driver/Src/stm32h7xx_hal_dma.c ****   {
1955:Drivers/STM32H7xx_HAL_Driver/Src/stm32h7xx_hal_dma.c ****     switch (hdma->Init.FIFOThreshold)
 740              		.loc 1 1955 0
 741 0032 836A     		ldr	r3, [r0, #40]
 742 0034 022B     		cmp	r3, #2
 743 0036 2AD9     		bls	.L106
 744 0038 032B     		cmp	r3, #3
 745 003a 16D0     		beq	.L99
1892:Drivers/STM32H7xx_HAL_Driver/Src/stm32h7xx_hal_dma.c **** 
 746              		.loc 1 1892 0
 747 003c 0020     		movs	r0, #0
 748              	.LVL30:
 749 003e 7047     		bx	lr
 750              	.LVL31:
 751              	.L109:
1926:Drivers/STM32H7xx_HAL_Driver/Src/stm32h7xx_hal_dma.c ****     {
 752              		.loc 1 1926 0
 753 0040 836A     		ldr	r3, [r0, #40]
 754 0042 032B     		cmp	r3, #3
 755 0044 03D8     		bhi	.L94
 756 0046 DFE803F0 		tbb	[pc, r3]
 757              	.L95:
 758 004a 1C       		.byte	(.L103-.L95)/2
 759 004b 04       		.byte	(.L96-.L95)/2
 760 004c 1C       		.byte	(.L103-.L95)/2
 761 004d 0A       		.byte	(.L97-.L95)/2
 762              		.p2align 1
 763              	.L94:
1892:Drivers/STM32H7xx_HAL_Driver/Src/stm32h7xx_hal_dma.c **** 
 764              		.loc 1 1892 0
 765 004e 0020     		movs	r0, #0
 766              	.LVL32:
 767 0050 7047     		bx	lr
 768              	.LVL33:
 769              	.L96:
ARM GAS  C:\Users\CompuTOP\AppData\Local\Temp\cc4hOfP8.s 			page 49


1934:Drivers/STM32H7xx_HAL_Driver/Src/stm32h7xx_hal_dma.c ****         {
 770              		.loc 1 1934 0
 771 0052 C36A     		ldr	r3, [r0, #44]
 772 0054 13F0807F 		tst	r3, #16777216
 773 0058 15D1     		bne	.L104
1892:Drivers/STM32H7xx_HAL_Driver/Src/stm32h7xx_hal_dma.c **** 
 774              		.loc 1 1892 0
 775 005a 0020     		movs	r0, #0
 776              	.LVL34:
 777 005c 7047     		bx	lr
 778              	.LVL35:
 779              	.L97:
1941:Drivers/STM32H7xx_HAL_Driver/Src/stm32h7xx_hal_dma.c ****         {
 780              		.loc 1 1941 0
 781 005e C36A     		ldr	r3, [r0, #44]
 782 0060 B3F1C07F 		cmp	r3, #25165824
 783 0064 11D0     		beq	.L105
1892:Drivers/STM32H7xx_HAL_Driver/Src/stm32h7xx_hal_dma.c **** 
 784              		.loc 1 1892 0
 785 0066 0020     		movs	r0, #0
 786              	.LVL36:
 787 0068 7047     		bx	lr
 788              	.LVL37:
 789              	.L99:
1956:Drivers/STM32H7xx_HAL_Driver/Src/stm32h7xx_hal_dma.c ****     {
1957:Drivers/STM32H7xx_HAL_Driver/Src/stm32h7xx_hal_dma.c ****       case DMA_FIFO_THRESHOLD_1QUARTERFULL:
1958:Drivers/STM32H7xx_HAL_Driver/Src/stm32h7xx_hal_dma.c ****       case DMA_FIFO_THRESHOLD_HALFFULL:
1959:Drivers/STM32H7xx_HAL_Driver/Src/stm32h7xx_hal_dma.c ****       case DMA_FIFO_THRESHOLD_3QUARTERSFULL:
1960:Drivers/STM32H7xx_HAL_Driver/Src/stm32h7xx_hal_dma.c ****         status = HAL_ERROR;
1961:Drivers/STM32H7xx_HAL_Driver/Src/stm32h7xx_hal_dma.c ****         break;
1962:Drivers/STM32H7xx_HAL_Driver/Src/stm32h7xx_hal_dma.c **** 
1963:Drivers/STM32H7xx_HAL_Driver/Src/stm32h7xx_hal_dma.c ****       case DMA_FIFO_THRESHOLD_FULL:
1964:Drivers/STM32H7xx_HAL_Driver/Src/stm32h7xx_hal_dma.c ****         if ((hdma->Init.MemBurst & DMA_SxCR_MBURST_1) == DMA_SxCR_MBURST_1)
 790              		.loc 1 1964 0
 791 006a C36A     		ldr	r3, [r0, #44]
 792 006c 13F0807F 		tst	r3, #16777216
 793 0070 01D0     		beq	.L110
1965:Drivers/STM32H7xx_HAL_Driver/Src/stm32h7xx_hal_dma.c ****         {
1966:Drivers/STM32H7xx_HAL_Driver/Src/stm32h7xx_hal_dma.c ****           status = HAL_ERROR;
 794              		.loc 1 1966 0
 795 0072 0120     		movs	r0, #1
 796              	.LVL38:
1967:Drivers/STM32H7xx_HAL_Driver/Src/stm32h7xx_hal_dma.c ****         }
1968:Drivers/STM32H7xx_HAL_Driver/Src/stm32h7xx_hal_dma.c ****     break;
1969:Drivers/STM32H7xx_HAL_Driver/Src/stm32h7xx_hal_dma.c **** 
1970:Drivers/STM32H7xx_HAL_Driver/Src/stm32h7xx_hal_dma.c ****       default:
1971:Drivers/STM32H7xx_HAL_Driver/Src/stm32h7xx_hal_dma.c ****         break;
1972:Drivers/STM32H7xx_HAL_Driver/Src/stm32h7xx_hal_dma.c ****     }
1973:Drivers/STM32H7xx_HAL_Driver/Src/stm32h7xx_hal_dma.c ****   }
1974:Drivers/STM32H7xx_HAL_Driver/Src/stm32h7xx_hal_dma.c **** 
1975:Drivers/STM32H7xx_HAL_Driver/Src/stm32h7xx_hal_dma.c ****   return status;
1976:Drivers/STM32H7xx_HAL_Driver/Src/stm32h7xx_hal_dma.c **** }
 797              		.loc 1 1976 0
 798 0074 7047     		bx	lr
 799              	.LVL39:
 800              	.L110:
1892:Drivers/STM32H7xx_HAL_Driver/Src/stm32h7xx_hal_dma.c **** 
ARM GAS  C:\Users\CompuTOP\AppData\Local\Temp\cc4hOfP8.s 			page 50


 801              		.loc 1 1892 0
 802 0076 0020     		movs	r0, #0
 803              	.LVL40:
 804 0078 7047     		bx	lr
 805              	.LVL41:
 806              	.L101:
1904:Drivers/STM32H7xx_HAL_Driver/Src/stm32h7xx_hal_dma.c ****         }
 807              		.loc 1 1904 0
 808 007a 0120     		movs	r0, #1
 809              	.LVL42:
 810 007c 7047     		bx	lr
 811              	.LVL43:
 812              	.L102:
1911:Drivers/STM32H7xx_HAL_Driver/Src/stm32h7xx_hal_dma.c ****         }
 813              		.loc 1 1911 0
 814 007e 0120     		movs	r0, #1
 815              	.LVL44:
 816 0080 7047     		bx	lr
 817              	.LVL45:
 818              	.L103:
1930:Drivers/STM32H7xx_HAL_Driver/Src/stm32h7xx_hal_dma.c ****         break;
 819              		.loc 1 1930 0
 820 0082 0120     		movs	r0, #1
 821              	.LVL46:
 822 0084 7047     		bx	lr
 823              	.LVL47:
 824              	.L104:
1936:Drivers/STM32H7xx_HAL_Driver/Src/stm32h7xx_hal_dma.c ****         }
 825              		.loc 1 1936 0
 826 0086 0120     		movs	r0, #1
 827              	.LVL48:
 828 0088 7047     		bx	lr
 829              	.LVL49:
 830              	.L105:
1943:Drivers/STM32H7xx_HAL_Driver/Src/stm32h7xx_hal_dma.c ****         }
 831              		.loc 1 1943 0
 832 008a 0120     		movs	r0, #1
 833              	.LVL50:
 834 008c 7047     		bx	lr
 835              	.LVL51:
 836              	.L106:
1960:Drivers/STM32H7xx_HAL_Driver/Src/stm32h7xx_hal_dma.c ****         break;
 837              		.loc 1 1960 0
 838 008e 0120     		movs	r0, #1
 839              	.LVL52:
 840 0090 7047     		bx	lr
 841              		.cfi_endproc
 842              	.LFE158:
 844              		.section	.text.DMA_CalcDMAMUXChannelBaseAndMask,"ax",%progbits
 845              		.align	1
 846              		.syntax unified
 847              		.thumb
 848              		.thumb_func
 849              		.fpu fpv5-d16
 851              	DMA_CalcDMAMUXChannelBaseAndMask:
 852              	.LFB159:
1977:Drivers/STM32H7xx_HAL_Driver/Src/stm32h7xx_hal_dma.c **** 
ARM GAS  C:\Users\CompuTOP\AppData\Local\Temp\cc4hOfP8.s 			page 51


1978:Drivers/STM32H7xx_HAL_Driver/Src/stm32h7xx_hal_dma.c **** /**
1979:Drivers/STM32H7xx_HAL_Driver/Src/stm32h7xx_hal_dma.c ****   * @brief  Updates the DMA handle with the DMAMUX  channel and status mask depending on stream num
1980:Drivers/STM32H7xx_HAL_Driver/Src/stm32h7xx_hal_dma.c ****   * @param  hdma:       pointer to a DMA_HandleTypeDef structure that contains
1981:Drivers/STM32H7xx_HAL_Driver/Src/stm32h7xx_hal_dma.c ****   *                     the configuration information for the specified DMA Stream.
1982:Drivers/STM32H7xx_HAL_Driver/Src/stm32h7xx_hal_dma.c ****   * @retval HAL status
1983:Drivers/STM32H7xx_HAL_Driver/Src/stm32h7xx_hal_dma.c ****   */
1984:Drivers/STM32H7xx_HAL_Driver/Src/stm32h7xx_hal_dma.c **** static void DMA_CalcDMAMUXChannelBaseAndMask(DMA_HandleTypeDef *hdma)
1985:Drivers/STM32H7xx_HAL_Driver/Src/stm32h7xx_hal_dma.c **** {
 853              		.loc 1 1985 0
 854              		.cfi_startproc
 855              		@ args = 0, pretend = 0, frame = 0
 856              		@ frame_needed = 0, uses_anonymous_args = 0
 857              		@ link register save eliminated.
 858              	.LVL53:
1986:Drivers/STM32H7xx_HAL_Driver/Src/stm32h7xx_hal_dma.c ****   uint32_t stream_number;
1987:Drivers/STM32H7xx_HAL_Driver/Src/stm32h7xx_hal_dma.c ****   uint32_t stream_baseaddress = (uint32_t)((uint32_t*)hdma->Instance);
 859              		.loc 1 1987 0
 860 0000 0368     		ldr	r3, [r0]
 861              	.LVL54:
1988:Drivers/STM32H7xx_HAL_Driver/Src/stm32h7xx_hal_dma.c **** 
1989:Drivers/STM32H7xx_HAL_Driver/Src/stm32h7xx_hal_dma.c ****   if(IS_BDMA_CHANNEL_DMAMUX_INSTANCE(hdma->Instance) != 0U)
 862              		.loc 1 1989 0
 863 0002 294A     		ldr	r2, .L125
 864 0004 2949     		ldr	r1, .L125+4
 865 0006 9342     		cmp	r3, r2
 866 0008 18BF     		it	ne
 867 000a 8B42     		cmpne	r3, r1
 868 000c 15D0     		beq	.L116
 869              		.loc 1 1989 0 is_stmt 0 discriminator 2
 870 000e 1432     		adds	r2, r2, #20
 871 0010 9342     		cmp	r3, r2
 872 0012 2CD0     		beq	.L117
 873              		.loc 1 1989 0 discriminator 4
 874 0014 1432     		adds	r2, r2, #20
 875 0016 9342     		cmp	r3, r2
 876 0018 2BD0     		beq	.L118
 877              		.loc 1 1989 0 discriminator 6
 878 001a 1432     		adds	r2, r2, #20
 879 001c 9342     		cmp	r3, r2
 880 001e 2AD0     		beq	.L119
 881              		.loc 1 1989 0 discriminator 8
 882 0020 1432     		adds	r2, r2, #20
 883 0022 9342     		cmp	r3, r2
 884 0024 29D0     		beq	.L120
 885              		.loc 1 1989 0 discriminator 10
 886 0026 1432     		adds	r2, r2, #20
 887 0028 9342     		cmp	r3, r2
 888 002a 28D0     		beq	.L121
 889              		.loc 1 1989 0 discriminator 12
 890 002c 1432     		adds	r2, r2, #20
 891 002e 9342     		cmp	r3, r2
 892 0030 01D0     		beq	.L123
 893              		.loc 1 1989 0
 894 0032 0022     		movs	r2, #0
 895 0034 02E0     		b	.L112
 896              	.L123:
 897 0036 0122     		movs	r2, #1
ARM GAS  C:\Users\CompuTOP\AppData\Local\Temp\cc4hOfP8.s 			page 52


 898 0038 00E0     		b	.L112
 899              	.L116:
 900 003a 0122     		movs	r2, #1
 901              	.L112:
 902              		.loc 1 1989 0 discriminator 16
 903 003c 0ABB     		cbnz	r2, .L124
1990:Drivers/STM32H7xx_HAL_Driver/Src/stm32h7xx_hal_dma.c ****   {
1991:Drivers/STM32H7xx_HAL_Driver/Src/stm32h7xx_hal_dma.c ****     /* BDMA Channels are connected to DMAMUX2 channels */
1992:Drivers/STM32H7xx_HAL_Driver/Src/stm32h7xx_hal_dma.c ****     stream_number = (((uint32_t)((uint32_t*)hdma->Instance) & 0xFFU) - 8U) / 20U;
1993:Drivers/STM32H7xx_HAL_Driver/Src/stm32h7xx_hal_dma.c ****     hdma->DMAmuxChannel = (DMAMUX_Channel_TypeDef *)((uint32_t)(((uint32_t)DMAMUX2_Channel0) + (str
1994:Drivers/STM32H7xx_HAL_Driver/Src/stm32h7xx_hal_dma.c ****     hdma->DMAmuxChannelStatus = DMAMUX2_ChannelStatus;
1995:Drivers/STM32H7xx_HAL_Driver/Src/stm32h7xx_hal_dma.c ****     hdma->DMAmuxChannelStatusMask = 1UL << (stream_number & 0x1FU);
1996:Drivers/STM32H7xx_HAL_Driver/Src/stm32h7xx_hal_dma.c ****   }
1997:Drivers/STM32H7xx_HAL_Driver/Src/stm32h7xx_hal_dma.c ****   else
1998:Drivers/STM32H7xx_HAL_Driver/Src/stm32h7xx_hal_dma.c ****   {
1999:Drivers/STM32H7xx_HAL_Driver/Src/stm32h7xx_hal_dma.c ****     /* DMA1/DMA2 Streams are connected to DMAMUX1 channels */
2000:Drivers/STM32H7xx_HAL_Driver/Src/stm32h7xx_hal_dma.c ****     stream_number = (((uint32_t)((uint32_t*)hdma->Instance) & 0xFFU) - 16U) / 24U;
 904              		.loc 1 2000 0 is_stmt 1
 905 003e DAB2     		uxtb	r2, r3
 906 0040 103A     		subs	r2, r2, #16
 907 0042 1B49     		ldr	r1, .L125+8
 908 0044 A1FB0212 		umull	r1, r2, r1, r2
 909 0048 1209     		lsrs	r2, r2, #4
 910              	.LVL55:
2001:Drivers/STM32H7xx_HAL_Driver/Src/stm32h7xx_hal_dma.c **** 
2002:Drivers/STM32H7xx_HAL_Driver/Src/stm32h7xx_hal_dma.c ****     if((stream_baseaddress <= ((uint32_t)DMA2_Stream7) ) && \
 911              		.loc 1 2002 0
 912 004a 1A49     		ldr	r1, .L125+12
 913 004c 1944     		add	r1, r1, r3
 914 004e A829     		cmp	r1, #168
 915 0050 00D8     		bhi	.L115
2003:Drivers/STM32H7xx_HAL_Driver/Src/stm32h7xx_hal_dma.c ****        (stream_baseaddress >= ((uint32_t)DMA2_Stream0)))
2004:Drivers/STM32H7xx_HAL_Driver/Src/stm32h7xx_hal_dma.c ****     {
2005:Drivers/STM32H7xx_HAL_Driver/Src/stm32h7xx_hal_dma.c ****       stream_number += 8U;
 916              		.loc 1 2005 0
 917 0052 0832     		adds	r2, r2, #8
 918              	.LVL56:
 919              	.L115:
2006:Drivers/STM32H7xx_HAL_Driver/Src/stm32h7xx_hal_dma.c ****     }
2007:Drivers/STM32H7xx_HAL_Driver/Src/stm32h7xx_hal_dma.c ****     hdma->DMAmuxChannel = (DMAMUX_Channel_TypeDef *)((uint32_t)(((uint32_t)DMAMUX1_Channel0) + (str
 920              		.loc 1 2007 0
 921 0054 184B     		ldr	r3, .L125+16
 922              	.LVL57:
 923 0056 1344     		add	r3, r3, r2
 924 0058 9B00     		lsls	r3, r3, #2
 925 005a 0366     		str	r3, [r0, #96]
2008:Drivers/STM32H7xx_HAL_Driver/Src/stm32h7xx_hal_dma.c ****     hdma->DMAmuxChannelStatus = DMAMUX1_ChannelStatus;
 926              		.loc 1 2008 0
 927 005c 174B     		ldr	r3, .L125+20
 928 005e 4366     		str	r3, [r0, #100]
2009:Drivers/STM32H7xx_HAL_Driver/Src/stm32h7xx_hal_dma.c ****     hdma->DMAmuxChannelStatusMask = 1UL << (stream_number & 0x1FU);
 929              		.loc 1 2009 0
 930 0060 02F01F02 		and	r2, r2, #31
 931              	.LVL58:
 932 0064 0123     		movs	r3, #1
 933 0066 03FA02F2 		lsl	r2, r3, r2
 934 006a 8266     		str	r2, [r0, #104]
ARM GAS  C:\Users\CompuTOP\AppData\Local\Temp\cc4hOfP8.s 			page 53


 935 006c 7047     		bx	lr
 936              	.LVL59:
 937              	.L117:
1989:Drivers/STM32H7xx_HAL_Driver/Src/stm32h7xx_hal_dma.c ****   {
 938              		.loc 1 1989 0
 939 006e 0122     		movs	r2, #1
 940 0070 E4E7     		b	.L112
 941              	.L118:
 942 0072 0122     		movs	r2, #1
 943 0074 E2E7     		b	.L112
 944              	.L119:
 945 0076 0122     		movs	r2, #1
 946 0078 E0E7     		b	.L112
 947              	.L120:
 948 007a 0122     		movs	r2, #1
 949 007c DEE7     		b	.L112
 950              	.L121:
 951 007e 0122     		movs	r2, #1
 952 0080 DCE7     		b	.L112
 953              	.L124:
1992:Drivers/STM32H7xx_HAL_Driver/Src/stm32h7xx_hal_dma.c ****     hdma->DMAmuxChannel = (DMAMUX_Channel_TypeDef *)((uint32_t)(((uint32_t)DMAMUX2_Channel0) + (str
 954              		.loc 1 1992 0
 955 0082 DBB2     		uxtb	r3, r3
 956              	.LVL60:
 957 0084 083B     		subs	r3, r3, #8
 958 0086 0E4A     		ldr	r2, .L125+24
 959 0088 A2FB0323 		umull	r2, r3, r2, r3
 960 008c 1B09     		lsrs	r3, r3, #4
 961              	.LVL61:
1993:Drivers/STM32H7xx_HAL_Driver/Src/stm32h7xx_hal_dma.c ****     hdma->DMAmuxChannelStatus = DMAMUX2_ChannelStatus;
 962              		.loc 1 1993 0
 963 008e 0D4A     		ldr	r2, .L125+28
 964 0090 1A44     		add	r2, r2, r3
 965 0092 9200     		lsls	r2, r2, #2
 966 0094 0266     		str	r2, [r0, #96]
1994:Drivers/STM32H7xx_HAL_Driver/Src/stm32h7xx_hal_dma.c ****     hdma->DMAmuxChannelStatusMask = 1UL << (stream_number & 0x1FU);
 967              		.loc 1 1994 0
 968 0096 0C4A     		ldr	r2, .L125+32
 969 0098 4266     		str	r2, [r0, #100]
1995:Drivers/STM32H7xx_HAL_Driver/Src/stm32h7xx_hal_dma.c ****   }
 970              		.loc 1 1995 0
 971 009a 03F01F03 		and	r3, r3, #31
 972              	.LVL62:
 973 009e 0122     		movs	r2, #1
 974 00a0 02FA03F3 		lsl	r3, r2, r3
 975 00a4 8366     		str	r3, [r0, #104]
 976 00a6 7047     		bx	lr
 977              	.L126:
 978              		.align	2
 979              	.L125:
 980 00a8 1C540258 		.word	1476547612
 981 00ac 08540258 		.word	1476547592
 982 00b0 ABAAAAAA 		.word	-1431655765
 983 00b4 F0FBFDBF 		.word	-1073873936
 984 00b8 00820010 		.word	268468736
 985 00bc 80080240 		.word	1073875072
 986 00c0 CDCCCCCC 		.word	-858993459
ARM GAS  C:\Users\CompuTOP\AppData\Local\Temp\cc4hOfP8.s 			page 54


 987 00c4 00960016 		.word	369137152
 988 00c8 80580258 		.word	1476548736
 989              		.cfi_endproc
 990              	.LFE159:
 992              		.section	.text.DMA_CalcDMAMUXRequestGenBaseAndMask,"ax",%progbits
 993              		.align	1
 994              		.syntax unified
 995              		.thumb
 996              		.thumb_func
 997              		.fpu fpv5-d16
 999              	DMA_CalcDMAMUXRequestGenBaseAndMask:
 1000              	.LFB160:
2010:Drivers/STM32H7xx_HAL_Driver/Src/stm32h7xx_hal_dma.c ****   }
2011:Drivers/STM32H7xx_HAL_Driver/Src/stm32h7xx_hal_dma.c **** }
2012:Drivers/STM32H7xx_HAL_Driver/Src/stm32h7xx_hal_dma.c **** 
2013:Drivers/STM32H7xx_HAL_Driver/Src/stm32h7xx_hal_dma.c **** /**
2014:Drivers/STM32H7xx_HAL_Driver/Src/stm32h7xx_hal_dma.c ****   * @brief  Updates the DMA handle with the DMAMUX  request generator params
2015:Drivers/STM32H7xx_HAL_Driver/Src/stm32h7xx_hal_dma.c ****   * @param  hdma:       pointer to a DMA_HandleTypeDef structure that contains
2016:Drivers/STM32H7xx_HAL_Driver/Src/stm32h7xx_hal_dma.c ****   *                     the configuration information for the specified DMA Stream.
2017:Drivers/STM32H7xx_HAL_Driver/Src/stm32h7xx_hal_dma.c ****   * @retval HAL status
2018:Drivers/STM32H7xx_HAL_Driver/Src/stm32h7xx_hal_dma.c ****   */
2019:Drivers/STM32H7xx_HAL_Driver/Src/stm32h7xx_hal_dma.c **** static void DMA_CalcDMAMUXRequestGenBaseAndMask(DMA_HandleTypeDef *hdma)
2020:Drivers/STM32H7xx_HAL_Driver/Src/stm32h7xx_hal_dma.c **** {
 1001              		.loc 1 2020 0
 1002              		.cfi_startproc
 1003              		@ args = 0, pretend = 0, frame = 0
 1004              		@ frame_needed = 0, uses_anonymous_args = 0
 1005              		@ link register save eliminated.
 1006              	.LVL63:
2021:Drivers/STM32H7xx_HAL_Driver/Src/stm32h7xx_hal_dma.c ****   uint32_t request =  hdma->Init.Request & DMAMUX_CxCR_DMAREQ_ID;
 1007              		.loc 1 2021 0
 1008 0000 0179     		ldrb	r1, [r0, #4]	@ zero_extendqisi2
 1009              	.LVL64:
2022:Drivers/STM32H7xx_HAL_Driver/Src/stm32h7xx_hal_dma.c **** 
2023:Drivers/STM32H7xx_HAL_Driver/Src/stm32h7xx_hal_dma.c ****   if((request >= DMA_REQUEST_GENERATOR0) && (request <= DMA_REQUEST_GENERATOR7))
 1010              		.loc 1 2023 0
 1011 0002 4A1E     		subs	r2, r1, #1
 1012 0004 072A     		cmp	r2, #7
 1013 0006 2AD8     		bhi	.L143
2020:Drivers/STM32H7xx_HAL_Driver/Src/stm32h7xx_hal_dma.c ****   uint32_t request =  hdma->Init.Request & DMAMUX_CxCR_DMAREQ_ID;
 1014              		.loc 1 2020 0
 1015 0008 30B4     		push	{r4, r5}
 1016              	.LCFI5:
 1017              		.cfi_def_cfa_offset 8
 1018              		.cfi_offset 4, -8
 1019              		.cfi_offset 5, -4
2024:Drivers/STM32H7xx_HAL_Driver/Src/stm32h7xx_hal_dma.c ****   {
2025:Drivers/STM32H7xx_HAL_Driver/Src/stm32h7xx_hal_dma.c ****     if(IS_BDMA_CHANNEL_DMAMUX_INSTANCE(hdma->Instance) != 0U)
 1020              		.loc 1 2025 0
 1021 000a 0368     		ldr	r3, [r0]
 1022 000c 1D4C     		ldr	r4, .L145
 1023 000e 1E4D     		ldr	r5, .L145+4
 1024 0010 A342     		cmp	r3, r4
 1025 0012 18BF     		it	ne
 1026 0014 AB42     		cmpne	r3, r5
 1027 0016 15D0     		beq	.L132
 1028              		.loc 1 2025 0 is_stmt 0 discriminator 2
ARM GAS  C:\Users\CompuTOP\AppData\Local\Temp\cc4hOfP8.s 			page 55


 1029 0018 1434     		adds	r4, r4, #20
 1030 001a A342     		cmp	r3, r4
 1031 001c 20D0     		beq	.L133
 1032              		.loc 1 2025 0 discriminator 4
 1033 001e 1434     		adds	r4, r4, #20
 1034 0020 A342     		cmp	r3, r4
 1035 0022 1FD0     		beq	.L134
 1036              		.loc 1 2025 0 discriminator 6
 1037 0024 1434     		adds	r4, r4, #20
 1038 0026 A342     		cmp	r3, r4
 1039 0028 1ED0     		beq	.L135
 1040              		.loc 1 2025 0 discriminator 8
 1041 002a 1434     		adds	r4, r4, #20
 1042 002c A342     		cmp	r3, r4
 1043 002e 1DD0     		beq	.L136
 1044              		.loc 1 2025 0 discriminator 10
 1045 0030 1434     		adds	r4, r4, #20
 1046 0032 A342     		cmp	r3, r4
 1047 0034 1CD0     		beq	.L137
 1048              		.loc 1 2025 0 discriminator 12
 1049 0036 1434     		adds	r4, r4, #20
 1050 0038 A342     		cmp	r3, r4
 1051 003a 01D0     		beq	.L144
 1052              		.loc 1 2025 0
 1053 003c 0023     		movs	r3, #0
 1054 003e 02E0     		b	.L129
 1055              	.L144:
 1056 0040 0123     		movs	r3, #1
 1057 0042 00E0     		b	.L129
 1058              	.L132:
 1059 0044 0123     		movs	r3, #1
 1060              	.L129:
 1061              		.loc 1 2025 0 discriminator 16
 1062 0046 ABB1     		cbz	r3, .L130
2026:Drivers/STM32H7xx_HAL_Driver/Src/stm32h7xx_hal_dma.c ****     {
2027:Drivers/STM32H7xx_HAL_Driver/Src/stm32h7xx_hal_dma.c ****       /* BDMA Channels are connected to DMAMUX2 request generator blocks */
2028:Drivers/STM32H7xx_HAL_Driver/Src/stm32h7xx_hal_dma.c ****       hdma->DMAmuxRequestGen = (DMAMUX_RequestGen_TypeDef *)((uint32_t)(((uint32_t)DMAMUX2_RequestG
 1063              		.loc 1 2028 0 is_stmt 1
 1064 0048 104B     		ldr	r3, .L145+8
 1065 004a 0B44     		add	r3, r3, r1
 1066 004c 9B00     		lsls	r3, r3, #2
 1067 004e C366     		str	r3, [r0, #108]
2029:Drivers/STM32H7xx_HAL_Driver/Src/stm32h7xx_hal_dma.c **** 
2030:Drivers/STM32H7xx_HAL_Driver/Src/stm32h7xx_hal_dma.c ****       hdma->DMAmuxRequestGenStatus = DMAMUX2_RequestGenStatus;
 1068              		.loc 1 2030 0
 1069 0050 0F4B     		ldr	r3, .L145+12
 1070 0052 0367     		str	r3, [r0, #112]
 1071              	.L131:
2031:Drivers/STM32H7xx_HAL_Driver/Src/stm32h7xx_hal_dma.c ****     }
2032:Drivers/STM32H7xx_HAL_Driver/Src/stm32h7xx_hal_dma.c ****     else
2033:Drivers/STM32H7xx_HAL_Driver/Src/stm32h7xx_hal_dma.c ****     {
2034:Drivers/STM32H7xx_HAL_Driver/Src/stm32h7xx_hal_dma.c ****       /* DMA1 and DMA2 Streams use DMAMUX1 request generator blocks */
2035:Drivers/STM32H7xx_HAL_Driver/Src/stm32h7xx_hal_dma.c ****       hdma->DMAmuxRequestGen = (DMAMUX_RequestGen_TypeDef *)((uint32_t)(((uint32_t)DMAMUX1_RequestG
2036:Drivers/STM32H7xx_HAL_Driver/Src/stm32h7xx_hal_dma.c **** 
2037:Drivers/STM32H7xx_HAL_Driver/Src/stm32h7xx_hal_dma.c ****       hdma->DMAmuxRequestGenStatus = DMAMUX1_RequestGenStatus;
2038:Drivers/STM32H7xx_HAL_Driver/Src/stm32h7xx_hal_dma.c ****     }
2039:Drivers/STM32H7xx_HAL_Driver/Src/stm32h7xx_hal_dma.c **** 
ARM GAS  C:\Users\CompuTOP\AppData\Local\Temp\cc4hOfP8.s 			page 56


2040:Drivers/STM32H7xx_HAL_Driver/Src/stm32h7xx_hal_dma.c ****     hdma->DMAmuxRequestGenStatusMask = 1UL << (request - 1U);
 1072              		.loc 1 2040 0
 1073 0054 0123     		movs	r3, #1
 1074 0056 03FA02F2 		lsl	r2, r3, r2
 1075 005a 4267     		str	r2, [r0, #116]
2041:Drivers/STM32H7xx_HAL_Driver/Src/stm32h7xx_hal_dma.c ****   }
2042:Drivers/STM32H7xx_HAL_Driver/Src/stm32h7xx_hal_dma.c **** }
 1076              		.loc 1 2042 0
 1077 005c 30BC     		pop	{r4, r5}
 1078              	.LCFI6:
 1079              		.cfi_restore 5
 1080              		.cfi_restore 4
 1081              		.cfi_def_cfa_offset 0
 1082              	.L143:
 1083 005e 7047     		bx	lr
 1084              	.L133:
 1085              	.LCFI7:
 1086              		.cfi_def_cfa_offset 8
 1087              		.cfi_offset 4, -8
 1088              		.cfi_offset 5, -4
2025:Drivers/STM32H7xx_HAL_Driver/Src/stm32h7xx_hal_dma.c ****     {
 1089              		.loc 1 2025 0
 1090 0060 0123     		movs	r3, #1
 1091 0062 F0E7     		b	.L129
 1092              	.L134:
 1093 0064 0123     		movs	r3, #1
 1094 0066 EEE7     		b	.L129
 1095              	.L135:
 1096 0068 0123     		movs	r3, #1
 1097 006a ECE7     		b	.L129
 1098              	.L136:
 1099 006c 0123     		movs	r3, #1
 1100 006e EAE7     		b	.L129
 1101              	.L137:
 1102 0070 0123     		movs	r3, #1
 1103 0072 E8E7     		b	.L129
 1104              	.L130:
2035:Drivers/STM32H7xx_HAL_Driver/Src/stm32h7xx_hal_dma.c **** 
 1105              		.loc 1 2035 0
 1106 0074 074B     		ldr	r3, .L145+16
 1107 0076 0B44     		add	r3, r3, r1
 1108 0078 9B00     		lsls	r3, r3, #2
 1109 007a C366     		str	r3, [r0, #108]
2037:Drivers/STM32H7xx_HAL_Driver/Src/stm32h7xx_hal_dma.c ****     }
 1110              		.loc 1 2037 0
 1111 007c 064B     		ldr	r3, .L145+20
 1112 007e 0367     		str	r3, [r0, #112]
 1113 0080 E8E7     		b	.L131
 1114              	.L146:
 1115 0082 00BF     		.align	2
 1116              	.L145:
 1117 0084 1C540258 		.word	1476547612
 1118 0088 08540258 		.word	1476547592
 1119 008c 3F960016 		.word	369137215
 1120 0090 40590258 		.word	1476548928
 1121 0094 3F820010 		.word	268468799
 1122 0098 40090240 		.word	1073875264
ARM GAS  C:\Users\CompuTOP\AppData\Local\Temp\cc4hOfP8.s 			page 57


 1123              		.cfi_endproc
 1124              	.LFE160:
 1126              		.section	.text.HAL_DMA_Init,"ax",%progbits
 1127              		.align	1
 1128              		.global	HAL_DMA_Init
 1129              		.syntax unified
 1130              		.thumb
 1131              		.thumb_func
 1132              		.fpu fpv5-d16
 1134              	HAL_DMA_Init:
 1135              	.LFB144:
 211:Drivers/STM32H7xx_HAL_Driver/Src/stm32h7xx_hal_dma.c ****   uint32_t registerValue;
 1136              		.loc 1 211 0
 1137              		.cfi_startproc
 1138              		@ args = 0, pretend = 0, frame = 0
 1139              		@ frame_needed = 0, uses_anonymous_args = 0
 1140              	.LVL65:
 1141 0000 70B5     		push	{r4, r5, r6, lr}
 1142              	.LCFI8:
 1143              		.cfi_def_cfa_offset 16
 1144              		.cfi_offset 4, -16
 1145              		.cfi_offset 5, -12
 1146              		.cfi_offset 6, -8
 1147              		.cfi_offset 14, -4
 1148 0002 0446     		mov	r4, r0
 213:Drivers/STM32H7xx_HAL_Driver/Src/stm32h7xx_hal_dma.c ****   DMA_Base_Registers *regs_dma;
 1149              		.loc 1 213 0
 1150 0004 FFF7FEFF 		bl	HAL_GetTick
 1151              	.LVL66:
 218:Drivers/STM32H7xx_HAL_Driver/Src/stm32h7xx_hal_dma.c ****   {
 1152              		.loc 1 218 0
 1153 0008 002C     		cmp	r4, #0
 1154 000a 00F01F82 		beq	.L168
 1155 000e 0546     		mov	r5, r0
 233:Drivers/STM32H7xx_HAL_Driver/Src/stm32h7xx_hal_dma.c ****   {
 1156              		.loc 1 233 0
 1157 0010 2368     		ldr	r3, [r4]
 1158 0012 8D49     		ldr	r1, .L226
 1159 0014 8D4A     		ldr	r2, .L226+4
 1160 0016 9342     		cmp	r3, r2
 1161 0018 18BF     		it	ne
 1162 001a 8B42     		cmpne	r3, r1
 1163 001c 0CBF     		ite	eq
 1164 001e 0122     		moveq	r2, #1
 1165 0020 0022     		movne	r2, #0
 1166 0022 2ED0     		beq	.L169
 233:Drivers/STM32H7xx_HAL_Driver/Src/stm32h7xx_hal_dma.c ****   {
 1167              		.loc 1 233 0 is_stmt 0 discriminator 2
 1168 0024 3031     		adds	r1, r1, #48
 1169 0026 8B42     		cmp	r3, r1
 1170 0028 67D0     		beq	.L170
 233:Drivers/STM32H7xx_HAL_Driver/Src/stm32h7xx_hal_dma.c ****   {
 1171              		.loc 1 233 0 discriminator 4
 1172 002a 1831     		adds	r1, r1, #24
 1173 002c 8B42     		cmp	r3, r1
 1174 002e 66D0     		beq	.L171
 233:Drivers/STM32H7xx_HAL_Driver/Src/stm32h7xx_hal_dma.c ****   {
ARM GAS  C:\Users\CompuTOP\AppData\Local\Temp\cc4hOfP8.s 			page 58


 1175              		.loc 1 233 0 discriminator 6
 1176 0030 1831     		adds	r1, r1, #24
 1177 0032 8B42     		cmp	r3, r1
 1178 0034 65D0     		beq	.L172
 233:Drivers/STM32H7xx_HAL_Driver/Src/stm32h7xx_hal_dma.c ****   {
 1179              		.loc 1 233 0 discriminator 8
 1180 0036 1831     		adds	r1, r1, #24
 1181 0038 8B42     		cmp	r3, r1
 1182 003a 64D0     		beq	.L173
 233:Drivers/STM32H7xx_HAL_Driver/Src/stm32h7xx_hal_dma.c ****   {
 1183              		.loc 1 233 0 discriminator 10
 1184 003c 1831     		adds	r1, r1, #24
 1185 003e 8B42     		cmp	r3, r1
 1186 0040 63D0     		beq	.L174
 233:Drivers/STM32H7xx_HAL_Driver/Src/stm32h7xx_hal_dma.c ****   {
 1187              		.loc 1 233 0 discriminator 12
 1188 0042 1831     		adds	r1, r1, #24
 1189 0044 8B42     		cmp	r3, r1
 1190 0046 62D0     		beq	.L175
 233:Drivers/STM32H7xx_HAL_Driver/Src/stm32h7xx_hal_dma.c ****   {
 1191              		.loc 1 233 0 discriminator 14
 1192 0048 01F55671 		add	r1, r1, #856
 1193 004c 8B42     		cmp	r3, r1
 1194 004e 60D0     		beq	.L176
 233:Drivers/STM32H7xx_HAL_Driver/Src/stm32h7xx_hal_dma.c ****   {
 1195              		.loc 1 233 0 discriminator 16
 1196 0050 1831     		adds	r1, r1, #24
 1197 0052 8B42     		cmp	r3, r1
 1198 0054 5FD0     		beq	.L177
 233:Drivers/STM32H7xx_HAL_Driver/Src/stm32h7xx_hal_dma.c ****   {
 1199              		.loc 1 233 0 discriminator 18
 1200 0056 1831     		adds	r1, r1, #24
 1201 0058 8B42     		cmp	r3, r1
 1202 005a 5ED0     		beq	.L178
 233:Drivers/STM32H7xx_HAL_Driver/Src/stm32h7xx_hal_dma.c ****   {
 1203              		.loc 1 233 0 discriminator 20
 1204 005c 1831     		adds	r1, r1, #24
 1205 005e 8B42     		cmp	r3, r1
 1206 0060 5DD0     		beq	.L179
 233:Drivers/STM32H7xx_HAL_Driver/Src/stm32h7xx_hal_dma.c ****   {
 1207              		.loc 1 233 0 discriminator 22
 1208 0062 1831     		adds	r1, r1, #24
 1209 0064 8B42     		cmp	r3, r1
 1210 0066 5CD0     		beq	.L180
 233:Drivers/STM32H7xx_HAL_Driver/Src/stm32h7xx_hal_dma.c ****   {
 1211              		.loc 1 233 0 discriminator 24
 1212 0068 1831     		adds	r1, r1, #24
 1213 006a 8B42     		cmp	r3, r1
 1214 006c 5BD0     		beq	.L181
 233:Drivers/STM32H7xx_HAL_Driver/Src/stm32h7xx_hal_dma.c ****   {
 1215              		.loc 1 233 0 discriminator 26
 1216 006e 1831     		adds	r1, r1, #24
 1217 0070 8B42     		cmp	r3, r1
 1218 0072 5AD0     		beq	.L182
 233:Drivers/STM32H7xx_HAL_Driver/Src/stm32h7xx_hal_dma.c ****   {
 1219              		.loc 1 233 0 discriminator 28
 1220 0074 1831     		adds	r1, r1, #24
ARM GAS  C:\Users\CompuTOP\AppData\Local\Temp\cc4hOfP8.s 			page 59


 1221 0076 8B42     		cmp	r3, r1
 1222 0078 01D0     		beq	.L217
 233:Drivers/STM32H7xx_HAL_Driver/Src/stm32h7xx_hal_dma.c ****   {
 1223              		.loc 1 233 0
 1224 007a 0026     		movs	r6, #0
 1225 007c 02E0     		b	.L149
 1226              	.L217:
 1227 007e 0126     		movs	r6, #1
 1228 0080 00E0     		b	.L149
 1229              	.L169:
 1230 0082 0126     		movs	r6, #1
 1231              	.L149:
 233:Drivers/STM32H7xx_HAL_Driver/Src/stm32h7xx_hal_dma.c ****   {
 1232              		.loc 1 233 0 discriminator 32
 1233 0084 002E     		cmp	r6, #0
 1234 0086 00F0BF80 		beq	.L150
 247:Drivers/STM32H7xx_HAL_Driver/Src/stm32h7xx_hal_dma.c **** 
 1235              		.loc 1 247 0 is_stmt 1
 1236 008a 0221     		movs	r1, #2
 1237 008c 84F83510 		strb	r1, [r4, #53]
 250:Drivers/STM32H7xx_HAL_Driver/Src/stm32h7xx_hal_dma.c **** 
 1238              		.loc 1 250 0
 1239 0090 0021     		movs	r1, #0
 1240 0092 84F83410 		strb	r1, [r4, #52]
 253:Drivers/STM32H7xx_HAL_Driver/Src/stm32h7xx_hal_dma.c **** 
 1241              		.loc 1 253 0
 1242 0096 002A     		cmp	r2, #0
 1243 0098 49D1     		bne	.L151
 253:Drivers/STM32H7xx_HAL_Driver/Src/stm32h7xx_hal_dma.c **** 
 1244              		.loc 1 253 0 is_stmt 0 discriminator 2
 1245 009a 6D4A     		ldr	r2, .L226+8
 1246 009c 9342     		cmp	r3, r2
 1247 009e 46D0     		beq	.L151
 253:Drivers/STM32H7xx_HAL_Driver/Src/stm32h7xx_hal_dma.c **** 
 1248              		.loc 1 253 0 discriminator 4
 1249 00a0 1832     		adds	r2, r2, #24
 1250 00a2 9342     		cmp	r3, r2
 1251 00a4 43D0     		beq	.L151
 253:Drivers/STM32H7xx_HAL_Driver/Src/stm32h7xx_hal_dma.c **** 
 1252              		.loc 1 253 0 discriminator 6
 1253 00a6 1832     		adds	r2, r2, #24
 1254 00a8 9342     		cmp	r3, r2
 1255 00aa 40D0     		beq	.L151
 253:Drivers/STM32H7xx_HAL_Driver/Src/stm32h7xx_hal_dma.c **** 
 1256              		.loc 1 253 0 discriminator 8
 1257 00ac 1832     		adds	r2, r2, #24
 1258 00ae 9342     		cmp	r3, r2
 1259 00b0 3DD0     		beq	.L151
 253:Drivers/STM32H7xx_HAL_Driver/Src/stm32h7xx_hal_dma.c **** 
 1260              		.loc 1 253 0 discriminator 10
 1261 00b2 1832     		adds	r2, r2, #24
 1262 00b4 9342     		cmp	r3, r2
 1263 00b6 3AD0     		beq	.L151
 253:Drivers/STM32H7xx_HAL_Driver/Src/stm32h7xx_hal_dma.c **** 
 1264              		.loc 1 253 0 discriminator 12
 1265 00b8 1832     		adds	r2, r2, #24
 1266 00ba 9342     		cmp	r3, r2
ARM GAS  C:\Users\CompuTOP\AppData\Local\Temp\cc4hOfP8.s 			page 60


 1267 00bc 37D0     		beq	.L151
 253:Drivers/STM32H7xx_HAL_Driver/Src/stm32h7xx_hal_dma.c **** 
 1268              		.loc 1 253 0 discriminator 14
 1269 00be 02F55672 		add	r2, r2, #856
 1270 00c2 9342     		cmp	r3, r2
 1271 00c4 33D0     		beq	.L151
 253:Drivers/STM32H7xx_HAL_Driver/Src/stm32h7xx_hal_dma.c **** 
 1272              		.loc 1 253 0 discriminator 16
 1273 00c6 1832     		adds	r2, r2, #24
 1274 00c8 9342     		cmp	r3, r2
 1275 00ca 30D0     		beq	.L151
 253:Drivers/STM32H7xx_HAL_Driver/Src/stm32h7xx_hal_dma.c **** 
 1276              		.loc 1 253 0 discriminator 18
 1277 00cc 1832     		adds	r2, r2, #24
 1278 00ce 9342     		cmp	r3, r2
 1279 00d0 2DD0     		beq	.L151
 253:Drivers/STM32H7xx_HAL_Driver/Src/stm32h7xx_hal_dma.c **** 
 1280              		.loc 1 253 0 discriminator 20
 1281 00d2 1832     		adds	r2, r2, #24
 1282 00d4 9342     		cmp	r3, r2
 1283 00d6 2AD0     		beq	.L151
 253:Drivers/STM32H7xx_HAL_Driver/Src/stm32h7xx_hal_dma.c **** 
 1284              		.loc 1 253 0 discriminator 22
 1285 00d8 1832     		adds	r2, r2, #24
 1286 00da 9342     		cmp	r3, r2
 1287 00dc 27D0     		beq	.L151
 253:Drivers/STM32H7xx_HAL_Driver/Src/stm32h7xx_hal_dma.c **** 
 1288              		.loc 1 253 0 discriminator 24
 1289 00de 1832     		adds	r2, r2, #24
 1290 00e0 9342     		cmp	r3, r2
 1291 00e2 24D0     		beq	.L151
 253:Drivers/STM32H7xx_HAL_Driver/Src/stm32h7xx_hal_dma.c **** 
 1292              		.loc 1 253 0 discriminator 26
 1293 00e4 1832     		adds	r2, r2, #24
 1294 00e6 9342     		cmp	r3, r2
 1295 00e8 21D0     		beq	.L151
 253:Drivers/STM32H7xx_HAL_Driver/Src/stm32h7xx_hal_dma.c **** 
 1296              		.loc 1 253 0 discriminator 28
 1297 00ea 1832     		adds	r2, r2, #24
 1298 00ec 9342     		cmp	r3, r2
 1299 00ee 1ED0     		beq	.L151
 253:Drivers/STM32H7xx_HAL_Driver/Src/stm32h7xx_hal_dma.c **** 
 1300              		.loc 1 253 0 discriminator 30
 1301 00f0 1A68     		ldr	r2, [r3]
 1302 00f2 22F00102 		bic	r2, r2, #1
 1303 00f6 1A60     		str	r2, [r3]
 1304 00f8 1DE0     		b	.L154
 1305              	.L170:
 233:Drivers/STM32H7xx_HAL_Driver/Src/stm32h7xx_hal_dma.c ****   {
 1306              		.loc 1 233 0 is_stmt 1
 1307 00fa 0126     		movs	r6, #1
 1308 00fc C2E7     		b	.L149
 1309              	.L171:
 1310 00fe 0126     		movs	r6, #1
 1311 0100 C0E7     		b	.L149
 1312              	.L172:
 1313 0102 0126     		movs	r6, #1
ARM GAS  C:\Users\CompuTOP\AppData\Local\Temp\cc4hOfP8.s 			page 61


 1314 0104 BEE7     		b	.L149
 1315              	.L173:
 1316 0106 0126     		movs	r6, #1
 1317 0108 BCE7     		b	.L149
 1318              	.L174:
 1319 010a 0126     		movs	r6, #1
 1320 010c BAE7     		b	.L149
 1321              	.L175:
 1322 010e 0126     		movs	r6, #1
 1323 0110 B8E7     		b	.L149
 1324              	.L176:
 1325 0112 0126     		movs	r6, #1
 1326 0114 B6E7     		b	.L149
 1327              	.L177:
 1328 0116 0126     		movs	r6, #1
 1329 0118 B4E7     		b	.L149
 1330              	.L178:
 1331 011a 0126     		movs	r6, #1
 1332 011c B2E7     		b	.L149
 1333              	.L179:
 1334 011e 0126     		movs	r6, #1
 1335 0120 B0E7     		b	.L149
 1336              	.L180:
 1337 0122 0126     		movs	r6, #1
 1338 0124 AEE7     		b	.L149
 1339              	.L181:
 1340 0126 0126     		movs	r6, #1
 1341 0128 ACE7     		b	.L149
 1342              	.L182:
 1343 012a 0126     		movs	r6, #1
 1344 012c AAE7     		b	.L149
 1345              	.L151:
 253:Drivers/STM32H7xx_HAL_Driver/Src/stm32h7xx_hal_dma.c **** 
 1346              		.loc 1 253 0 discriminator 29
 1347 012e 1A68     		ldr	r2, [r3]
 1348 0130 22F00102 		bic	r2, r2, #1
 1349 0134 1A60     		str	r2, [r3]
 1350              	.LVL67:
 1351              	.L154:
 256:Drivers/STM32H7xx_HAL_Driver/Src/stm32h7xx_hal_dma.c ****     {
 1352              		.loc 1 256 0
 1353 0136 2368     		ldr	r3, [r4]
 1354 0138 1A68     		ldr	r2, [r3]
 1355 013a 12F0010F 		tst	r2, #1
 1356 013e 0BD0     		beq	.L218
 259:Drivers/STM32H7xx_HAL_Driver/Src/stm32h7xx_hal_dma.c ****       {
 1357              		.loc 1 259 0
 1358 0140 FFF7FEFF 		bl	HAL_GetTick
 1359              	.LVL68:
 1360 0144 401B     		subs	r0, r0, r5
 1361 0146 0528     		cmp	r0, #5
 1362 0148 F5D9     		bls	.L154
 262:Drivers/STM32H7xx_HAL_Driver/Src/stm32h7xx_hal_dma.c **** 
 1363              		.loc 1 262 0
 1364 014a 2023     		movs	r3, #32
 1365 014c 6365     		str	r3, [r4, #84]
 265:Drivers/STM32H7xx_HAL_Driver/Src/stm32h7xx_hal_dma.c **** 
ARM GAS  C:\Users\CompuTOP\AppData\Local\Temp\cc4hOfP8.s 			page 62


 1366              		.loc 1 265 0
 1367 014e 0323     		movs	r3, #3
 1368 0150 84F83530 		strb	r3, [r4, #53]
 267:Drivers/STM32H7xx_HAL_Driver/Src/stm32h7xx_hal_dma.c ****       }
 1369              		.loc 1 267 0
 1370 0154 0120     		movs	r0, #1
 1371 0156 70BD     		pop	{r4, r5, r6, pc}
 1372              	.LVL69:
 1373              	.L218:
 272:Drivers/STM32H7xx_HAL_Driver/Src/stm32h7xx_hal_dma.c **** 
 1374              		.loc 1 272 0
 1375 0158 1A68     		ldr	r2, [r3]
 1376              	.LVL70:
 275:Drivers/STM32H7xx_HAL_Driver/Src/stm32h7xx_hal_dma.c ****                         DMA_SxCR_PL    | DMA_SxCR_MSIZE  | DMA_SxCR_PSIZE  | \
 1377              		.loc 1 275 0
 1378 015a 3E48     		ldr	r0, .L226+12
 1379 015c 1040     		ands	r0, r0, r2
 1380              	.LVL71:
 281:Drivers/STM32H7xx_HAL_Driver/Src/stm32h7xx_hal_dma.c ****             hdma->Init.PeriphInc           | hdma->Init.MemInc           |
 1381              		.loc 1 281 0
 1382 015e A168     		ldr	r1, [r4, #8]
 282:Drivers/STM32H7xx_HAL_Driver/Src/stm32h7xx_hal_dma.c ****             hdma->Init.PeriphDataAlignment | hdma->Init.MemDataAlignment |
 1383              		.loc 1 282 0
 1384 0160 E268     		ldr	r2, [r4, #12]
 281:Drivers/STM32H7xx_HAL_Driver/Src/stm32h7xx_hal_dma.c ****             hdma->Init.PeriphInc           | hdma->Init.MemInc           |
 1385              		.loc 1 281 0
 1386 0162 0A43     		orrs	r2, r2, r1
 282:Drivers/STM32H7xx_HAL_Driver/Src/stm32h7xx_hal_dma.c ****             hdma->Init.PeriphDataAlignment | hdma->Init.MemDataAlignment |
 1387              		.loc 1 282 0
 1388 0164 2169     		ldr	r1, [r4, #16]
 1389 0166 0A43     		orrs	r2, r2, r1
 283:Drivers/STM32H7xx_HAL_Driver/Src/stm32h7xx_hal_dma.c ****             hdma->Init.Mode                | hdma->Init.Priority;
 1390              		.loc 1 283 0
 1391 0168 6169     		ldr	r1, [r4, #20]
 282:Drivers/STM32H7xx_HAL_Driver/Src/stm32h7xx_hal_dma.c ****             hdma->Init.PeriphDataAlignment | hdma->Init.MemDataAlignment |
 1392              		.loc 1 282 0
 1393 016a 0A43     		orrs	r2, r2, r1
 283:Drivers/STM32H7xx_HAL_Driver/Src/stm32h7xx_hal_dma.c ****             hdma->Init.Mode                | hdma->Init.Priority;
 1394              		.loc 1 283 0
 1395 016c A169     		ldr	r1, [r4, #24]
 1396 016e 0A43     		orrs	r2, r2, r1
 284:Drivers/STM32H7xx_HAL_Driver/Src/stm32h7xx_hal_dma.c **** 
 1397              		.loc 1 284 0
 1398 0170 E169     		ldr	r1, [r4, #28]
 283:Drivers/STM32H7xx_HAL_Driver/Src/stm32h7xx_hal_dma.c ****             hdma->Init.Mode                | hdma->Init.Priority;
 1399              		.loc 1 283 0
 1400 0172 0A43     		orrs	r2, r2, r1
 284:Drivers/STM32H7xx_HAL_Driver/Src/stm32h7xx_hal_dma.c **** 
 1401              		.loc 1 284 0
 1402 0174 216A     		ldr	r1, [r4, #32]
 1403 0176 0A43     		orrs	r2, r2, r1
 281:Drivers/STM32H7xx_HAL_Driver/Src/stm32h7xx_hal_dma.c ****             hdma->Init.PeriphInc           | hdma->Init.MemInc           |
 1404              		.loc 1 281 0
 1405 0178 0243     		orrs	r2, r2, r0
 1406              	.LVL72:
 287:Drivers/STM32H7xx_HAL_Driver/Src/stm32h7xx_hal_dma.c ****     {
 1407              		.loc 1 287 0
ARM GAS  C:\Users\CompuTOP\AppData\Local\Temp\cc4hOfP8.s 			page 63


 1408 017a 616A     		ldr	r1, [r4, #36]
 1409 017c 0429     		cmp	r1, #4
 1410 017e 2ED0     		beq	.L219
 1411              	.L156:
 296:Drivers/STM32H7xx_HAL_Driver/Src/stm32h7xx_hal_dma.c ****     {
 1412              		.loc 1 296 0
 1413 0180 3549     		ldr	r1, .L226+16
 1414 0182 0868     		ldr	r0, [r1]
 1415 0184 3549     		ldr	r1, .L226+20
 1416 0186 0140     		ands	r1, r1, r0
 1417 0188 B1F1005F 		cmp	r1, #536870912
 1418 018c 13D3     		bcc	.L157
 299:Drivers/STM32H7xx_HAL_Driver/Src/stm32h7xx_hal_dma.c ****       {
 1419              		.loc 1 299 0
 1420 018e 6168     		ldr	r1, [r4, #4]
 1421 0190 A1F12905 		sub	r5, r1, #41
 1422              	.LVL73:
 1423 0194 A1F13F00 		sub	r0, r1, #63
 1424 0198 0328     		cmp	r0, #3
 1425 019a 88BF     		it	hi
 1426 019c 052D     		cmphi	r5, #5
 1427 019e 07D9     		bls	.L158
 299:Drivers/STM32H7xx_HAL_Driver/Src/stm32h7xx_hal_dma.c ****       {
 1428              		.loc 1 299 0 is_stmt 0 discriminator 2
 1429 01a0 A1F14700 		sub	r0, r1, #71
 1430 01a4 0128     		cmp	r0, #1
 1431 01a6 03D9     		bls	.L158
 299:Drivers/STM32H7xx_HAL_Driver/Src/stm32h7xx_hal_dma.c ****       {
 1432              		.loc 1 299 0 discriminator 4
 1433 01a8 4F39     		subs	r1, r1, #79
 1434 01aa 0329     		cmp	r1, #3
 1435 01ac 00D9     		bls	.L158
 299:Drivers/STM32H7xx_HAL_Driver/Src/stm32h7xx_hal_dma.c ****       {
 1436              		.loc 1 299 0
 1437 01ae 0026     		movs	r6, #0
 1438              	.L158:
 299:Drivers/STM32H7xx_HAL_Driver/Src/stm32h7xx_hal_dma.c ****       {
 1439              		.loc 1 299 0 discriminator 8
 1440 01b0 0EB1     		cbz	r6, .L157
 301:Drivers/STM32H7xx_HAL_Driver/Src/stm32h7xx_hal_dma.c ****       }
 1441              		.loc 1 301 0 is_stmt 1
 1442 01b2 42F48012 		orr	r2, r2, #1048576
 1443              	.LVL74:
 1444              	.L157:
 308:Drivers/STM32H7xx_HAL_Driver/Src/stm32h7xx_hal_dma.c **** 
 1445              		.loc 1 308 0
 1446 01b6 1A60     		str	r2, [r3]
 311:Drivers/STM32H7xx_HAL_Driver/Src/stm32h7xx_hal_dma.c **** 
 1447              		.loc 1 311 0
 1448 01b8 2668     		ldr	r6, [r4]
 1449 01ba 7569     		ldr	r5, [r6, #20]
 1450              	.LVL75:
 314:Drivers/STM32H7xx_HAL_Driver/Src/stm32h7xx_hal_dma.c **** 
 1451              		.loc 1 314 0
 1452 01bc 25F00705 		bic	r5, r5, #7
 1453              	.LVL76:
 317:Drivers/STM32H7xx_HAL_Driver/Src/stm32h7xx_hal_dma.c **** 
ARM GAS  C:\Users\CompuTOP\AppData\Local\Temp\cc4hOfP8.s 			page 64


 1454              		.loc 1 317 0
 1455 01c0 636A     		ldr	r3, [r4, #36]
 1456 01c2 1D43     		orrs	r5, r5, r3
 1457              	.LVL77:
 320:Drivers/STM32H7xx_HAL_Driver/Src/stm32h7xx_hal_dma.c ****     {
 1458              		.loc 1 320 0
 1459 01c4 042B     		cmp	r3, #4
 1460 01c6 0FD0     		beq	.L220
 1461              	.L159:
 343:Drivers/STM32H7xx_HAL_Driver/Src/stm32h7xx_hal_dma.c **** 
 1462              		.loc 1 343 0
 1463 01c8 7561     		str	r5, [r6, #20]
 347:Drivers/STM32H7xx_HAL_Driver/Src/stm32h7xx_hal_dma.c **** 
 1464              		.loc 1 347 0
 1465 01ca 2046     		mov	r0, r4
 1466 01cc FFF7FEFF 		bl	DMA_CalcBaseAndBitshift
 1467              	.LVL78:
 350:Drivers/STM32H7xx_HAL_Driver/Src/stm32h7xx_hal_dma.c ****   }
 1468              		.loc 1 350 0
 1469 01d0 E36D     		ldr	r3, [r4, #92]
 1470 01d2 03F01F02 		and	r2, r3, #31
 1471 01d6 3F23     		movs	r3, #63
 1472 01d8 9340     		lsls	r3, r3, r2
 1473 01da 8360     		str	r3, [r0, #8]
 1474 01dc 7EE0     		b	.L160
 1475              	.LVL79:
 1476              	.L219:
 290:Drivers/STM32H7xx_HAL_Driver/Src/stm32h7xx_hal_dma.c ****     }
 1477              		.loc 1 290 0
 1478 01de E16A     		ldr	r1, [r4, #44]
 1479 01e0 206B     		ldr	r0, [r4, #48]
 1480 01e2 0143     		orrs	r1, r1, r0
 1481 01e4 0A43     		orrs	r2, r2, r1
 1482              	.LVL80:
 1483 01e6 CBE7     		b	.L156
 1484              	.LVL81:
 1485              	.L220:
 323:Drivers/STM32H7xx_HAL_Driver/Src/stm32h7xx_hal_dma.c **** 
 1486              		.loc 1 323 0
 1487 01e8 A36A     		ldr	r3, [r4, #40]
 1488 01ea 1D43     		orrs	r5, r5, r3
 1489              	.LVL82:
 327:Drivers/STM32H7xx_HAL_Driver/Src/stm32h7xx_hal_dma.c ****       {
 1490              		.loc 1 327 0
 1491 01ec E36A     		ldr	r3, [r4, #44]
 1492 01ee 002B     		cmp	r3, #0
 1493 01f0 EAD0     		beq	.L159
 329:Drivers/STM32H7xx_HAL_Driver/Src/stm32h7xx_hal_dma.c ****         {
 1494              		.loc 1 329 0
 1495 01f2 2046     		mov	r0, r4
 1496 01f4 FFF7FEFF 		bl	DMA_CheckFifoParam
 1497              	.LVL83:
 1498 01f8 0028     		cmp	r0, #0
 1499 01fa E5D0     		beq	.L159
 332:Drivers/STM32H7xx_HAL_Driver/Src/stm32h7xx_hal_dma.c **** 
 1500              		.loc 1 332 0
 1501 01fc 4023     		movs	r3, #64
ARM GAS  C:\Users\CompuTOP\AppData\Local\Temp\cc4hOfP8.s 			page 65


 1502 01fe 6365     		str	r3, [r4, #84]
 335:Drivers/STM32H7xx_HAL_Driver/Src/stm32h7xx_hal_dma.c **** 
 1503              		.loc 1 335 0
 1504 0200 0120     		movs	r0, #1
 1505 0202 84F83500 		strb	r0, [r4, #53]
 337:Drivers/STM32H7xx_HAL_Driver/Src/stm32h7xx_hal_dma.c ****         }
 1506              		.loc 1 337 0
 1507 0206 70BD     		pop	{r4, r5, r6, pc}
 1508              	.LVL84:
 1509              	.L150:
 352:Drivers/STM32H7xx_HAL_Driver/Src/stm32h7xx_hal_dma.c ****   {
 1510              		.loc 1 352 0
 1511 0208 154A     		ldr	r2, .L226+24
 1512 020a 1649     		ldr	r1, .L226+28
 1513 020c 9342     		cmp	r3, r2
 1514 020e 18BF     		it	ne
 1515 0210 8B42     		cmpne	r3, r1
 1516 0212 29D0     		beq	.L185
 352:Drivers/STM32H7xx_HAL_Driver/Src/stm32h7xx_hal_dma.c ****   {
 1517              		.loc 1 352 0 is_stmt 0 discriminator 2
 1518 0214 1432     		adds	r2, r2, #20
 1519 0216 9342     		cmp	r3, r2
 1520 0218 00F0AC80 		beq	.L186
 352:Drivers/STM32H7xx_HAL_Driver/Src/stm32h7xx_hal_dma.c ****   {
 1521              		.loc 1 352 0 discriminator 4
 1522 021c 1432     		adds	r2, r2, #20
 1523 021e 9342     		cmp	r3, r2
 1524 0220 00F0AA80 		beq	.L187
 352:Drivers/STM32H7xx_HAL_Driver/Src/stm32h7xx_hal_dma.c ****   {
 1525              		.loc 1 352 0 discriminator 6
 1526 0224 1432     		adds	r2, r2, #20
 1527 0226 9342     		cmp	r3, r2
 1528 0228 00F0A880 		beq	.L188
 352:Drivers/STM32H7xx_HAL_Driver/Src/stm32h7xx_hal_dma.c ****   {
 1529              		.loc 1 352 0 discriminator 8
 1530 022c 1432     		adds	r2, r2, #20
 1531 022e 9342     		cmp	r3, r2
 1532 0230 00F0A680 		beq	.L189
 352:Drivers/STM32H7xx_HAL_Driver/Src/stm32h7xx_hal_dma.c ****   {
 1533              		.loc 1 352 0 discriminator 10
 1534 0234 1432     		adds	r2, r2, #20
 1535 0236 9342     		cmp	r3, r2
 1536 0238 00F0A480 		beq	.L190
 352:Drivers/STM32H7xx_HAL_Driver/Src/stm32h7xx_hal_dma.c ****   {
 1537              		.loc 1 352 0 discriminator 12
 1538 023c 1432     		adds	r2, r2, #20
 1539 023e 9342     		cmp	r3, r2
 1540 0240 13D1     		bne	.L161
 352:Drivers/STM32H7xx_HAL_Driver/Src/stm32h7xx_hal_dma.c ****   {
 1541              		.loc 1 352 0
 1542 0242 0126     		movs	r6, #1
 1543 0244 11E0     		b	.L161
 1544              	.L227:
 1545 0246 00BF     		.align	2
 1546              	.L226:
 1547 0248 10000240 		.word	1073872912
 1548 024c 28000240 		.word	1073872936
ARM GAS  C:\Users\CompuTOP\AppData\Local\Temp\cc4hOfP8.s 			page 66


 1549 0250 40000240 		.word	1073872960
 1550 0254 3F8010FE 		.word	-32473025
 1551 0258 0010005C 		.word	1543507968
 1552 025c 0000FFFF 		.word	-65536
 1553 0260 1C540258 		.word	1476547612
 1554 0264 08540258 		.word	1476547592
 1555              	.L185:
 1556 0268 0126     		movs	r6, #1
 1557              	.L161:
 352:Drivers/STM32H7xx_HAL_Driver/Src/stm32h7xx_hal_dma.c ****   {
 1558              		.loc 1 352 0 discriminator 16
 1559 026a 002E     		cmp	r6, #0
 1560 026c 00F09180 		beq	.L162
 361:Drivers/STM32H7xx_HAL_Driver/Src/stm32h7xx_hal_dma.c **** 
 1561              		.loc 1 361 0 is_stmt 1
 1562 0270 0222     		movs	r2, #2
 1563 0272 84F83520 		strb	r2, [r4, #53]
 364:Drivers/STM32H7xx_HAL_Driver/Src/stm32h7xx_hal_dma.c **** 
 1564              		.loc 1 364 0
 1565 0276 0022     		movs	r2, #0
 1566 0278 84F83420 		strb	r2, [r4, #52]
 367:Drivers/STM32H7xx_HAL_Driver/Src/stm32h7xx_hal_dma.c **** 
 1567              		.loc 1 367 0
 1568 027c 1A68     		ldr	r2, [r3]
 1569              	.LVL85:
 370:Drivers/STM32H7xx_HAL_Driver/Src/stm32h7xx_hal_dma.c ****                                   BDMA_CCR_MINC  | BDMA_CCR_PINC    | BDMA_CCR_CIRC   | \
 1570              		.loc 1 370 0
 1571 027e 7449     		ldr	r1, .L228
 1572 0280 1140     		ands	r1, r1, r2
 1573              	.LVL86:
 376:Drivers/STM32H7xx_HAL_Driver/Src/stm32h7xx_hal_dma.c ****                       DMA_TO_BDMA_PERIPHERAL_INC(hdma->Init.PeriphInc)       |
 1574              		.loc 1 376 0
 1575 0282 A268     		ldr	r2, [r4, #8]
 1576 0284 402A     		cmp	r2, #64
 1577 0286 00F08280 		beq	.L191
 376:Drivers/STM32H7xx_HAL_Driver/Src/stm32h7xx_hal_dma.c ****                       DMA_TO_BDMA_PERIPHERAL_INC(hdma->Init.PeriphInc)       |
 1578              		.loc 1 376 0 is_stmt 0 discriminator 1
 1579 028a 802A     		cmp	r2, #128
 1580 028c 7CD0     		beq	.L221
 376:Drivers/STM32H7xx_HAL_Driver/Src/stm32h7xx_hal_dma.c ****                       DMA_TO_BDMA_PERIPHERAL_INC(hdma->Init.PeriphInc)       |
 1581              		.loc 1 376 0
 1582 028e 0022     		movs	r2, #0
 1583              	.L163:
 377:Drivers/STM32H7xx_HAL_Driver/Src/stm32h7xx_hal_dma.c ****                       DMA_TO_BDMA_MEMORY_INC(hdma->Init.MemInc)              |
 1584              		.loc 1 377 0 is_stmt 1
 1585 0290 E068     		ldr	r0, [r4, #12]
 1586              	.LVL87:
 376:Drivers/STM32H7xx_HAL_Driver/Src/stm32h7xx_hal_dma.c ****                       DMA_TO_BDMA_PERIPHERAL_INC(hdma->Init.PeriphInc)       |
 1587              		.loc 1 376 0
 1588 0292 42EAD002 		orr	r2, r2, r0, lsr #3
 378:Drivers/STM32H7xx_HAL_Driver/Src/stm32h7xx_hal_dma.c ****                       DMA_TO_BDMA_PDATA_SIZE(hdma->Init.PeriphDataAlignment) |
 1589              		.loc 1 378 0
 1590 0296 2069     		ldr	r0, [r4, #16]
 377:Drivers/STM32H7xx_HAL_Driver/Src/stm32h7xx_hal_dma.c ****                       DMA_TO_BDMA_MEMORY_INC(hdma->Init.MemInc)              |
 1591              		.loc 1 377 0
 1592 0298 42EAD002 		orr	r2, r2, r0, lsr #3
 379:Drivers/STM32H7xx_HAL_Driver/Src/stm32h7xx_hal_dma.c ****                       DMA_TO_BDMA_MDATA_SIZE(hdma->Init.MemDataAlignment)    |
ARM GAS  C:\Users\CompuTOP\AppData\Local\Temp\cc4hOfP8.s 			page 67


 1593              		.loc 1 379 0
 1594 029c 6069     		ldr	r0, [r4, #20]
 378:Drivers/STM32H7xx_HAL_Driver/Src/stm32h7xx_hal_dma.c ****                       DMA_TO_BDMA_PDATA_SIZE(hdma->Init.PeriphDataAlignment) |
 1595              		.loc 1 378 0
 1596 029e 42EAD002 		orr	r2, r2, r0, lsr #3
 380:Drivers/STM32H7xx_HAL_Driver/Src/stm32h7xx_hal_dma.c ****                       DMA_TO_BDMA_MODE(hdma->Init.Mode)                      |
 1597              		.loc 1 380 0
 1598 02a2 A069     		ldr	r0, [r4, #24]
 379:Drivers/STM32H7xx_HAL_Driver/Src/stm32h7xx_hal_dma.c ****                       DMA_TO_BDMA_MDATA_SIZE(hdma->Init.MemDataAlignment)    |
 1599              		.loc 1 379 0
 1600 02a4 42EAD002 		orr	r2, r2, r0, lsr #3
 381:Drivers/STM32H7xx_HAL_Driver/Src/stm32h7xx_hal_dma.c ****                       DMA_TO_BDMA_PRIORITY(hdma->Init.Priority);
 1601              		.loc 1 381 0
 1602 02a8 E069     		ldr	r0, [r4, #28]
 380:Drivers/STM32H7xx_HAL_Driver/Src/stm32h7xx_hal_dma.c ****                       DMA_TO_BDMA_MODE(hdma->Init.Mode)                      |
 1603              		.loc 1 380 0
 1604 02aa 42EAD002 		orr	r2, r2, r0, lsr #3
 382:Drivers/STM32H7xx_HAL_Driver/Src/stm32h7xx_hal_dma.c **** 
 1605              		.loc 1 382 0
 1606 02ae 206A     		ldr	r0, [r4, #32]
 381:Drivers/STM32H7xx_HAL_Driver/Src/stm32h7xx_hal_dma.c ****                       DMA_TO_BDMA_PRIORITY(hdma->Init.Priority);
 1607              		.loc 1 381 0
 1608 02b0 42EA1012 		orr	r2, r2, r0, lsr #4
 376:Drivers/STM32H7xx_HAL_Driver/Src/stm32h7xx_hal_dma.c ****                       DMA_TO_BDMA_PERIPHERAL_INC(hdma->Init.PeriphInc)       |
 1609              		.loc 1 376 0
 1610 02b4 0A43     		orrs	r2, r2, r1
 1611              	.LVL88:
 385:Drivers/STM32H7xx_HAL_Driver/Src/stm32h7xx_hal_dma.c **** 
 1612              		.loc 1 385 0
 1613 02b6 1A60     		str	r2, [r3]
 388:Drivers/STM32H7xx_HAL_Driver/Src/stm32h7xx_hal_dma.c **** 
 1614              		.loc 1 388 0
 1615 02b8 2268     		ldr	r2, [r4]
 1616              	.LVL89:
 1617 02ba 664B     		ldr	r3, .L228+4
 1618              	.LVL90:
 1619 02bc 1344     		add	r3, r3, r2
 1620 02be 664A     		ldr	r2, .L228+8
 1621 02c0 A2FB0323 		umull	r2, r3, r2, r3
 1622 02c4 1B09     		lsrs	r3, r3, #4
 1623 02c6 9B00     		lsls	r3, r3, #2
 1624 02c8 E365     		str	r3, [r4, #92]
 392:Drivers/STM32H7xx_HAL_Driver/Src/stm32h7xx_hal_dma.c **** 
 1625              		.loc 1 392 0
 1626 02ca 2046     		mov	r0, r4
 1627 02cc FFF7FEFF 		bl	DMA_CalcBaseAndBitshift
 1628              	.LVL91:
 395:Drivers/STM32H7xx_HAL_Driver/Src/stm32h7xx_hal_dma.c ****   }
 1629              		.loc 1 395 0
 1630 02d0 E36D     		ldr	r3, [r4, #92]
 1631 02d2 03F01F02 		and	r2, r3, #31
 1632 02d6 0123     		movs	r3, #1
 1633 02d8 9340     		lsls	r3, r3, r2
 1634 02da 4360     		str	r3, [r0, #4]
 1635              	.LVL92:
 1636              	.L160:
 405:Drivers/STM32H7xx_HAL_Driver/Src/stm32h7xx_hal_dma.c ****   {
ARM GAS  C:\Users\CompuTOP\AppData\Local\Temp\cc4hOfP8.s 			page 68


 1637              		.loc 1 405 0
 1638 02dc 2368     		ldr	r3, [r4]
 1639 02de 5F4A     		ldr	r2, .L228+12
 1640 02e0 5F49     		ldr	r1, .L228+16
 1641 02e2 9342     		cmp	r3, r2
 1642 02e4 18BF     		it	ne
 1643 02e6 8B42     		cmpne	r3, r1
 1644 02e8 5CD0     		beq	.L193
 405:Drivers/STM32H7xx_HAL_Driver/Src/stm32h7xx_hal_dma.c ****   {
 1645              		.loc 1 405 0 is_stmt 0 discriminator 2
 1646 02ea 1832     		adds	r2, r2, #24
 1647 02ec 9342     		cmp	r3, r2
 1648 02ee 61D0     		beq	.L194
 405:Drivers/STM32H7xx_HAL_Driver/Src/stm32h7xx_hal_dma.c ****   {
 1649              		.loc 1 405 0 discriminator 4
 1650 02f0 1832     		adds	r2, r2, #24
 1651 02f2 9342     		cmp	r3, r2
 1652 02f4 60D0     		beq	.L195
 405:Drivers/STM32H7xx_HAL_Driver/Src/stm32h7xx_hal_dma.c ****   {
 1653              		.loc 1 405 0 discriminator 6
 1654 02f6 1832     		adds	r2, r2, #24
 1655 02f8 9342     		cmp	r3, r2
 1656 02fa 5FD0     		beq	.L196
 405:Drivers/STM32H7xx_HAL_Driver/Src/stm32h7xx_hal_dma.c ****   {
 1657              		.loc 1 405 0 discriminator 8
 1658 02fc 1832     		adds	r2, r2, #24
 1659 02fe 9342     		cmp	r3, r2
 1660 0300 5ED0     		beq	.L197
 405:Drivers/STM32H7xx_HAL_Driver/Src/stm32h7xx_hal_dma.c ****   {
 1661              		.loc 1 405 0 discriminator 10
 1662 0302 1832     		adds	r2, r2, #24
 1663 0304 9342     		cmp	r3, r2
 1664 0306 5DD0     		beq	.L198
 405:Drivers/STM32H7xx_HAL_Driver/Src/stm32h7xx_hal_dma.c ****   {
 1665              		.loc 1 405 0 discriminator 12
 1666 0308 1832     		adds	r2, r2, #24
 1667 030a 9342     		cmp	r3, r2
 1668 030c 5CD0     		beq	.L199
 405:Drivers/STM32H7xx_HAL_Driver/Src/stm32h7xx_hal_dma.c ****   {
 1669              		.loc 1 405 0 discriminator 14
 1670 030e 02F55672 		add	r2, r2, #856
 1671 0312 9342     		cmp	r3, r2
 1672 0314 5AD0     		beq	.L200
 405:Drivers/STM32H7xx_HAL_Driver/Src/stm32h7xx_hal_dma.c ****   {
 1673              		.loc 1 405 0 discriminator 16
 1674 0316 1832     		adds	r2, r2, #24
 1675 0318 9342     		cmp	r3, r2
 1676 031a 59D0     		beq	.L201
 405:Drivers/STM32H7xx_HAL_Driver/Src/stm32h7xx_hal_dma.c ****   {
 1677              		.loc 1 405 0 discriminator 18
 1678 031c 1832     		adds	r2, r2, #24
 1679 031e 9342     		cmp	r3, r2
 1680 0320 58D0     		beq	.L202
 405:Drivers/STM32H7xx_HAL_Driver/Src/stm32h7xx_hal_dma.c ****   {
 1681              		.loc 1 405 0 discriminator 20
 1682 0322 1832     		adds	r2, r2, #24
 1683 0324 9342     		cmp	r3, r2
ARM GAS  C:\Users\CompuTOP\AppData\Local\Temp\cc4hOfP8.s 			page 69


 1684 0326 57D0     		beq	.L203
 405:Drivers/STM32H7xx_HAL_Driver/Src/stm32h7xx_hal_dma.c ****   {
 1685              		.loc 1 405 0 discriminator 22
 1686 0328 1832     		adds	r2, r2, #24
 1687 032a 9342     		cmp	r3, r2
 1688 032c 56D0     		beq	.L204
 405:Drivers/STM32H7xx_HAL_Driver/Src/stm32h7xx_hal_dma.c ****   {
 1689              		.loc 1 405 0 discriminator 24
 1690 032e 1832     		adds	r2, r2, #24
 1691 0330 9342     		cmp	r3, r2
 1692 0332 55D0     		beq	.L205
 405:Drivers/STM32H7xx_HAL_Driver/Src/stm32h7xx_hal_dma.c ****   {
 1693              		.loc 1 405 0 discriminator 26
 1694 0334 1832     		adds	r2, r2, #24
 1695 0336 9342     		cmp	r3, r2
 1696 0338 54D0     		beq	.L206
 405:Drivers/STM32H7xx_HAL_Driver/Src/stm32h7xx_hal_dma.c ****   {
 1697              		.loc 1 405 0 discriminator 28
 1698 033a 1832     		adds	r2, r2, #24
 1699 033c 9342     		cmp	r3, r2
 1700 033e 53D0     		beq	.L207
 405:Drivers/STM32H7xx_HAL_Driver/Src/stm32h7xx_hal_dma.c ****   {
 1701              		.loc 1 405 0 discriminator 30
 1702 0340 484A     		ldr	r2, .L228+20
 1703 0342 9342     		cmp	r3, r2
 1704 0344 52D0     		beq	.L208
 405:Drivers/STM32H7xx_HAL_Driver/Src/stm32h7xx_hal_dma.c ****   {
 1705              		.loc 1 405 0 discriminator 32
 1706 0346 1432     		adds	r2, r2, #20
 1707 0348 9342     		cmp	r3, r2
 1708 034a 51D0     		beq	.L209
 405:Drivers/STM32H7xx_HAL_Driver/Src/stm32h7xx_hal_dma.c ****   {
 1709              		.loc 1 405 0 discriminator 34
 1710 034c 1432     		adds	r2, r2, #20
 1711 034e 9342     		cmp	r3, r2
 1712 0350 50D0     		beq	.L210
 405:Drivers/STM32H7xx_HAL_Driver/Src/stm32h7xx_hal_dma.c ****   {
 1713              		.loc 1 405 0 discriminator 36
 1714 0352 1432     		adds	r2, r2, #20
 1715 0354 9342     		cmp	r3, r2
 1716 0356 4FD0     		beq	.L211
 405:Drivers/STM32H7xx_HAL_Driver/Src/stm32h7xx_hal_dma.c ****   {
 1717              		.loc 1 405 0 discriminator 38
 1718 0358 1432     		adds	r2, r2, #20
 1719 035a 9342     		cmp	r3, r2
 1720 035c 4ED0     		beq	.L212
 405:Drivers/STM32H7xx_HAL_Driver/Src/stm32h7xx_hal_dma.c ****   {
 1721              		.loc 1 405 0 discriminator 40
 1722 035e 1432     		adds	r2, r2, #20
 1723 0360 9342     		cmp	r3, r2
 1724 0362 4DD0     		beq	.L213
 405:Drivers/STM32H7xx_HAL_Driver/Src/stm32h7xx_hal_dma.c ****   {
 1725              		.loc 1 405 0 discriminator 42
 1726 0364 1432     		adds	r2, r2, #20
 1727 0366 9342     		cmp	r3, r2
 1728 0368 4CD0     		beq	.L214
 405:Drivers/STM32H7xx_HAL_Driver/Src/stm32h7xx_hal_dma.c ****   {
ARM GAS  C:\Users\CompuTOP\AppData\Local\Temp\cc4hOfP8.s 			page 70


 1729              		.loc 1 405 0 discriminator 44
 1730 036a 1432     		adds	r2, r2, #20
 1731 036c 9342     		cmp	r3, r2
 1732 036e 17D0     		beq	.L222
 405:Drivers/STM32H7xx_HAL_Driver/Src/stm32h7xx_hal_dma.c ****   {
 1733              		.loc 1 405 0
 1734 0370 0023     		movs	r3, #0
 1735 0372 18E0     		b	.L164
 1736              	.LVL93:
 1737              	.L186:
 352:Drivers/STM32H7xx_HAL_Driver/Src/stm32h7xx_hal_dma.c ****   {
 1738              		.loc 1 352 0 is_stmt 1
 1739 0374 0126     		movs	r6, #1
 1740 0376 78E7     		b	.L161
 1741              	.L187:
 1742 0378 0126     		movs	r6, #1
 1743 037a 76E7     		b	.L161
 1744              	.L188:
 1745 037c 0126     		movs	r6, #1
 1746 037e 74E7     		b	.L161
 1747              	.L189:
 1748 0380 0126     		movs	r6, #1
 1749 0382 72E7     		b	.L161
 1750              	.L190:
 1751 0384 0126     		movs	r6, #1
 1752 0386 70E7     		b	.L161
 1753              	.LVL94:
 1754              	.L221:
 376:Drivers/STM32H7xx_HAL_Driver/Src/stm32h7xx_hal_dma.c ****                       DMA_TO_BDMA_PERIPHERAL_INC(hdma->Init.PeriphInc)       |
 1755              		.loc 1 376 0
 1756 0388 4FF48042 		mov	r2, #16384
 1757 038c 80E7     		b	.L163
 1758              	.L191:
 1759 038e 1022     		movs	r2, #16
 1760 0390 7EE7     		b	.L163
 1761              	.LVL95:
 1762              	.L162:
 399:Drivers/STM32H7xx_HAL_Driver/Src/stm32h7xx_hal_dma.c ****     hdma->State     = HAL_DMA_STATE_ERROR;
 1763              		.loc 1 399 0
 1764 0392 4023     		movs	r3, #64
 1765 0394 6365     		str	r3, [r4, #84]
 400:Drivers/STM32H7xx_HAL_Driver/Src/stm32h7xx_hal_dma.c **** 
 1766              		.loc 1 400 0
 1767 0396 0323     		movs	r3, #3
 1768 0398 84F83530 		strb	r3, [r4, #53]
 402:Drivers/STM32H7xx_HAL_Driver/Src/stm32h7xx_hal_dma.c ****   }
 1769              		.loc 1 402 0
 1770 039c 0120     		movs	r0, #1
 1771              	.LVL96:
 1772 039e 70BD     		pop	{r4, r5, r6, pc}
 1773              	.LVL97:
 1774              	.L222:
 405:Drivers/STM32H7xx_HAL_Driver/Src/stm32h7xx_hal_dma.c ****   {
 1775              		.loc 1 405 0
 1776 03a0 0123     		movs	r3, #1
 1777 03a2 00E0     		b	.L164
 1778              	.L193:
ARM GAS  C:\Users\CompuTOP\AppData\Local\Temp\cc4hOfP8.s 			page 71


 1779 03a4 0123     		movs	r3, #1
 1780              	.L164:
 405:Drivers/STM32H7xx_HAL_Driver/Src/stm32h7xx_hal_dma.c ****   {
 1781              		.loc 1 405 0 is_stmt 0 discriminator 48
 1782 03a6 7BBB     		cbnz	r3, .L223
 1783              	.L165:
 448:Drivers/STM32H7xx_HAL_Driver/Src/stm32h7xx_hal_dma.c **** 
 1784              		.loc 1 448 0 is_stmt 1
 1785 03a8 0020     		movs	r0, #0
 1786 03aa 6065     		str	r0, [r4, #84]
 451:Drivers/STM32H7xx_HAL_Driver/Src/stm32h7xx_hal_dma.c **** 
 1787              		.loc 1 451 0
 1788 03ac 0123     		movs	r3, #1
 1789 03ae 84F83530 		strb	r3, [r4, #53]
 453:Drivers/STM32H7xx_HAL_Driver/Src/stm32h7xx_hal_dma.c **** }
 1790              		.loc 1 453 0
 1791 03b2 70BD     		pop	{r4, r5, r6, pc}
 1792              	.LVL98:
 1793              	.L194:
 405:Drivers/STM32H7xx_HAL_Driver/Src/stm32h7xx_hal_dma.c ****   {
 1794              		.loc 1 405 0
 1795 03b4 0123     		movs	r3, #1
 1796 03b6 F6E7     		b	.L164
 1797              	.L195:
 1798 03b8 0123     		movs	r3, #1
 1799 03ba F4E7     		b	.L164
 1800              	.L196:
 1801 03bc 0123     		movs	r3, #1
 1802 03be F2E7     		b	.L164
 1803              	.L197:
 1804 03c0 0123     		movs	r3, #1
 1805 03c2 F0E7     		b	.L164
 1806              	.L198:
 1807 03c4 0123     		movs	r3, #1
 1808 03c6 EEE7     		b	.L164
 1809              	.L199:
 1810 03c8 0123     		movs	r3, #1
 1811 03ca ECE7     		b	.L164
 1812              	.L200:
 1813 03cc 0123     		movs	r3, #1
 1814 03ce EAE7     		b	.L164
 1815              	.L201:
 1816 03d0 0123     		movs	r3, #1
 1817 03d2 E8E7     		b	.L164
 1818              	.L202:
 1819 03d4 0123     		movs	r3, #1
 1820 03d6 E6E7     		b	.L164
 1821              	.L203:
 1822 03d8 0123     		movs	r3, #1
 1823 03da E4E7     		b	.L164
 1824              	.L204:
 1825 03dc 0123     		movs	r3, #1
 1826 03de E2E7     		b	.L164
 1827              	.L205:
 1828 03e0 0123     		movs	r3, #1
 1829 03e2 E0E7     		b	.L164
 1830              	.L206:
ARM GAS  C:\Users\CompuTOP\AppData\Local\Temp\cc4hOfP8.s 			page 72


 1831 03e4 0123     		movs	r3, #1
 1832 03e6 DEE7     		b	.L164
 1833              	.L207:
 1834 03e8 0123     		movs	r3, #1
 1835 03ea DCE7     		b	.L164
 1836              	.L208:
 1837 03ec 0123     		movs	r3, #1
 1838 03ee DAE7     		b	.L164
 1839              	.L209:
 1840 03f0 0123     		movs	r3, #1
 1841 03f2 D8E7     		b	.L164
 1842              	.L210:
 1843 03f4 0123     		movs	r3, #1
 1844 03f6 D6E7     		b	.L164
 1845              	.L211:
 1846 03f8 0123     		movs	r3, #1
 1847 03fa D4E7     		b	.L164
 1848              	.L212:
 1849 03fc 0123     		movs	r3, #1
 1850 03fe D2E7     		b	.L164
 1851              	.L213:
 1852 0400 0123     		movs	r3, #1
 1853 0402 D0E7     		b	.L164
 1854              	.L214:
 1855 0404 0123     		movs	r3, #1
 1856 0406 CEE7     		b	.L164
 1857              	.L223:
 410:Drivers/STM32H7xx_HAL_Driver/Src/stm32h7xx_hal_dma.c **** 
 1858              		.loc 1 410 0
 1859 0408 2046     		mov	r0, r4
 1860 040a FFF7FEFF 		bl	DMA_CalcDMAMUXChannelBaseAndMask
 1861              	.LVL99:
 412:Drivers/STM32H7xx_HAL_Driver/Src/stm32h7xx_hal_dma.c ****     {
 1862              		.loc 1 412 0
 1863 040e A368     		ldr	r3, [r4, #8]
 1864 0410 802B     		cmp	r3, #128
 1865 0412 0ED0     		beq	.L224
 1866              	.L166:
 419:Drivers/STM32H7xx_HAL_Driver/Src/stm32h7xx_hal_dma.c **** 
 1867              		.loc 1 419 0
 1868 0414 236E     		ldr	r3, [r4, #96]
 1869 0416 2279     		ldrb	r2, [r4, #4]	@ zero_extendqisi2
 1870 0418 1A60     		str	r2, [r3]
 422:Drivers/STM32H7xx_HAL_Driver/Src/stm32h7xx_hal_dma.c **** 
 1871              		.loc 1 422 0
 1872 041a 636E     		ldr	r3, [r4, #100]
 1873 041c A26E     		ldr	r2, [r4, #104]
 1874 041e 5A60     		str	r2, [r3, #4]
 427:Drivers/STM32H7xx_HAL_Driver/Src/stm32h7xx_hal_dma.c ****     {
 1875              		.loc 1 427 0
 1876 0420 6368     		ldr	r3, [r4, #4]
 1877 0422 013B     		subs	r3, r3, #1
 1878 0424 072B     		cmp	r3, #7
 1879 0426 07D9     		bls	.L225
 441:Drivers/STM32H7xx_HAL_Driver/Src/stm32h7xx_hal_dma.c ****       hdma->DMAmuxRequestGenStatus = 0U;
 1880              		.loc 1 441 0
 1881 0428 0023     		movs	r3, #0
ARM GAS  C:\Users\CompuTOP\AppData\Local\Temp\cc4hOfP8.s 			page 73


 1882 042a E366     		str	r3, [r4, #108]
 442:Drivers/STM32H7xx_HAL_Driver/Src/stm32h7xx_hal_dma.c ****       hdma->DMAmuxRequestGenStatusMask = 0U;
 1883              		.loc 1 442 0
 1884 042c 2367     		str	r3, [r4, #112]
 443:Drivers/STM32H7xx_HAL_Driver/Src/stm32h7xx_hal_dma.c ****     }
 1885              		.loc 1 443 0
 1886 042e 6367     		str	r3, [r4, #116]
 1887 0430 BAE7     		b	.L165
 1888              	.L224:
 415:Drivers/STM32H7xx_HAL_Driver/Src/stm32h7xx_hal_dma.c ****     }
 1889              		.loc 1 415 0
 1890 0432 0023     		movs	r3, #0
 1891 0434 6360     		str	r3, [r4, #4]
 1892 0436 EDE7     		b	.L166
 1893              	.L225:
 431:Drivers/STM32H7xx_HAL_Driver/Src/stm32h7xx_hal_dma.c **** 
 1894              		.loc 1 431 0
 1895 0438 2046     		mov	r0, r4
 1896 043a FFF7FEFF 		bl	DMA_CalcDMAMUXRequestGenBaseAndMask
 1897              	.LVL100:
 434:Drivers/STM32H7xx_HAL_Driver/Src/stm32h7xx_hal_dma.c **** 
 1898              		.loc 1 434 0
 1899 043e E36E     		ldr	r3, [r4, #108]
 1900 0440 0022     		movs	r2, #0
 1901 0442 1A60     		str	r2, [r3]
 437:Drivers/STM32H7xx_HAL_Driver/Src/stm32h7xx_hal_dma.c ****     }
 1902              		.loc 1 437 0
 1903 0444 236F     		ldr	r3, [r4, #112]
 1904 0446 626F     		ldr	r2, [r4, #116]
 1905 0448 5A60     		str	r2, [r3, #4]
 1906 044a ADE7     		b	.L165
 1907              	.LVL101:
 1908              	.L168:
 220:Drivers/STM32H7xx_HAL_Driver/Src/stm32h7xx_hal_dma.c ****   }
 1909              		.loc 1 220 0
 1910 044c 0120     		movs	r0, #1
 1911              	.LVL102:
 454:Drivers/STM32H7xx_HAL_Driver/Src/stm32h7xx_hal_dma.c **** 
 1912              		.loc 1 454 0
 1913 044e 70BD     		pop	{r4, r5, r6, pc}
 1914              	.LVL103:
 1915              	.L229:
 1916              		.align	2
 1917              	.L228:
 1918 0450 0F00FEFF 		.word	-131057
 1919 0454 F8ABFDA7 		.word	-1476547592
 1920 0458 CDCCCCCC 		.word	-858993459
 1921 045c 28000240 		.word	1073872936
 1922 0460 10000240 		.word	1073872912
 1923 0464 08540258 		.word	1476547592
 1924              		.cfi_endproc
 1925              	.LFE144:
 1927              		.section	.text.HAL_DMA_DeInit,"ax",%progbits
 1928              		.align	1
 1929              		.global	HAL_DMA_DeInit
 1930              		.syntax unified
 1931              		.thumb
ARM GAS  C:\Users\CompuTOP\AppData\Local\Temp\cc4hOfP8.s 			page 74


 1932              		.thumb_func
 1933              		.fpu fpv5-d16
 1935              	HAL_DMA_DeInit:
 1936              	.LFB145:
 463:Drivers/STM32H7xx_HAL_Driver/Src/stm32h7xx_hal_dma.c ****   DMA_Base_Registers *regs_dma;
 1937              		.loc 1 463 0
 1938              		.cfi_startproc
 1939              		@ args = 0, pretend = 0, frame = 0
 1940              		@ frame_needed = 0, uses_anonymous_args = 0
 1941              	.LVL104:
 468:Drivers/STM32H7xx_HAL_Driver/Src/stm32h7xx_hal_dma.c ****   {
 1942              		.loc 1 468 0
 1943 0000 0028     		cmp	r0, #0
 1944 0002 00F00981 		beq	.L241
 463:Drivers/STM32H7xx_HAL_Driver/Src/stm32h7xx_hal_dma.c ****   DMA_Base_Registers *regs_dma;
 1945              		.loc 1 463 0
 1946 0006 10B5     		push	{r4, lr}
 1947              	.LCFI9:
 1948              		.cfi_def_cfa_offset 8
 1949              		.cfi_offset 4, -8
 1950              		.cfi_offset 14, -4
 1951 0008 0446     		mov	r4, r0
 474:Drivers/STM32H7xx_HAL_Driver/Src/stm32h7xx_hal_dma.c **** 
 1952              		.loc 1 474 0
 1953 000a 0368     		ldr	r3, [r0]
 1954 000c 834A     		ldr	r2, .L272
 1955 000e 8449     		ldr	r1, .L272+4
 1956 0010 9342     		cmp	r3, r2
 1957 0012 18BF     		it	ne
 1958 0014 8B42     		cmpne	r3, r1
 1959 0016 2FD0     		beq	.L232
 474:Drivers/STM32H7xx_HAL_Driver/Src/stm32h7xx_hal_dma.c **** 
 1960              		.loc 1 474 0 is_stmt 0 discriminator 2
 1961 0018 1832     		adds	r2, r2, #24
 1962 001a 9342     		cmp	r3, r2
 1963 001c 2CD0     		beq	.L232
 474:Drivers/STM32H7xx_HAL_Driver/Src/stm32h7xx_hal_dma.c **** 
 1964              		.loc 1 474 0 discriminator 4
 1965 001e 1832     		adds	r2, r2, #24
 1966 0020 9342     		cmp	r3, r2
 1967 0022 29D0     		beq	.L232
 474:Drivers/STM32H7xx_HAL_Driver/Src/stm32h7xx_hal_dma.c **** 
 1968              		.loc 1 474 0 discriminator 6
 1969 0024 1832     		adds	r2, r2, #24
 1970 0026 9342     		cmp	r3, r2
 1971 0028 26D0     		beq	.L232
 474:Drivers/STM32H7xx_HAL_Driver/Src/stm32h7xx_hal_dma.c **** 
 1972              		.loc 1 474 0 discriminator 8
 1973 002a 1832     		adds	r2, r2, #24
 1974 002c 9342     		cmp	r3, r2
 1975 002e 23D0     		beq	.L232
 474:Drivers/STM32H7xx_HAL_Driver/Src/stm32h7xx_hal_dma.c **** 
 1976              		.loc 1 474 0 discriminator 10
 1977 0030 1832     		adds	r2, r2, #24
 1978 0032 9342     		cmp	r3, r2
 1979 0034 20D0     		beq	.L232
 474:Drivers/STM32H7xx_HAL_Driver/Src/stm32h7xx_hal_dma.c **** 
ARM GAS  C:\Users\CompuTOP\AppData\Local\Temp\cc4hOfP8.s 			page 75


 1980              		.loc 1 474 0 discriminator 12
 1981 0036 1832     		adds	r2, r2, #24
 1982 0038 9342     		cmp	r3, r2
 1983 003a 1DD0     		beq	.L232
 474:Drivers/STM32H7xx_HAL_Driver/Src/stm32h7xx_hal_dma.c **** 
 1984              		.loc 1 474 0 discriminator 14
 1985 003c 02F55672 		add	r2, r2, #856
 1986 0040 9342     		cmp	r3, r2
 1987 0042 19D0     		beq	.L232
 474:Drivers/STM32H7xx_HAL_Driver/Src/stm32h7xx_hal_dma.c **** 
 1988              		.loc 1 474 0 discriminator 16
 1989 0044 1832     		adds	r2, r2, #24
 1990 0046 9342     		cmp	r3, r2
 1991 0048 16D0     		beq	.L232
 474:Drivers/STM32H7xx_HAL_Driver/Src/stm32h7xx_hal_dma.c **** 
 1992              		.loc 1 474 0 discriminator 18
 1993 004a 1832     		adds	r2, r2, #24
 1994 004c 9342     		cmp	r3, r2
 1995 004e 13D0     		beq	.L232
 474:Drivers/STM32H7xx_HAL_Driver/Src/stm32h7xx_hal_dma.c **** 
 1996              		.loc 1 474 0 discriminator 20
 1997 0050 1832     		adds	r2, r2, #24
 1998 0052 9342     		cmp	r3, r2
 1999 0054 10D0     		beq	.L232
 474:Drivers/STM32H7xx_HAL_Driver/Src/stm32h7xx_hal_dma.c **** 
 2000              		.loc 1 474 0 discriminator 22
 2001 0056 1832     		adds	r2, r2, #24
 2002 0058 9342     		cmp	r3, r2
 2003 005a 0DD0     		beq	.L232
 474:Drivers/STM32H7xx_HAL_Driver/Src/stm32h7xx_hal_dma.c **** 
 2004              		.loc 1 474 0 discriminator 24
 2005 005c 1832     		adds	r2, r2, #24
 2006 005e 9342     		cmp	r3, r2
 2007 0060 0AD0     		beq	.L232
 474:Drivers/STM32H7xx_HAL_Driver/Src/stm32h7xx_hal_dma.c **** 
 2008              		.loc 1 474 0 discriminator 26
 2009 0062 1832     		adds	r2, r2, #24
 2010 0064 9342     		cmp	r3, r2
 2011 0066 07D0     		beq	.L232
 474:Drivers/STM32H7xx_HAL_Driver/Src/stm32h7xx_hal_dma.c **** 
 2012              		.loc 1 474 0 discriminator 28
 2013 0068 1832     		adds	r2, r2, #24
 2014 006a 9342     		cmp	r3, r2
 2015 006c 04D0     		beq	.L232
 474:Drivers/STM32H7xx_HAL_Driver/Src/stm32h7xx_hal_dma.c **** 
 2016              		.loc 1 474 0 discriminator 30
 2017 006e 1A68     		ldr	r2, [r3]
 2018 0070 22F00102 		bic	r2, r2, #1
 2019 0074 1A60     		str	r2, [r3]
 2020 0076 03E0     		b	.L234
 2021              	.L232:
 474:Drivers/STM32H7xx_HAL_Driver/Src/stm32h7xx_hal_dma.c **** 
 2022              		.loc 1 474 0 discriminator 29
 2023 0078 1A68     		ldr	r2, [r3]
 2024 007a 22F00102 		bic	r2, r2, #1
 2025 007e 1A60     		str	r2, [r3]
 2026              	.L234:
ARM GAS  C:\Users\CompuTOP\AppData\Local\Temp\cc4hOfP8.s 			page 76


 476:Drivers/STM32H7xx_HAL_Driver/Src/stm32h7xx_hal_dma.c ****   {
 2027              		.loc 1 476 0 is_stmt 1
 2028 0080 2368     		ldr	r3, [r4]
 2029 0082 664A     		ldr	r2, .L272
 2030 0084 6649     		ldr	r1, .L272+4
 2031 0086 9342     		cmp	r3, r2
 2032 0088 18BF     		it	ne
 2033 008a 8B42     		cmpne	r3, r1
 2034 008c 2ED0     		beq	.L242
 476:Drivers/STM32H7xx_HAL_Driver/Src/stm32h7xx_hal_dma.c ****   {
 2035              		.loc 1 476 0 is_stmt 0 discriminator 2
 2036 008e 1832     		adds	r2, r2, #24
 2037 0090 9342     		cmp	r3, r2
 2038 0092 47D0     		beq	.L243
 476:Drivers/STM32H7xx_HAL_Driver/Src/stm32h7xx_hal_dma.c ****   {
 2039              		.loc 1 476 0 discriminator 4
 2040 0094 1832     		adds	r2, r2, #24
 2041 0096 9342     		cmp	r3, r2
 2042 0098 46D0     		beq	.L244
 476:Drivers/STM32H7xx_HAL_Driver/Src/stm32h7xx_hal_dma.c ****   {
 2043              		.loc 1 476 0 discriminator 6
 2044 009a 1832     		adds	r2, r2, #24
 2045 009c 9342     		cmp	r3, r2
 2046 009e 45D0     		beq	.L245
 476:Drivers/STM32H7xx_HAL_Driver/Src/stm32h7xx_hal_dma.c ****   {
 2047              		.loc 1 476 0 discriminator 8
 2048 00a0 1832     		adds	r2, r2, #24
 2049 00a2 9342     		cmp	r3, r2
 2050 00a4 44D0     		beq	.L246
 476:Drivers/STM32H7xx_HAL_Driver/Src/stm32h7xx_hal_dma.c ****   {
 2051              		.loc 1 476 0 discriminator 10
 2052 00a6 1832     		adds	r2, r2, #24
 2053 00a8 9342     		cmp	r3, r2
 2054 00aa 43D0     		beq	.L247
 476:Drivers/STM32H7xx_HAL_Driver/Src/stm32h7xx_hal_dma.c ****   {
 2055              		.loc 1 476 0 discriminator 12
 2056 00ac 1832     		adds	r2, r2, #24
 2057 00ae 9342     		cmp	r3, r2
 2058 00b0 42D0     		beq	.L248
 476:Drivers/STM32H7xx_HAL_Driver/Src/stm32h7xx_hal_dma.c ****   {
 2059              		.loc 1 476 0 discriminator 14
 2060 00b2 02F55672 		add	r2, r2, #856
 2061 00b6 9342     		cmp	r3, r2
 2062 00b8 40D0     		beq	.L249
 476:Drivers/STM32H7xx_HAL_Driver/Src/stm32h7xx_hal_dma.c ****   {
 2063              		.loc 1 476 0 discriminator 16
 2064 00ba 1832     		adds	r2, r2, #24
 2065 00bc 9342     		cmp	r3, r2
 2066 00be 3FD0     		beq	.L250
 476:Drivers/STM32H7xx_HAL_Driver/Src/stm32h7xx_hal_dma.c ****   {
 2067              		.loc 1 476 0 discriminator 18
 2068 00c0 1832     		adds	r2, r2, #24
 2069 00c2 9342     		cmp	r3, r2
 2070 00c4 3ED0     		beq	.L251
 476:Drivers/STM32H7xx_HAL_Driver/Src/stm32h7xx_hal_dma.c ****   {
 2071              		.loc 1 476 0 discriminator 20
 2072 00c6 1832     		adds	r2, r2, #24
ARM GAS  C:\Users\CompuTOP\AppData\Local\Temp\cc4hOfP8.s 			page 77


 2073 00c8 9342     		cmp	r3, r2
 2074 00ca 3DD0     		beq	.L252
 476:Drivers/STM32H7xx_HAL_Driver/Src/stm32h7xx_hal_dma.c ****   {
 2075              		.loc 1 476 0 discriminator 22
 2076 00cc 1832     		adds	r2, r2, #24
 2077 00ce 9342     		cmp	r3, r2
 2078 00d0 3CD0     		beq	.L253
 476:Drivers/STM32H7xx_HAL_Driver/Src/stm32h7xx_hal_dma.c ****   {
 2079              		.loc 1 476 0 discriminator 24
 2080 00d2 1832     		adds	r2, r2, #24
 2081 00d4 9342     		cmp	r3, r2
 2082 00d6 3BD0     		beq	.L254
 476:Drivers/STM32H7xx_HAL_Driver/Src/stm32h7xx_hal_dma.c ****   {
 2083              		.loc 1 476 0 discriminator 26
 2084 00d8 1832     		adds	r2, r2, #24
 2085 00da 9342     		cmp	r3, r2
 2086 00dc 3AD0     		beq	.L255
 476:Drivers/STM32H7xx_HAL_Driver/Src/stm32h7xx_hal_dma.c ****   {
 2087              		.loc 1 476 0 discriminator 28
 2088 00de 1832     		adds	r2, r2, #24
 2089 00e0 9342     		cmp	r3, r2
 2090 00e2 01D0     		beq	.L268
 476:Drivers/STM32H7xx_HAL_Driver/Src/stm32h7xx_hal_dma.c ****   {
 2091              		.loc 1 476 0
 2092 00e4 0022     		movs	r2, #0
 2093 00e6 02E0     		b	.L235
 2094              	.L268:
 2095 00e8 0122     		movs	r2, #1
 2096 00ea 00E0     		b	.L235
 2097              	.L242:
 2098 00ec 0122     		movs	r2, #1
 2099              	.L235:
 476:Drivers/STM32H7xx_HAL_Driver/Src/stm32h7xx_hal_dma.c ****   {
 2100              		.loc 1 476 0 discriminator 32
 2101 00ee 9ABB     		cbnz	r2, .L269
 502:Drivers/STM32H7xx_HAL_Driver/Src/stm32h7xx_hal_dma.c ****   {
 2102              		.loc 1 502 0 is_stmt 1
 2103 00f0 4C49     		ldr	r1, .L272+8
 2104 00f2 4D48     		ldr	r0, .L272+12
 2105              	.LVL105:
 2106 00f4 8B42     		cmp	r3, r1
 2107 00f6 18BF     		it	ne
 2108 00f8 8342     		cmpne	r3, r0
 2109 00fa 61D0     		beq	.L257
 502:Drivers/STM32H7xx_HAL_Driver/Src/stm32h7xx_hal_dma.c ****   {
 2110              		.loc 1 502 0 is_stmt 0 discriminator 2
 2111 00fc 1431     		adds	r1, r1, #20
 2112 00fe 8B42     		cmp	r3, r1
 2113 0100 62D0     		beq	.L258
 502:Drivers/STM32H7xx_HAL_Driver/Src/stm32h7xx_hal_dma.c ****   {
 2114              		.loc 1 502 0 discriminator 4
 2115 0102 1431     		adds	r1, r1, #20
 2116 0104 8B42     		cmp	r3, r1
 2117 0106 61D0     		beq	.L259
 502:Drivers/STM32H7xx_HAL_Driver/Src/stm32h7xx_hal_dma.c ****   {
 2118              		.loc 1 502 0 discriminator 6
 2119 0108 1431     		adds	r1, r1, #20
ARM GAS  C:\Users\CompuTOP\AppData\Local\Temp\cc4hOfP8.s 			page 78


 2120 010a 8B42     		cmp	r3, r1
 2121 010c 60D0     		beq	.L260
 502:Drivers/STM32H7xx_HAL_Driver/Src/stm32h7xx_hal_dma.c ****   {
 2122              		.loc 1 502 0 discriminator 8
 2123 010e 1431     		adds	r1, r1, #20
 2124 0110 8B42     		cmp	r3, r1
 2125 0112 5FD0     		beq	.L261
 502:Drivers/STM32H7xx_HAL_Driver/Src/stm32h7xx_hal_dma.c ****   {
 2126              		.loc 1 502 0 discriminator 10
 2127 0114 1431     		adds	r1, r1, #20
 2128 0116 8B42     		cmp	r3, r1
 2129 0118 5ED0     		beq	.L262
 502:Drivers/STM32H7xx_HAL_Driver/Src/stm32h7xx_hal_dma.c ****   {
 2130              		.loc 1 502 0 discriminator 12
 2131 011a 1431     		adds	r1, r1, #20
 2132 011c 8B42     		cmp	r3, r1
 2133 011e 50D1     		bne	.L238
 502:Drivers/STM32H7xx_HAL_Driver/Src/stm32h7xx_hal_dma.c ****   {
 2134              		.loc 1 502 0
 2135 0120 0122     		movs	r2, #1
 2136 0122 4EE0     		b	.L238
 2137              	.LVL106:
 2138              	.L243:
 476:Drivers/STM32H7xx_HAL_Driver/Src/stm32h7xx_hal_dma.c ****   {
 2139              		.loc 1 476 0 is_stmt 1
 2140 0124 0122     		movs	r2, #1
 2141 0126 E2E7     		b	.L235
 2142              	.L244:
 2143 0128 0122     		movs	r2, #1
 2144 012a E0E7     		b	.L235
 2145              	.L245:
 2146 012c 0122     		movs	r2, #1
 2147 012e DEE7     		b	.L235
 2148              	.L246:
 2149 0130 0122     		movs	r2, #1
 2150 0132 DCE7     		b	.L235
 2151              	.L247:
 2152 0134 0122     		movs	r2, #1
 2153 0136 DAE7     		b	.L235
 2154              	.L248:
 2155 0138 0122     		movs	r2, #1
 2156 013a D8E7     		b	.L235
 2157              	.L249:
 2158 013c 0122     		movs	r2, #1
 2159 013e D6E7     		b	.L235
 2160              	.L250:
 2161 0140 0122     		movs	r2, #1
 2162 0142 D4E7     		b	.L235
 2163              	.L251:
 2164 0144 0122     		movs	r2, #1
 2165 0146 D2E7     		b	.L235
 2166              	.L252:
 2167 0148 0122     		movs	r2, #1
 2168 014a D0E7     		b	.L235
 2169              	.L253:
 2170 014c 0122     		movs	r2, #1
 2171 014e CEE7     		b	.L235
ARM GAS  C:\Users\CompuTOP\AppData\Local\Temp\cc4hOfP8.s 			page 79


 2172              	.L254:
 2173 0150 0122     		movs	r2, #1
 2174 0152 CCE7     		b	.L235
 2175              	.L255:
 2176 0154 0122     		movs	r2, #1
 2177 0156 CAE7     		b	.L235
 2178              	.L269:
 479:Drivers/STM32H7xx_HAL_Driver/Src/stm32h7xx_hal_dma.c **** 
 2179              		.loc 1 479 0
 2180 0158 0022     		movs	r2, #0
 2181 015a 1A60     		str	r2, [r3]
 482:Drivers/STM32H7xx_HAL_Driver/Src/stm32h7xx_hal_dma.c **** 
 2182              		.loc 1 482 0
 2183 015c 2368     		ldr	r3, [r4]
 2184 015e 5A60     		str	r2, [r3, #4]
 485:Drivers/STM32H7xx_HAL_Driver/Src/stm32h7xx_hal_dma.c **** 
 2185              		.loc 1 485 0
 2186 0160 2368     		ldr	r3, [r4]
 2187 0162 9A60     		str	r2, [r3, #8]
 488:Drivers/STM32H7xx_HAL_Driver/Src/stm32h7xx_hal_dma.c **** 
 2188              		.loc 1 488 0
 2189 0164 2368     		ldr	r3, [r4]
 2190 0166 DA60     		str	r2, [r3, #12]
 491:Drivers/STM32H7xx_HAL_Driver/Src/stm32h7xx_hal_dma.c **** 
 2191              		.loc 1 491 0
 2192 0168 2368     		ldr	r3, [r4]
 2193 016a 1A61     		str	r2, [r3, #16]
 494:Drivers/STM32H7xx_HAL_Driver/Src/stm32h7xx_hal_dma.c **** 
 2194              		.loc 1 494 0
 2195 016c 2368     		ldr	r3, [r4]
 2196 016e 2122     		movs	r2, #33
 2197 0170 5A61     		str	r2, [r3, #20]
 497:Drivers/STM32H7xx_HAL_Driver/Src/stm32h7xx_hal_dma.c **** 
 2198              		.loc 1 497 0
 2199 0172 2046     		mov	r0, r4
 2200              	.LVL107:
 2201 0174 FFF7FEFF 		bl	DMA_CalcBaseAndBitshift
 2202              	.LVL108:
 500:Drivers/STM32H7xx_HAL_Driver/Src/stm32h7xx_hal_dma.c ****   }
 2203              		.loc 1 500 0
 2204 0178 E36D     		ldr	r3, [r4, #92]
 2205 017a 03F01F02 		and	r2, r3, #31
 2206 017e 3F23     		movs	r3, #63
 2207 0180 9340     		lsls	r3, r3, r2
 2208 0182 8360     		str	r3, [r0, #8]
 2209              	.LVL109:
 2210              	.L237:
 537:Drivers/STM32H7xx_HAL_Driver/Src/stm32h7xx_hal_dma.c **** 
 2211              		.loc 1 537 0
 2212 0184 2046     		mov	r0, r4
 2213 0186 FFF7FEFF 		bl	DMA_CalcDMAMUXChannelBaseAndMask
 2214              	.LVL110:
 539:Drivers/STM32H7xx_HAL_Driver/Src/stm32h7xx_hal_dma.c ****     {
 2215              		.loc 1 539 0
 2216 018a 236E     		ldr	r3, [r4, #96]
 2217 018c 23B1     		cbz	r3, .L239
 542:Drivers/STM32H7xx_HAL_Driver/Src/stm32h7xx_hal_dma.c **** 
ARM GAS  C:\Users\CompuTOP\AppData\Local\Temp\cc4hOfP8.s 			page 80


 2218              		.loc 1 542 0
 2219 018e 0022     		movs	r2, #0
 2220 0190 1A60     		str	r2, [r3]
 545:Drivers/STM32H7xx_HAL_Driver/Src/stm32h7xx_hal_dma.c ****     }
 2221              		.loc 1 545 0
 2222 0192 636E     		ldr	r3, [r4, #100]
 2223 0194 A26E     		ldr	r2, [r4, #104]
 2224 0196 5A60     		str	r2, [r3, #4]
 2225              	.L239:
 548:Drivers/STM32H7xx_HAL_Driver/Src/stm32h7xx_hal_dma.c ****     {
 2226              		.loc 1 548 0
 2227 0198 6368     		ldr	r3, [r4, #4]
 2228 019a 013B     		subs	r3, r3, #1
 2229 019c 072B     		cmp	r3, #7
 2230 019e 31D9     		bls	.L270
 2231              	.L240:
 561:Drivers/STM32H7xx_HAL_Driver/Src/stm32h7xx_hal_dma.c ****     hdma->DMAmuxRequestGenStatus = 0U;
 2232              		.loc 1 561 0
 2233 01a0 0020     		movs	r0, #0
 2234 01a2 E066     		str	r0, [r4, #108]
 562:Drivers/STM32H7xx_HAL_Driver/Src/stm32h7xx_hal_dma.c ****     hdma->DMAmuxRequestGenStatusMask = 0U;
 2235              		.loc 1 562 0
 2236 01a4 2067     		str	r0, [r4, #112]
 563:Drivers/STM32H7xx_HAL_Driver/Src/stm32h7xx_hal_dma.c ****   }
 2237              		.loc 1 563 0
 2238 01a6 6067     		str	r0, [r4, #116]
 568:Drivers/STM32H7xx_HAL_Driver/Src/stm32h7xx_hal_dma.c ****   hdma->XferHalfCpltCallback   = NULL;
 2239              		.loc 1 568 0
 2240 01a8 E063     		str	r0, [r4, #60]
 569:Drivers/STM32H7xx_HAL_Driver/Src/stm32h7xx_hal_dma.c ****   hdma->XferM1CpltCallback     = NULL;
 2241              		.loc 1 569 0
 2242 01aa 2064     		str	r0, [r4, #64]
 570:Drivers/STM32H7xx_HAL_Driver/Src/stm32h7xx_hal_dma.c ****   hdma->XferM1HalfCpltCallback = NULL;
 2243              		.loc 1 570 0
 2244 01ac 6064     		str	r0, [r4, #68]
 571:Drivers/STM32H7xx_HAL_Driver/Src/stm32h7xx_hal_dma.c ****   hdma->XferErrorCallback      = NULL;
 2245              		.loc 1 571 0
 2246 01ae A064     		str	r0, [r4, #72]
 572:Drivers/STM32H7xx_HAL_Driver/Src/stm32h7xx_hal_dma.c ****   hdma->XferAbortCallback      = NULL;
 2247              		.loc 1 572 0
 2248 01b0 E064     		str	r0, [r4, #76]
 573:Drivers/STM32H7xx_HAL_Driver/Src/stm32h7xx_hal_dma.c **** 
 2249              		.loc 1 573 0
 2250 01b2 2065     		str	r0, [r4, #80]
 576:Drivers/STM32H7xx_HAL_Driver/Src/stm32h7xx_hal_dma.c **** 
 2251              		.loc 1 576 0
 2252 01b4 6065     		str	r0, [r4, #84]
 579:Drivers/STM32H7xx_HAL_Driver/Src/stm32h7xx_hal_dma.c **** 
 2253              		.loc 1 579 0
 2254 01b6 84F83500 		strb	r0, [r4, #53]
 582:Drivers/STM32H7xx_HAL_Driver/Src/stm32h7xx_hal_dma.c **** 
 2255              		.loc 1 582 0
 2256 01ba 84F83400 		strb	r0, [r4, #52]
 584:Drivers/STM32H7xx_HAL_Driver/Src/stm32h7xx_hal_dma.c **** }
 2257              		.loc 1 584 0
 2258 01be 10BD     		pop	{r4, pc}
 2259              	.LVL111:
ARM GAS  C:\Users\CompuTOP\AppData\Local\Temp\cc4hOfP8.s 			page 81


 2260              	.L257:
 502:Drivers/STM32H7xx_HAL_Driver/Src/stm32h7xx_hal_dma.c ****   {
 2261              		.loc 1 502 0
 2262 01c0 0122     		movs	r2, #1
 2263              	.L238:
 502:Drivers/STM32H7xx_HAL_Driver/Src/stm32h7xx_hal_dma.c ****   {
 2264              		.loc 1 502 0 is_stmt 0 discriminator 16
 2265 01c2 5AB9     		cbnz	r2, .L271
 528:Drivers/STM32H7xx_HAL_Driver/Src/stm32h7xx_hal_dma.c ****   }
 2266              		.loc 1 528 0 is_stmt 1
 2267 01c4 0120     		movs	r0, #1
 585:Drivers/STM32H7xx_HAL_Driver/Src/stm32h7xx_hal_dma.c **** 
 2268              		.loc 1 585 0
 2269 01c6 10BD     		pop	{r4, pc}
 2270              	.LVL112:
 2271              	.L258:
 502:Drivers/STM32H7xx_HAL_Driver/Src/stm32h7xx_hal_dma.c ****   {
 2272              		.loc 1 502 0
 2273 01c8 0122     		movs	r2, #1
 2274 01ca FAE7     		b	.L238
 2275              	.L259:
 2276 01cc 0122     		movs	r2, #1
 2277 01ce F8E7     		b	.L238
 2278              	.L260:
 2279 01d0 0122     		movs	r2, #1
 2280 01d2 F6E7     		b	.L238
 2281              	.L261:
 2282 01d4 0122     		movs	r2, #1
 2283 01d6 F4E7     		b	.L238
 2284              	.L262:
 2285 01d8 0122     		movs	r2, #1
 2286 01da F2E7     		b	.L238
 2287              	.L271:
 505:Drivers/STM32H7xx_HAL_Driver/Src/stm32h7xx_hal_dma.c **** 
 2288              		.loc 1 505 0
 2289 01dc 0022     		movs	r2, #0
 2290 01de 1A60     		str	r2, [r3]
 508:Drivers/STM32H7xx_HAL_Driver/Src/stm32h7xx_hal_dma.c **** 
 2291              		.loc 1 508 0
 2292 01e0 2368     		ldr	r3, [r4]
 2293 01e2 5A60     		str	r2, [r3, #4]
 511:Drivers/STM32H7xx_HAL_Driver/Src/stm32h7xx_hal_dma.c **** 
 2294              		.loc 1 511 0
 2295 01e4 2368     		ldr	r3, [r4]
 2296 01e6 9A60     		str	r2, [r3, #8]
 514:Drivers/STM32H7xx_HAL_Driver/Src/stm32h7xx_hal_dma.c **** 
 2297              		.loc 1 514 0
 2298 01e8 2368     		ldr	r3, [r4]
 2299 01ea DA60     		str	r2, [r3, #12]
 517:Drivers/STM32H7xx_HAL_Driver/Src/stm32h7xx_hal_dma.c **** 
 2300              		.loc 1 517 0
 2301 01ec 2368     		ldr	r3, [r4]
 2302 01ee 1A61     		str	r2, [r3, #16]
 520:Drivers/STM32H7xx_HAL_Driver/Src/stm32h7xx_hal_dma.c **** 
 2303              		.loc 1 520 0
 2304 01f0 2046     		mov	r0, r4
 2305 01f2 FFF7FEFF 		bl	DMA_CalcBaseAndBitshift
ARM GAS  C:\Users\CompuTOP\AppData\Local\Temp\cc4hOfP8.s 			page 82


 2306              	.LVL113:
 523:Drivers/STM32H7xx_HAL_Driver/Src/stm32h7xx_hal_dma.c ****   }
 2307              		.loc 1 523 0
 2308 01f6 E36D     		ldr	r3, [r4, #92]
 2309 01f8 03F01F02 		and	r2, r3, #31
 2310 01fc 0123     		movs	r3, #1
 2311 01fe 9340     		lsls	r3, r3, r2
 2312 0200 4360     		str	r3, [r0, #4]
 2313 0202 BFE7     		b	.L237
 2314              	.LVL114:
 2315              	.L270:
 552:Drivers/STM32H7xx_HAL_Driver/Src/stm32h7xx_hal_dma.c **** 
 2316              		.loc 1 552 0
 2317 0204 2046     		mov	r0, r4
 2318 0206 FFF7FEFF 		bl	DMA_CalcDMAMUXRequestGenBaseAndMask
 2319              	.LVL115:
 555:Drivers/STM32H7xx_HAL_Driver/Src/stm32h7xx_hal_dma.c **** 
 2320              		.loc 1 555 0
 2321 020a E36E     		ldr	r3, [r4, #108]
 2322 020c 0022     		movs	r2, #0
 2323 020e 1A60     		str	r2, [r3]
 558:Drivers/STM32H7xx_HAL_Driver/Src/stm32h7xx_hal_dma.c ****     }
 2324              		.loc 1 558 0
 2325 0210 236F     		ldr	r3, [r4, #112]
 2326 0212 626F     		ldr	r2, [r4, #116]
 2327 0214 5A60     		str	r2, [r3, #4]
 2328 0216 C3E7     		b	.L240
 2329              	.LVL116:
 2330              	.L241:
 2331              	.LCFI10:
 2332              		.cfi_def_cfa_offset 0
 2333              		.cfi_restore 4
 2334              		.cfi_restore 14
 470:Drivers/STM32H7xx_HAL_Driver/Src/stm32h7xx_hal_dma.c ****   }
 2335              		.loc 1 470 0
 2336 0218 0120     		movs	r0, #1
 2337              	.LVL117:
 2338 021a 7047     		bx	lr
 2339              	.L273:
 2340              		.align	2
 2341              	.L272:
 2342 021c 28000240 		.word	1073872936
 2343 0220 10000240 		.word	1073872912
 2344 0224 1C540258 		.word	1476547612
 2345 0228 08540258 		.word	1476547592
 2346              		.cfi_endproc
 2347              	.LFE145:
 2349              		.section	.text.HAL_DMA_Start,"ax",%progbits
 2350              		.align	1
 2351              		.global	HAL_DMA_Start
 2352              		.syntax unified
 2353              		.thumb
 2354              		.thumb_func
 2355              		.fpu fpv5-d16
 2357              	HAL_DMA_Start:
 2358              	.LFB146:
 620:Drivers/STM32H7xx_HAL_Driver/Src/stm32h7xx_hal_dma.c ****   HAL_StatusTypeDef status = HAL_OK;
ARM GAS  C:\Users\CompuTOP\AppData\Local\Temp\cc4hOfP8.s 			page 83


 2359              		.loc 1 620 0
 2360              		.cfi_startproc
 2361              		@ args = 0, pretend = 0, frame = 0
 2362              		@ frame_needed = 0, uses_anonymous_args = 0
 2363              	.LVL118:
 627:Drivers/STM32H7xx_HAL_Driver/Src/stm32h7xx_hal_dma.c ****   {
 2364              		.loc 1 627 0
 2365 0000 0028     		cmp	r0, #0
 2366 0002 00F09880 		beq	.L282
 620:Drivers/STM32H7xx_HAL_Driver/Src/stm32h7xx_hal_dma.c ****   HAL_StatusTypeDef status = HAL_OK;
 2367              		.loc 1 620 0
 2368 0006 70B5     		push	{r4, r5, r6, lr}
 2369              	.LCFI11:
 2370              		.cfi_def_cfa_offset 16
 2371              		.cfi_offset 4, -16
 2372              		.cfi_offset 5, -12
 2373              		.cfi_offset 6, -8
 2374              		.cfi_offset 14, -4
 2375 0008 0446     		mov	r4, r0
 633:Drivers/STM32H7xx_HAL_Driver/Src/stm32h7xx_hal_dma.c **** 
 2376              		.loc 1 633 0
 2377 000a 90F83400 		ldrb	r0, [r0, #52]	@ zero_extendqisi2
 2378              	.LVL119:
 2379 000e 0128     		cmp	r0, #1
 2380 0010 00F09380 		beq	.L283
 633:Drivers/STM32H7xx_HAL_Driver/Src/stm32h7xx_hal_dma.c **** 
 2381              		.loc 1 633 0 is_stmt 0 discriminator 2
 2382 0014 0120     		movs	r0, #1
 2383 0016 84F83400 		strb	r0, [r4, #52]
 635:Drivers/STM32H7xx_HAL_Driver/Src/stm32h7xx_hal_dma.c ****   {
 2384              		.loc 1 635 0 is_stmt 1 discriminator 2
 2385 001a 94F83500 		ldrb	r0, [r4, #53]	@ zero_extendqisi2
 2386 001e C0B2     		uxtb	r0, r0
 2387 0020 0128     		cmp	r0, #1
 2388 0022 07D0     		beq	.L288
 655:Drivers/STM32H7xx_HAL_Driver/Src/stm32h7xx_hal_dma.c **** 
 2389              		.loc 1 655 0
 2390 0024 4FF40063 		mov	r3, #2048
 2391              	.LVL120:
 2392 0028 6365     		str	r3, [r4, #84]
 658:Drivers/STM32H7xx_HAL_Driver/Src/stm32h7xx_hal_dma.c **** 
 2393              		.loc 1 658 0
 2394 002a 0023     		movs	r3, #0
 2395 002c 84F83430 		strb	r3, [r4, #52]
 2396              	.LVL121:
 661:Drivers/STM32H7xx_HAL_Driver/Src/stm32h7xx_hal_dma.c ****   }
 2397              		.loc 1 661 0
 2398 0030 0120     		movs	r0, #1
 2399 0032 70BD     		pop	{r4, r5, r6, pc}
 2400              	.LVL122:
 2401              	.L288:
 638:Drivers/STM32H7xx_HAL_Driver/Src/stm32h7xx_hal_dma.c **** 
 2402              		.loc 1 638 0
 2403 0034 0220     		movs	r0, #2
 2404 0036 84F83500 		strb	r0, [r4, #53]
 641:Drivers/STM32H7xx_HAL_Driver/Src/stm32h7xx_hal_dma.c **** 
 2405              		.loc 1 641 0
ARM GAS  C:\Users\CompuTOP\AppData\Local\Temp\cc4hOfP8.s 			page 84


 2406 003a 0020     		movs	r0, #0
 2407 003c 6065     		str	r0, [r4, #84]
 644:Drivers/STM32H7xx_HAL_Driver/Src/stm32h7xx_hal_dma.c **** 
 2408              		.loc 1 644 0
 2409 003e 2068     		ldr	r0, [r4]
 2410 0040 3F4D     		ldr	r5, .L289
 2411 0042 404E     		ldr	r6, .L289+4
 2412 0044 A842     		cmp	r0, r5
 2413 0046 18BF     		it	ne
 2414 0048 B042     		cmpne	r0, r6
 2415 004a 2FD0     		beq	.L277
 644:Drivers/STM32H7xx_HAL_Driver/Src/stm32h7xx_hal_dma.c **** 
 2416              		.loc 1 644 0 is_stmt 0 discriminator 2
 2417 004c 1835     		adds	r5, r5, #24
 2418 004e A842     		cmp	r0, r5
 2419 0050 2CD0     		beq	.L277
 644:Drivers/STM32H7xx_HAL_Driver/Src/stm32h7xx_hal_dma.c **** 
 2420              		.loc 1 644 0 discriminator 4
 2421 0052 1835     		adds	r5, r5, #24
 2422 0054 A842     		cmp	r0, r5
 2423 0056 29D0     		beq	.L277
 644:Drivers/STM32H7xx_HAL_Driver/Src/stm32h7xx_hal_dma.c **** 
 2424              		.loc 1 644 0 discriminator 6
 2425 0058 1835     		adds	r5, r5, #24
 2426 005a A842     		cmp	r0, r5
 2427 005c 26D0     		beq	.L277
 644:Drivers/STM32H7xx_HAL_Driver/Src/stm32h7xx_hal_dma.c **** 
 2428              		.loc 1 644 0 discriminator 8
 2429 005e 1835     		adds	r5, r5, #24
 2430 0060 A842     		cmp	r0, r5
 2431 0062 23D0     		beq	.L277
 644:Drivers/STM32H7xx_HAL_Driver/Src/stm32h7xx_hal_dma.c **** 
 2432              		.loc 1 644 0 discriminator 10
 2433 0064 1835     		adds	r5, r5, #24
 2434 0066 A842     		cmp	r0, r5
 2435 0068 20D0     		beq	.L277
 644:Drivers/STM32H7xx_HAL_Driver/Src/stm32h7xx_hal_dma.c **** 
 2436              		.loc 1 644 0 discriminator 12
 2437 006a 1835     		adds	r5, r5, #24
 2438 006c A842     		cmp	r0, r5
 2439 006e 1DD0     		beq	.L277
 644:Drivers/STM32H7xx_HAL_Driver/Src/stm32h7xx_hal_dma.c **** 
 2440              		.loc 1 644 0 discriminator 14
 2441 0070 05F55675 		add	r5, r5, #856
 2442 0074 A842     		cmp	r0, r5
 2443 0076 19D0     		beq	.L277
 644:Drivers/STM32H7xx_HAL_Driver/Src/stm32h7xx_hal_dma.c **** 
 2444              		.loc 1 644 0 discriminator 16
 2445 0078 1835     		adds	r5, r5, #24
 2446 007a A842     		cmp	r0, r5
 2447 007c 16D0     		beq	.L277
 644:Drivers/STM32H7xx_HAL_Driver/Src/stm32h7xx_hal_dma.c **** 
 2448              		.loc 1 644 0 discriminator 18
 2449 007e 1835     		adds	r5, r5, #24
 2450 0080 A842     		cmp	r0, r5
 2451 0082 13D0     		beq	.L277
 644:Drivers/STM32H7xx_HAL_Driver/Src/stm32h7xx_hal_dma.c **** 
ARM GAS  C:\Users\CompuTOP\AppData\Local\Temp\cc4hOfP8.s 			page 85


 2452              		.loc 1 644 0 discriminator 20
 2453 0084 1835     		adds	r5, r5, #24
 2454 0086 A842     		cmp	r0, r5
 2455 0088 10D0     		beq	.L277
 644:Drivers/STM32H7xx_HAL_Driver/Src/stm32h7xx_hal_dma.c **** 
 2456              		.loc 1 644 0 discriminator 22
 2457 008a 1835     		adds	r5, r5, #24
 2458 008c A842     		cmp	r0, r5
 2459 008e 0DD0     		beq	.L277
 644:Drivers/STM32H7xx_HAL_Driver/Src/stm32h7xx_hal_dma.c **** 
 2460              		.loc 1 644 0 discriminator 24
 2461 0090 1835     		adds	r5, r5, #24
 2462 0092 A842     		cmp	r0, r5
 2463 0094 0AD0     		beq	.L277
 644:Drivers/STM32H7xx_HAL_Driver/Src/stm32h7xx_hal_dma.c **** 
 2464              		.loc 1 644 0 discriminator 26
 2465 0096 1835     		adds	r5, r5, #24
 2466 0098 A842     		cmp	r0, r5
 2467 009a 07D0     		beq	.L277
 644:Drivers/STM32H7xx_HAL_Driver/Src/stm32h7xx_hal_dma.c **** 
 2468              		.loc 1 644 0 discriminator 28
 2469 009c 1835     		adds	r5, r5, #24
 2470 009e A842     		cmp	r0, r5
 2471 00a0 04D0     		beq	.L277
 644:Drivers/STM32H7xx_HAL_Driver/Src/stm32h7xx_hal_dma.c **** 
 2472              		.loc 1 644 0 discriminator 30
 2473 00a2 0568     		ldr	r5, [r0]
 2474 00a4 25F00105 		bic	r5, r5, #1
 2475 00a8 0560     		str	r5, [r0]
 2476 00aa 03E0     		b	.L279
 2477              	.L277:
 644:Drivers/STM32H7xx_HAL_Driver/Src/stm32h7xx_hal_dma.c **** 
 2478              		.loc 1 644 0 discriminator 29
 2479 00ac 0568     		ldr	r5, [r0]
 2480 00ae 25F00105 		bic	r5, r5, #1
 2481 00b2 0560     		str	r5, [r0]
 2482              	.L279:
 647:Drivers/STM32H7xx_HAL_Driver/Src/stm32h7xx_hal_dma.c **** 
 2483              		.loc 1 647 0 is_stmt 1
 2484 00b4 2046     		mov	r0, r4
 2485 00b6 FFF7FEFF 		bl	DMA_SetConfig
 2486              	.LVL123:
 650:Drivers/STM32H7xx_HAL_Driver/Src/stm32h7xx_hal_dma.c ****   }
 2487              		.loc 1 650 0
 2488 00ba 2368     		ldr	r3, [r4]
 2489 00bc 204A     		ldr	r2, .L289
 2490 00be 2149     		ldr	r1, .L289+4
 2491 00c0 9342     		cmp	r3, r2
 2492 00c2 18BF     		it	ne
 2493 00c4 8B42     		cmpne	r3, r1
 2494 00c6 30D0     		beq	.L280
 650:Drivers/STM32H7xx_HAL_Driver/Src/stm32h7xx_hal_dma.c ****   }
 2495              		.loc 1 650 0 is_stmt 0 discriminator 2
 2496 00c8 1832     		adds	r2, r2, #24
 2497 00ca 9342     		cmp	r3, r2
 2498 00cc 2DD0     		beq	.L280
 650:Drivers/STM32H7xx_HAL_Driver/Src/stm32h7xx_hal_dma.c ****   }
ARM GAS  C:\Users\CompuTOP\AppData\Local\Temp\cc4hOfP8.s 			page 86


 2499              		.loc 1 650 0 discriminator 4
 2500 00ce 1832     		adds	r2, r2, #24
 2501 00d0 9342     		cmp	r3, r2
 2502 00d2 2AD0     		beq	.L280
 650:Drivers/STM32H7xx_HAL_Driver/Src/stm32h7xx_hal_dma.c ****   }
 2503              		.loc 1 650 0 discriminator 6
 2504 00d4 1832     		adds	r2, r2, #24
 2505 00d6 9342     		cmp	r3, r2
 2506 00d8 27D0     		beq	.L280
 650:Drivers/STM32H7xx_HAL_Driver/Src/stm32h7xx_hal_dma.c ****   }
 2507              		.loc 1 650 0 discriminator 8
 2508 00da 1832     		adds	r2, r2, #24
 2509 00dc 9342     		cmp	r3, r2
 2510 00de 24D0     		beq	.L280
 650:Drivers/STM32H7xx_HAL_Driver/Src/stm32h7xx_hal_dma.c ****   }
 2511              		.loc 1 650 0 discriminator 10
 2512 00e0 1832     		adds	r2, r2, #24
 2513 00e2 9342     		cmp	r3, r2
 2514 00e4 21D0     		beq	.L280
 650:Drivers/STM32H7xx_HAL_Driver/Src/stm32h7xx_hal_dma.c ****   }
 2515              		.loc 1 650 0 discriminator 12
 2516 00e6 1832     		adds	r2, r2, #24
 2517 00e8 9342     		cmp	r3, r2
 2518 00ea 1ED0     		beq	.L280
 650:Drivers/STM32H7xx_HAL_Driver/Src/stm32h7xx_hal_dma.c ****   }
 2519              		.loc 1 650 0 discriminator 14
 2520 00ec 02F55672 		add	r2, r2, #856
 2521 00f0 9342     		cmp	r3, r2
 2522 00f2 1AD0     		beq	.L280
 650:Drivers/STM32H7xx_HAL_Driver/Src/stm32h7xx_hal_dma.c ****   }
 2523              		.loc 1 650 0 discriminator 16
 2524 00f4 1832     		adds	r2, r2, #24
 2525 00f6 9342     		cmp	r3, r2
 2526 00f8 17D0     		beq	.L280
 650:Drivers/STM32H7xx_HAL_Driver/Src/stm32h7xx_hal_dma.c ****   }
 2527              		.loc 1 650 0 discriminator 18
 2528 00fa 1832     		adds	r2, r2, #24
 2529 00fc 9342     		cmp	r3, r2
 2530 00fe 14D0     		beq	.L280
 650:Drivers/STM32H7xx_HAL_Driver/Src/stm32h7xx_hal_dma.c ****   }
 2531              		.loc 1 650 0 discriminator 20
 2532 0100 1832     		adds	r2, r2, #24
 2533 0102 9342     		cmp	r3, r2
 2534 0104 11D0     		beq	.L280
 650:Drivers/STM32H7xx_HAL_Driver/Src/stm32h7xx_hal_dma.c ****   }
 2535              		.loc 1 650 0 discriminator 22
 2536 0106 1832     		adds	r2, r2, #24
 2537 0108 9342     		cmp	r3, r2
 2538 010a 0ED0     		beq	.L280
 650:Drivers/STM32H7xx_HAL_Driver/Src/stm32h7xx_hal_dma.c ****   }
 2539              		.loc 1 650 0 discriminator 24
 2540 010c 1832     		adds	r2, r2, #24
 2541 010e 9342     		cmp	r3, r2
 2542 0110 0BD0     		beq	.L280
 650:Drivers/STM32H7xx_HAL_Driver/Src/stm32h7xx_hal_dma.c ****   }
 2543              		.loc 1 650 0 discriminator 26
 2544 0112 1832     		adds	r2, r2, #24
ARM GAS  C:\Users\CompuTOP\AppData\Local\Temp\cc4hOfP8.s 			page 87


 2545 0114 9342     		cmp	r3, r2
 2546 0116 08D0     		beq	.L280
 650:Drivers/STM32H7xx_HAL_Driver/Src/stm32h7xx_hal_dma.c ****   }
 2547              		.loc 1 650 0 discriminator 28
 2548 0118 1832     		adds	r2, r2, #24
 2549 011a 9342     		cmp	r3, r2
 2550 011c 05D0     		beq	.L280
 650:Drivers/STM32H7xx_HAL_Driver/Src/stm32h7xx_hal_dma.c ****   }
 2551              		.loc 1 650 0 discriminator 30
 2552 011e 1A68     		ldr	r2, [r3]
 2553 0120 42F00102 		orr	r2, r2, #1
 2554 0124 1A60     		str	r2, [r3]
 621:Drivers/STM32H7xx_HAL_Driver/Src/stm32h7xx_hal_dma.c **** 
 2555              		.loc 1 621 0 is_stmt 1 discriminator 30
 2556 0126 0020     		movs	r0, #0
 2557 0128 70BD     		pop	{r4, r5, r6, pc}
 2558              	.LVL124:
 2559              	.L280:
 650:Drivers/STM32H7xx_HAL_Driver/Src/stm32h7xx_hal_dma.c ****   }
 2560              		.loc 1 650 0 discriminator 29
 2561 012a 1A68     		ldr	r2, [r3]
 2562 012c 42F00102 		orr	r2, r2, #1
 2563 0130 1A60     		str	r2, [r3]
 621:Drivers/STM32H7xx_HAL_Driver/Src/stm32h7xx_hal_dma.c **** 
 2564              		.loc 1 621 0 discriminator 29
 2565 0132 0020     		movs	r0, #0
 650:Drivers/STM32H7xx_HAL_Driver/Src/stm32h7xx_hal_dma.c ****   }
 2566              		.loc 1 650 0 discriminator 29
 2567 0134 70BD     		pop	{r4, r5, r6, pc}
 2568              	.LVL125:
 2569              	.L282:
 2570              	.LCFI12:
 2571              		.cfi_def_cfa_offset 0
 2572              		.cfi_restore 4
 2573              		.cfi_restore 5
 2574              		.cfi_restore 6
 2575              		.cfi_restore 14
 629:Drivers/STM32H7xx_HAL_Driver/Src/stm32h7xx_hal_dma.c ****   }
 2576              		.loc 1 629 0
 2577 0136 0120     		movs	r0, #1
 2578              	.LVL126:
 2579 0138 7047     		bx	lr
 2580              	.LVL127:
 2581              	.L283:
 2582              	.LCFI13:
 2583              		.cfi_def_cfa_offset 16
 2584              		.cfi_offset 4, -16
 2585              		.cfi_offset 5, -12
 2586              		.cfi_offset 6, -8
 2587              		.cfi_offset 14, -4
 633:Drivers/STM32H7xx_HAL_Driver/Src/stm32h7xx_hal_dma.c **** 
 2588              		.loc 1 633 0
 2589 013a 0220     		movs	r0, #2
 664:Drivers/STM32H7xx_HAL_Driver/Src/stm32h7xx_hal_dma.c **** 
 2590              		.loc 1 664 0
 2591 013c 70BD     		pop	{r4, r5, r6, pc}
 2592              	.LVL128:
ARM GAS  C:\Users\CompuTOP\AppData\Local\Temp\cc4hOfP8.s 			page 88


 2593              	.L290:
 2594 013e 00BF     		.align	2
 2595              	.L289:
 2596 0140 28000240 		.word	1073872936
 2597 0144 10000240 		.word	1073872912
 2598              		.cfi_endproc
 2599              	.LFE146:
 2601              		.section	.text.HAL_DMA_Start_IT,"ax",%progbits
 2602              		.align	1
 2603              		.global	HAL_DMA_Start_IT
 2604              		.syntax unified
 2605              		.thumb
 2606              		.thumb_func
 2607              		.fpu fpv5-d16
 2609              	HAL_DMA_Start_IT:
 2610              	.LFB147:
 676:Drivers/STM32H7xx_HAL_Driver/Src/stm32h7xx_hal_dma.c ****   HAL_StatusTypeDef status = HAL_OK;
 2611              		.loc 1 676 0
 2612              		.cfi_startproc
 2613              		@ args = 0, pretend = 0, frame = 0
 2614              		@ frame_needed = 0, uses_anonymous_args = 0
 2615              	.LVL129:
 683:Drivers/STM32H7xx_HAL_Driver/Src/stm32h7xx_hal_dma.c ****   {
 2616              		.loc 1 683 0
 2617 0000 0028     		cmp	r0, #0
 2618 0002 00F0BB81 		beq	.L305
 676:Drivers/STM32H7xx_HAL_Driver/Src/stm32h7xx_hal_dma.c ****   HAL_StatusTypeDef status = HAL_OK;
 2619              		.loc 1 676 0
 2620 0006 70B5     		push	{r4, r5, r6, lr}
 2621              	.LCFI14:
 2622              		.cfi_def_cfa_offset 16
 2623              		.cfi_offset 4, -16
 2624              		.cfi_offset 5, -12
 2625              		.cfi_offset 6, -8
 2626              		.cfi_offset 14, -4
 2627 0008 0446     		mov	r4, r0
 689:Drivers/STM32H7xx_HAL_Driver/Src/stm32h7xx_hal_dma.c **** 
 2628              		.loc 1 689 0
 2629 000a 90F83400 		ldrb	r0, [r0, #52]	@ zero_extendqisi2
 2630              	.LVL130:
 2631 000e 0128     		cmp	r0, #1
 2632 0010 00F0B681 		beq	.L306
 689:Drivers/STM32H7xx_HAL_Driver/Src/stm32h7xx_hal_dma.c **** 
 2633              		.loc 1 689 0 is_stmt 0 discriminator 2
 2634 0014 0120     		movs	r0, #1
 2635 0016 84F83400 		strb	r0, [r4, #52]
 691:Drivers/STM32H7xx_HAL_Driver/Src/stm32h7xx_hal_dma.c ****   {
 2636              		.loc 1 691 0 is_stmt 1 discriminator 2
 2637 001a 94F83500 		ldrb	r0, [r4, #53]	@ zero_extendqisi2
 2638 001e C0B2     		uxtb	r0, r0
 2639 0020 0128     		cmp	r0, #1
 2640 0022 07D0     		beq	.L349
 751:Drivers/STM32H7xx_HAL_Driver/Src/stm32h7xx_hal_dma.c **** 
 2641              		.loc 1 751 0
 2642 0024 4FF40063 		mov	r3, #2048
 2643              	.LVL131:
 2644 0028 6365     		str	r3, [r4, #84]
ARM GAS  C:\Users\CompuTOP\AppData\Local\Temp\cc4hOfP8.s 			page 89


 754:Drivers/STM32H7xx_HAL_Driver/Src/stm32h7xx_hal_dma.c **** 
 2645              		.loc 1 754 0
 2646 002a 0023     		movs	r3, #0
 2647 002c 84F83430 		strb	r3, [r4, #52]
 2648              	.LVL132:
 757:Drivers/STM32H7xx_HAL_Driver/Src/stm32h7xx_hal_dma.c ****   }
 2649              		.loc 1 757 0
 2650 0030 0120     		movs	r0, #1
 2651 0032 70BD     		pop	{r4, r5, r6, pc}
 2652              	.LVL133:
 2653              	.L349:
 694:Drivers/STM32H7xx_HAL_Driver/Src/stm32h7xx_hal_dma.c **** 
 2654              		.loc 1 694 0
 2655 0034 0220     		movs	r0, #2
 2656 0036 84F83500 		strb	r0, [r4, #53]
 697:Drivers/STM32H7xx_HAL_Driver/Src/stm32h7xx_hal_dma.c **** 
 2657              		.loc 1 697 0
 2658 003a 0020     		movs	r0, #0
 2659 003c 6065     		str	r0, [r4, #84]
 700:Drivers/STM32H7xx_HAL_Driver/Src/stm32h7xx_hal_dma.c **** 
 2660              		.loc 1 700 0
 2661 003e 2068     		ldr	r0, [r4]
 2662 0040 C24D     		ldr	r5, .L352
 2663 0042 C34E     		ldr	r6, .L352+4
 2664 0044 A842     		cmp	r0, r5
 2665 0046 18BF     		it	ne
 2666 0048 B042     		cmpne	r0, r6
 2667 004a 2FD0     		beq	.L294
 700:Drivers/STM32H7xx_HAL_Driver/Src/stm32h7xx_hal_dma.c **** 
 2668              		.loc 1 700 0 is_stmt 0 discriminator 2
 2669 004c 1835     		adds	r5, r5, #24
 2670 004e A842     		cmp	r0, r5
 2671 0050 2CD0     		beq	.L294
 700:Drivers/STM32H7xx_HAL_Driver/Src/stm32h7xx_hal_dma.c **** 
 2672              		.loc 1 700 0 discriminator 4
 2673 0052 1835     		adds	r5, r5, #24
 2674 0054 A842     		cmp	r0, r5
 2675 0056 29D0     		beq	.L294
 700:Drivers/STM32H7xx_HAL_Driver/Src/stm32h7xx_hal_dma.c **** 
 2676              		.loc 1 700 0 discriminator 6
 2677 0058 1835     		adds	r5, r5, #24
 2678 005a A842     		cmp	r0, r5
 2679 005c 26D0     		beq	.L294
 700:Drivers/STM32H7xx_HAL_Driver/Src/stm32h7xx_hal_dma.c **** 
 2680              		.loc 1 700 0 discriminator 8
 2681 005e 1835     		adds	r5, r5, #24
 2682 0060 A842     		cmp	r0, r5
 2683 0062 23D0     		beq	.L294
 700:Drivers/STM32H7xx_HAL_Driver/Src/stm32h7xx_hal_dma.c **** 
 2684              		.loc 1 700 0 discriminator 10
 2685 0064 1835     		adds	r5, r5, #24
 2686 0066 A842     		cmp	r0, r5
 2687 0068 20D0     		beq	.L294
 700:Drivers/STM32H7xx_HAL_Driver/Src/stm32h7xx_hal_dma.c **** 
 2688              		.loc 1 700 0 discriminator 12
 2689 006a 1835     		adds	r5, r5, #24
 2690 006c A842     		cmp	r0, r5
ARM GAS  C:\Users\CompuTOP\AppData\Local\Temp\cc4hOfP8.s 			page 90


 2691 006e 1DD0     		beq	.L294
 700:Drivers/STM32H7xx_HAL_Driver/Src/stm32h7xx_hal_dma.c **** 
 2692              		.loc 1 700 0 discriminator 14
 2693 0070 05F55675 		add	r5, r5, #856
 2694 0074 A842     		cmp	r0, r5
 2695 0076 19D0     		beq	.L294
 700:Drivers/STM32H7xx_HAL_Driver/Src/stm32h7xx_hal_dma.c **** 
 2696              		.loc 1 700 0 discriminator 16
 2697 0078 1835     		adds	r5, r5, #24
 2698 007a A842     		cmp	r0, r5
 2699 007c 16D0     		beq	.L294
 700:Drivers/STM32H7xx_HAL_Driver/Src/stm32h7xx_hal_dma.c **** 
 2700              		.loc 1 700 0 discriminator 18
 2701 007e 1835     		adds	r5, r5, #24
 2702 0080 A842     		cmp	r0, r5
 2703 0082 13D0     		beq	.L294
 700:Drivers/STM32H7xx_HAL_Driver/Src/stm32h7xx_hal_dma.c **** 
 2704              		.loc 1 700 0 discriminator 20
 2705 0084 1835     		adds	r5, r5, #24
 2706 0086 A842     		cmp	r0, r5
 2707 0088 10D0     		beq	.L294
 700:Drivers/STM32H7xx_HAL_Driver/Src/stm32h7xx_hal_dma.c **** 
 2708              		.loc 1 700 0 discriminator 22
 2709 008a 1835     		adds	r5, r5, #24
 2710 008c A842     		cmp	r0, r5
 2711 008e 0DD0     		beq	.L294
 700:Drivers/STM32H7xx_HAL_Driver/Src/stm32h7xx_hal_dma.c **** 
 2712              		.loc 1 700 0 discriminator 24
 2713 0090 1835     		adds	r5, r5, #24
 2714 0092 A842     		cmp	r0, r5
 2715 0094 0AD0     		beq	.L294
 700:Drivers/STM32H7xx_HAL_Driver/Src/stm32h7xx_hal_dma.c **** 
 2716              		.loc 1 700 0 discriminator 26
 2717 0096 1835     		adds	r5, r5, #24
 2718 0098 A842     		cmp	r0, r5
 2719 009a 07D0     		beq	.L294
 700:Drivers/STM32H7xx_HAL_Driver/Src/stm32h7xx_hal_dma.c **** 
 2720              		.loc 1 700 0 discriminator 28
 2721 009c 1835     		adds	r5, r5, #24
 2722 009e A842     		cmp	r0, r5
 2723 00a0 04D0     		beq	.L294
 700:Drivers/STM32H7xx_HAL_Driver/Src/stm32h7xx_hal_dma.c **** 
 2724              		.loc 1 700 0 discriminator 30
 2725 00a2 0568     		ldr	r5, [r0]
 2726 00a4 25F00105 		bic	r5, r5, #1
 2727 00a8 0560     		str	r5, [r0]
 2728 00aa 03E0     		b	.L296
 2729              	.L294:
 700:Drivers/STM32H7xx_HAL_Driver/Src/stm32h7xx_hal_dma.c **** 
 2730              		.loc 1 700 0 discriminator 29
 2731 00ac 0568     		ldr	r5, [r0]
 2732 00ae 25F00105 		bic	r5, r5, #1
 2733 00b2 0560     		str	r5, [r0]
 2734              	.L296:
 703:Drivers/STM32H7xx_HAL_Driver/Src/stm32h7xx_hal_dma.c **** 
 2735              		.loc 1 703 0 is_stmt 1
 2736 00b4 2046     		mov	r0, r4
ARM GAS  C:\Users\CompuTOP\AppData\Local\Temp\cc4hOfP8.s 			page 91


 2737 00b6 FFF7FEFF 		bl	DMA_SetConfig
 2738              	.LVL134:
 705:Drivers/STM32H7xx_HAL_Driver/Src/stm32h7xx_hal_dma.c ****     {
 2739              		.loc 1 705 0
 2740 00ba 2368     		ldr	r3, [r4]
 2741 00bc A34A     		ldr	r2, .L352
 2742 00be A449     		ldr	r1, .L352+4
 2743 00c0 9342     		cmp	r3, r2
 2744 00c2 18BF     		it	ne
 2745 00c4 8B42     		cmpne	r3, r1
 2746 00c6 3BD0     		beq	.L307
 705:Drivers/STM32H7xx_HAL_Driver/Src/stm32h7xx_hal_dma.c ****     {
 2747              		.loc 1 705 0 is_stmt 0 discriminator 2
 2748 00c8 1832     		adds	r2, r2, #24
 2749 00ca 9342     		cmp	r3, r2
 2750 00cc 00F0AB80 		beq	.L308
 705:Drivers/STM32H7xx_HAL_Driver/Src/stm32h7xx_hal_dma.c ****     {
 2751              		.loc 1 705 0 discriminator 4
 2752 00d0 1832     		adds	r2, r2, #24
 2753 00d2 9342     		cmp	r3, r2
 2754 00d4 00F0A980 		beq	.L309
 705:Drivers/STM32H7xx_HAL_Driver/Src/stm32h7xx_hal_dma.c ****     {
 2755              		.loc 1 705 0 discriminator 6
 2756 00d8 1832     		adds	r2, r2, #24
 2757 00da 9342     		cmp	r3, r2
 2758 00dc 00F0A780 		beq	.L310
 705:Drivers/STM32H7xx_HAL_Driver/Src/stm32h7xx_hal_dma.c ****     {
 2759              		.loc 1 705 0 discriminator 8
 2760 00e0 1832     		adds	r2, r2, #24
 2761 00e2 9342     		cmp	r3, r2
 2762 00e4 00F0A580 		beq	.L311
 705:Drivers/STM32H7xx_HAL_Driver/Src/stm32h7xx_hal_dma.c ****     {
 2763              		.loc 1 705 0 discriminator 10
 2764 00e8 1832     		adds	r2, r2, #24
 2765 00ea 9342     		cmp	r3, r2
 2766 00ec 00F0A380 		beq	.L312
 705:Drivers/STM32H7xx_HAL_Driver/Src/stm32h7xx_hal_dma.c ****     {
 2767              		.loc 1 705 0 discriminator 12
 2768 00f0 1832     		adds	r2, r2, #24
 2769 00f2 9342     		cmp	r3, r2
 2770 00f4 00F0A180 		beq	.L313
 705:Drivers/STM32H7xx_HAL_Driver/Src/stm32h7xx_hal_dma.c ****     {
 2771              		.loc 1 705 0 discriminator 14
 2772 00f8 02F55672 		add	r2, r2, #856
 2773 00fc 9342     		cmp	r3, r2
 2774 00fe 00F09E80 		beq	.L314
 705:Drivers/STM32H7xx_HAL_Driver/Src/stm32h7xx_hal_dma.c ****     {
 2775              		.loc 1 705 0 discriminator 16
 2776 0102 1832     		adds	r2, r2, #24
 2777 0104 9342     		cmp	r3, r2
 2778 0106 00F09C80 		beq	.L315
 705:Drivers/STM32H7xx_HAL_Driver/Src/stm32h7xx_hal_dma.c ****     {
 2779              		.loc 1 705 0 discriminator 18
 2780 010a 1832     		adds	r2, r2, #24
 2781 010c 9342     		cmp	r3, r2
 2782 010e 00F09A80 		beq	.L316
 705:Drivers/STM32H7xx_HAL_Driver/Src/stm32h7xx_hal_dma.c ****     {
ARM GAS  C:\Users\CompuTOP\AppData\Local\Temp\cc4hOfP8.s 			page 92


 2783              		.loc 1 705 0 discriminator 20
 2784 0112 1832     		adds	r2, r2, #24
 2785 0114 9342     		cmp	r3, r2
 2786 0116 00F09880 		beq	.L317
 705:Drivers/STM32H7xx_HAL_Driver/Src/stm32h7xx_hal_dma.c ****     {
 2787              		.loc 1 705 0 discriminator 22
 2788 011a 1832     		adds	r2, r2, #24
 2789 011c 9342     		cmp	r3, r2
 2790 011e 00F09680 		beq	.L318
 705:Drivers/STM32H7xx_HAL_Driver/Src/stm32h7xx_hal_dma.c ****     {
 2791              		.loc 1 705 0 discriminator 24
 2792 0122 1832     		adds	r2, r2, #24
 2793 0124 9342     		cmp	r3, r2
 2794 0126 00F09480 		beq	.L319
 705:Drivers/STM32H7xx_HAL_Driver/Src/stm32h7xx_hal_dma.c ****     {
 2795              		.loc 1 705 0 discriminator 26
 2796 012a 1832     		adds	r2, r2, #24
 2797 012c 9342     		cmp	r3, r2
 2798 012e 00F09280 		beq	.L320
 705:Drivers/STM32H7xx_HAL_Driver/Src/stm32h7xx_hal_dma.c ****     {
 2799              		.loc 1 705 0 discriminator 28
 2800 0132 1832     		adds	r2, r2, #24
 2801 0134 9342     		cmp	r3, r2
 2802 0136 01D0     		beq	.L350
 705:Drivers/STM32H7xx_HAL_Driver/Src/stm32h7xx_hal_dma.c ****     {
 2803              		.loc 1 705 0
 2804 0138 0022     		movs	r2, #0
 2805 013a 02E0     		b	.L297
 2806              	.L350:
 2807 013c 0122     		movs	r2, #1
 2808 013e 00E0     		b	.L297
 2809              	.L307:
 2810 0140 0122     		movs	r2, #1
 2811              	.L297:
 705:Drivers/STM32H7xx_HAL_Driver/Src/stm32h7xx_hal_dma.c ****     {
 2812              		.loc 1 705 0 discriminator 32
 2813 0142 002A     		cmp	r2, #0
 2814 0144 00F08980 		beq	.L298
 708:Drivers/STM32H7xx_HAL_Driver/Src/stm32h7xx_hal_dma.c **** 
 2815              		.loc 1 708 0 is_stmt 1
 2816 0148 1A68     		ldr	r2, [r3]
 2817 014a 22F01E02 		bic	r2, r2, #30
 2818 014e 42F01602 		orr	r2, r2, #22
 2819 0152 1A60     		str	r2, [r3]
 710:Drivers/STM32H7xx_HAL_Driver/Src/stm32h7xx_hal_dma.c ****       {
 2820              		.loc 1 710 0
 2821 0154 236C     		ldr	r3, [r4, #64]
 2822 0156 23B1     		cbz	r3, .L299
 713:Drivers/STM32H7xx_HAL_Driver/Src/stm32h7xx_hal_dma.c ****       }
 2823              		.loc 1 713 0
 2824 0158 2268     		ldr	r2, [r4]
 2825 015a 1368     		ldr	r3, [r2]
 2826 015c 43F00803 		orr	r3, r3, #8
 2827 0160 1360     		str	r3, [r2]
 2828              	.L299:
 728:Drivers/STM32H7xx_HAL_Driver/Src/stm32h7xx_hal_dma.c ****     {
 2829              		.loc 1 728 0
ARM GAS  C:\Users\CompuTOP\AppData\Local\Temp\cc4hOfP8.s 			page 93


 2830 0162 2368     		ldr	r3, [r4]
 2831 0164 794A     		ldr	r2, .L352
 2832 0166 7A49     		ldr	r1, .L352+4
 2833 0168 9342     		cmp	r3, r2
 2834 016a 18BF     		it	ne
 2835 016c 8B42     		cmpne	r3, r1
 2836 016e 00F08680 		beq	.L322
 728:Drivers/STM32H7xx_HAL_Driver/Src/stm32h7xx_hal_dma.c ****     {
 2837              		.loc 1 728 0 is_stmt 0 discriminator 2
 2838 0172 1832     		adds	r2, r2, #24
 2839 0174 9342     		cmp	r3, r2
 2840 0176 00F0CB80 		beq	.L323
 728:Drivers/STM32H7xx_HAL_Driver/Src/stm32h7xx_hal_dma.c ****     {
 2841              		.loc 1 728 0 discriminator 4
 2842 017a 1832     		adds	r2, r2, #24
 2843 017c 9342     		cmp	r3, r2
 2844 017e 00F0C980 		beq	.L324
 728:Drivers/STM32H7xx_HAL_Driver/Src/stm32h7xx_hal_dma.c ****     {
 2845              		.loc 1 728 0 discriminator 6
 2846 0182 1832     		adds	r2, r2, #24
 2847 0184 9342     		cmp	r3, r2
 2848 0186 00F0C780 		beq	.L325
 728:Drivers/STM32H7xx_HAL_Driver/Src/stm32h7xx_hal_dma.c ****     {
 2849              		.loc 1 728 0 discriminator 8
 2850 018a 1832     		adds	r2, r2, #24
 2851 018c 9342     		cmp	r3, r2
 2852 018e 00F0C580 		beq	.L326
 728:Drivers/STM32H7xx_HAL_Driver/Src/stm32h7xx_hal_dma.c ****     {
 2853              		.loc 1 728 0 discriminator 10
 2854 0192 1832     		adds	r2, r2, #24
 2855 0194 9342     		cmp	r3, r2
 2856 0196 00F0C380 		beq	.L327
 728:Drivers/STM32H7xx_HAL_Driver/Src/stm32h7xx_hal_dma.c ****     {
 2857              		.loc 1 728 0 discriminator 12
 2858 019a 1832     		adds	r2, r2, #24
 2859 019c 9342     		cmp	r3, r2
 2860 019e 00F0C180 		beq	.L328
 728:Drivers/STM32H7xx_HAL_Driver/Src/stm32h7xx_hal_dma.c ****     {
 2861              		.loc 1 728 0 discriminator 14
 2862 01a2 02F55672 		add	r2, r2, #856
 2863 01a6 9342     		cmp	r3, r2
 2864 01a8 00F0BE80 		beq	.L329
 728:Drivers/STM32H7xx_HAL_Driver/Src/stm32h7xx_hal_dma.c ****     {
 2865              		.loc 1 728 0 discriminator 16
 2866 01ac 1832     		adds	r2, r2, #24
 2867 01ae 9342     		cmp	r3, r2
 2868 01b0 00F0BC80 		beq	.L330
 728:Drivers/STM32H7xx_HAL_Driver/Src/stm32h7xx_hal_dma.c ****     {
 2869              		.loc 1 728 0 discriminator 18
 2870 01b4 1832     		adds	r2, r2, #24
 2871 01b6 9342     		cmp	r3, r2
 2872 01b8 00F0BA80 		beq	.L331
 728:Drivers/STM32H7xx_HAL_Driver/Src/stm32h7xx_hal_dma.c ****     {
 2873              		.loc 1 728 0 discriminator 20
 2874 01bc 1832     		adds	r2, r2, #24
 2875 01be 9342     		cmp	r3, r2
 2876 01c0 00F0B880 		beq	.L332
ARM GAS  C:\Users\CompuTOP\AppData\Local\Temp\cc4hOfP8.s 			page 94


 728:Drivers/STM32H7xx_HAL_Driver/Src/stm32h7xx_hal_dma.c ****     {
 2877              		.loc 1 728 0 discriminator 22
 2878 01c4 1832     		adds	r2, r2, #24
 2879 01c6 9342     		cmp	r3, r2
 2880 01c8 00F0B680 		beq	.L333
 728:Drivers/STM32H7xx_HAL_Driver/Src/stm32h7xx_hal_dma.c ****     {
 2881              		.loc 1 728 0 discriminator 24
 2882 01cc 1832     		adds	r2, r2, #24
 2883 01ce 9342     		cmp	r3, r2
 2884 01d0 00F0B480 		beq	.L334
 728:Drivers/STM32H7xx_HAL_Driver/Src/stm32h7xx_hal_dma.c ****     {
 2885              		.loc 1 728 0 discriminator 26
 2886 01d4 1832     		adds	r2, r2, #24
 2887 01d6 9342     		cmp	r3, r2
 2888 01d8 00F0B280 		beq	.L335
 728:Drivers/STM32H7xx_HAL_Driver/Src/stm32h7xx_hal_dma.c ****     {
 2889              		.loc 1 728 0 discriminator 28
 2890 01dc 1832     		adds	r2, r2, #24
 2891 01de 9342     		cmp	r3, r2
 2892 01e0 00F0B080 		beq	.L336
 728:Drivers/STM32H7xx_HAL_Driver/Src/stm32h7xx_hal_dma.c ****     {
 2893              		.loc 1 728 0 discriminator 30
 2894 01e4 5B4A     		ldr	r2, .L352+8
 2895 01e6 9342     		cmp	r3, r2
 2896 01e8 00F0AE80 		beq	.L337
 728:Drivers/STM32H7xx_HAL_Driver/Src/stm32h7xx_hal_dma.c ****     {
 2897              		.loc 1 728 0 discriminator 32
 2898 01ec 1432     		adds	r2, r2, #20
 2899 01ee 9342     		cmp	r3, r2
 2900 01f0 00F0B280 		beq	.L338
 728:Drivers/STM32H7xx_HAL_Driver/Src/stm32h7xx_hal_dma.c ****     {
 2901              		.loc 1 728 0 discriminator 34
 2902 01f4 1432     		adds	r2, r2, #20
 2903 01f6 9342     		cmp	r3, r2
 2904 01f8 00F0B080 		beq	.L339
 728:Drivers/STM32H7xx_HAL_Driver/Src/stm32h7xx_hal_dma.c ****     {
 2905              		.loc 1 728 0 discriminator 36
 2906 01fc 1432     		adds	r2, r2, #20
 2907 01fe 9342     		cmp	r3, r2
 2908 0200 00F0AE80 		beq	.L340
 728:Drivers/STM32H7xx_HAL_Driver/Src/stm32h7xx_hal_dma.c ****     {
 2909              		.loc 1 728 0 discriminator 38
 2910 0204 1432     		adds	r2, r2, #20
 2911 0206 9342     		cmp	r3, r2
 2912 0208 00F0AC80 		beq	.L341
 728:Drivers/STM32H7xx_HAL_Driver/Src/stm32h7xx_hal_dma.c ****     {
 2913              		.loc 1 728 0 discriminator 40
 2914 020c 1432     		adds	r2, r2, #20
 2915 020e 9342     		cmp	r3, r2
 2916 0210 00F0AA80 		beq	.L342
 728:Drivers/STM32H7xx_HAL_Driver/Src/stm32h7xx_hal_dma.c ****     {
 2917              		.loc 1 728 0 discriminator 42
 2918 0214 1432     		adds	r2, r2, #20
 2919 0216 9342     		cmp	r3, r2
 2920 0218 00F0A880 		beq	.L343
 728:Drivers/STM32H7xx_HAL_Driver/Src/stm32h7xx_hal_dma.c ****     {
 2921              		.loc 1 728 0 discriminator 44
ARM GAS  C:\Users\CompuTOP\AppData\Local\Temp\cc4hOfP8.s 			page 95


 2922 021c 1432     		adds	r2, r2, #20
 2923 021e 9342     		cmp	r3, r2
 2924 0220 2BD0     		beq	.L351
 728:Drivers/STM32H7xx_HAL_Driver/Src/stm32h7xx_hal_dma.c ****     {
 2925              		.loc 1 728 0
 2926 0222 0023     		movs	r3, #0
 2927 0224 2CE0     		b	.L300
 2928              	.L308:
 705:Drivers/STM32H7xx_HAL_Driver/Src/stm32h7xx_hal_dma.c ****     {
 2929              		.loc 1 705 0 is_stmt 1
 2930 0226 0122     		movs	r2, #1
 2931 0228 8BE7     		b	.L297
 2932              	.L309:
 2933 022a 0122     		movs	r2, #1
 2934 022c 89E7     		b	.L297
 2935              	.L310:
 2936 022e 0122     		movs	r2, #1
 2937 0230 87E7     		b	.L297
 2938              	.L311:
 2939 0232 0122     		movs	r2, #1
 2940 0234 85E7     		b	.L297
 2941              	.L312:
 2942 0236 0122     		movs	r2, #1
 2943 0238 83E7     		b	.L297
 2944              	.L313:
 2945 023a 0122     		movs	r2, #1
 2946 023c 81E7     		b	.L297
 2947              	.L314:
 2948 023e 0122     		movs	r2, #1
 2949 0240 7FE7     		b	.L297
 2950              	.L315:
 2951 0242 0122     		movs	r2, #1
 2952 0244 7DE7     		b	.L297
 2953              	.L316:
 2954 0246 0122     		movs	r2, #1
 2955 0248 7BE7     		b	.L297
 2956              	.L317:
 2957 024a 0122     		movs	r2, #1
 2958 024c 79E7     		b	.L297
 2959              	.L318:
 2960 024e 0122     		movs	r2, #1
 2961 0250 77E7     		b	.L297
 2962              	.L319:
 2963 0252 0122     		movs	r2, #1
 2964 0254 75E7     		b	.L297
 2965              	.L320:
 2966 0256 0122     		movs	r2, #1
 2967 0258 73E7     		b	.L297
 2968              	.L298:
 719:Drivers/STM32H7xx_HAL_Driver/Src/stm32h7xx_hal_dma.c **** 
 2969              		.loc 1 719 0
 2970 025a 1A68     		ldr	r2, [r3]
 2971 025c 22F00E02 		bic	r2, r2, #14
 2972 0260 42F00A02 		orr	r2, r2, #10
 2973 0264 1A60     		str	r2, [r3]
 721:Drivers/STM32H7xx_HAL_Driver/Src/stm32h7xx_hal_dma.c ****       {
 2974              		.loc 1 721 0
ARM GAS  C:\Users\CompuTOP\AppData\Local\Temp\cc4hOfP8.s 			page 96


 2975 0266 236C     		ldr	r3, [r4, #64]
 2976 0268 002B     		cmp	r3, #0
 2977 026a 3FF47AAF 		beq	.L299
 724:Drivers/STM32H7xx_HAL_Driver/Src/stm32h7xx_hal_dma.c ****       }
 2978              		.loc 1 724 0
 2979 026e 2268     		ldr	r2, [r4]
 2980 0270 1368     		ldr	r3, [r2]
 2981 0272 43F00403 		orr	r3, r3, #4
 2982 0276 1360     		str	r3, [r2]
 2983 0278 73E7     		b	.L299
 2984              	.L351:
 728:Drivers/STM32H7xx_HAL_Driver/Src/stm32h7xx_hal_dma.c ****     {
 2985              		.loc 1 728 0
 2986 027a 0123     		movs	r3, #1
 2987 027c 00E0     		b	.L300
 2988              	.L322:
 2989 027e 0123     		movs	r3, #1
 2990              	.L300:
 728:Drivers/STM32H7xx_HAL_Driver/Src/stm32h7xx_hal_dma.c ****     {
 2991              		.loc 1 728 0 is_stmt 0 discriminator 48
 2992 0280 73B1     		cbz	r3, .L301
 731:Drivers/STM32H7xx_HAL_Driver/Src/stm32h7xx_hal_dma.c ****       {
 2993              		.loc 1 731 0 is_stmt 1
 2994 0282 236E     		ldr	r3, [r4, #96]
 2995 0284 1A68     		ldr	r2, [r3]
 2996 0286 12F4803F 		tst	r2, #65536
 2997 028a 03D0     		beq	.L302
 734:Drivers/STM32H7xx_HAL_Driver/Src/stm32h7xx_hal_dma.c ****       }
 2998              		.loc 1 734 0
 2999 028c 1A68     		ldr	r2, [r3]
 3000 028e 42F48072 		orr	r2, r2, #256
 3001 0292 1A60     		str	r2, [r3]
 3002              	.L302:
 737:Drivers/STM32H7xx_HAL_Driver/Src/stm32h7xx_hal_dma.c ****       {
 3003              		.loc 1 737 0
 3004 0294 E36E     		ldr	r3, [r4, #108]
 3005 0296 1BB1     		cbz	r3, .L301
 741:Drivers/STM32H7xx_HAL_Driver/Src/stm32h7xx_hal_dma.c ****       }
 3006              		.loc 1 741 0
 3007 0298 1A68     		ldr	r2, [r3]
 3008 029a 42F48072 		orr	r2, r2, #256
 3009 029e 1A60     		str	r2, [r3]
 3010              	.L301:
 746:Drivers/STM32H7xx_HAL_Driver/Src/stm32h7xx_hal_dma.c ****   }
 3011              		.loc 1 746 0
 3012 02a0 2368     		ldr	r3, [r4]
 3013 02a2 2A4A     		ldr	r2, .L352
 3014 02a4 2A49     		ldr	r1, .L352+4
 3015 02a6 9342     		cmp	r3, r2
 3016 02a8 18BF     		it	ne
 3017 02aa 8B42     		cmpne	r3, r1
 3018 02ac 60D0     		beq	.L303
 746:Drivers/STM32H7xx_HAL_Driver/Src/stm32h7xx_hal_dma.c ****   }
 3019              		.loc 1 746 0 is_stmt 0 discriminator 2
 3020 02ae 1832     		adds	r2, r2, #24
 3021 02b0 9342     		cmp	r3, r2
 3022 02b2 5DD0     		beq	.L303
ARM GAS  C:\Users\CompuTOP\AppData\Local\Temp\cc4hOfP8.s 			page 97


 746:Drivers/STM32H7xx_HAL_Driver/Src/stm32h7xx_hal_dma.c ****   }
 3023              		.loc 1 746 0 discriminator 4
 3024 02b4 1832     		adds	r2, r2, #24
 3025 02b6 9342     		cmp	r3, r2
 3026 02b8 5AD0     		beq	.L303
 746:Drivers/STM32H7xx_HAL_Driver/Src/stm32h7xx_hal_dma.c ****   }
 3027              		.loc 1 746 0 discriminator 6
 3028 02ba 1832     		adds	r2, r2, #24
 3029 02bc 9342     		cmp	r3, r2
 3030 02be 57D0     		beq	.L303
 746:Drivers/STM32H7xx_HAL_Driver/Src/stm32h7xx_hal_dma.c ****   }
 3031              		.loc 1 746 0 discriminator 8
 3032 02c0 1832     		adds	r2, r2, #24
 3033 02c2 9342     		cmp	r3, r2
 3034 02c4 54D0     		beq	.L303
 746:Drivers/STM32H7xx_HAL_Driver/Src/stm32h7xx_hal_dma.c ****   }
 3035              		.loc 1 746 0 discriminator 10
 3036 02c6 1832     		adds	r2, r2, #24
 3037 02c8 9342     		cmp	r3, r2
 3038 02ca 51D0     		beq	.L303
 746:Drivers/STM32H7xx_HAL_Driver/Src/stm32h7xx_hal_dma.c ****   }
 3039              		.loc 1 746 0 discriminator 12
 3040 02cc 1832     		adds	r2, r2, #24
 3041 02ce 9342     		cmp	r3, r2
 3042 02d0 4ED0     		beq	.L303
 746:Drivers/STM32H7xx_HAL_Driver/Src/stm32h7xx_hal_dma.c ****   }
 3043              		.loc 1 746 0 discriminator 14
 3044 02d2 02F55672 		add	r2, r2, #856
 3045 02d6 9342     		cmp	r3, r2
 3046 02d8 4AD0     		beq	.L303
 746:Drivers/STM32H7xx_HAL_Driver/Src/stm32h7xx_hal_dma.c ****   }
 3047              		.loc 1 746 0 discriminator 16
 3048 02da 1832     		adds	r2, r2, #24
 3049 02dc 9342     		cmp	r3, r2
 3050 02de 47D0     		beq	.L303
 746:Drivers/STM32H7xx_HAL_Driver/Src/stm32h7xx_hal_dma.c ****   }
 3051              		.loc 1 746 0 discriminator 18
 3052 02e0 1832     		adds	r2, r2, #24
 3053 02e2 9342     		cmp	r3, r2
 3054 02e4 44D0     		beq	.L303
 746:Drivers/STM32H7xx_HAL_Driver/Src/stm32h7xx_hal_dma.c ****   }
 3055              		.loc 1 746 0 discriminator 20
 3056 02e6 1832     		adds	r2, r2, #24
 3057 02e8 9342     		cmp	r3, r2
 3058 02ea 41D0     		beq	.L303
 746:Drivers/STM32H7xx_HAL_Driver/Src/stm32h7xx_hal_dma.c ****   }
 3059              		.loc 1 746 0 discriminator 22
 3060 02ec 1832     		adds	r2, r2, #24
 3061 02ee 9342     		cmp	r3, r2
 3062 02f0 3ED0     		beq	.L303
 746:Drivers/STM32H7xx_HAL_Driver/Src/stm32h7xx_hal_dma.c ****   }
 3063              		.loc 1 746 0 discriminator 24
 3064 02f2 1832     		adds	r2, r2, #24
 3065 02f4 9342     		cmp	r3, r2
 3066 02f6 3BD0     		beq	.L303
 746:Drivers/STM32H7xx_HAL_Driver/Src/stm32h7xx_hal_dma.c ****   }
 3067              		.loc 1 746 0 discriminator 26
ARM GAS  C:\Users\CompuTOP\AppData\Local\Temp\cc4hOfP8.s 			page 98


 3068 02f8 1832     		adds	r2, r2, #24
 3069 02fa 9342     		cmp	r3, r2
 3070 02fc 38D0     		beq	.L303
 746:Drivers/STM32H7xx_HAL_Driver/Src/stm32h7xx_hal_dma.c ****   }
 3071              		.loc 1 746 0 discriminator 28
 3072 02fe 1832     		adds	r2, r2, #24
 3073 0300 9342     		cmp	r3, r2
 3074 0302 35D0     		beq	.L303
 746:Drivers/STM32H7xx_HAL_Driver/Src/stm32h7xx_hal_dma.c ****   }
 3075              		.loc 1 746 0 discriminator 30
 3076 0304 1A68     		ldr	r2, [r3]
 3077 0306 42F00102 		orr	r2, r2, #1
 3078 030a 1A60     		str	r2, [r3]
 677:Drivers/STM32H7xx_HAL_Driver/Src/stm32h7xx_hal_dma.c **** 
 3079              		.loc 1 677 0 is_stmt 1 discriminator 30
 3080 030c 0020     		movs	r0, #0
 3081 030e 70BD     		pop	{r4, r5, r6, pc}
 3082              	.LVL135:
 3083              	.L323:
 728:Drivers/STM32H7xx_HAL_Driver/Src/stm32h7xx_hal_dma.c ****     {
 3084              		.loc 1 728 0
 3085 0310 0123     		movs	r3, #1
 3086 0312 B5E7     		b	.L300
 3087              	.L324:
 3088 0314 0123     		movs	r3, #1
 3089 0316 B3E7     		b	.L300
 3090              	.L325:
 3091 0318 0123     		movs	r3, #1
 3092 031a B1E7     		b	.L300
 3093              	.L326:
 3094 031c 0123     		movs	r3, #1
 3095 031e AFE7     		b	.L300
 3096              	.L327:
 3097 0320 0123     		movs	r3, #1
 3098 0322 ADE7     		b	.L300
 3099              	.L328:
 3100 0324 0123     		movs	r3, #1
 3101 0326 ABE7     		b	.L300
 3102              	.L329:
 3103 0328 0123     		movs	r3, #1
 3104 032a A9E7     		b	.L300
 3105              	.L330:
 3106 032c 0123     		movs	r3, #1
 3107 032e A7E7     		b	.L300
 3108              	.L331:
 3109 0330 0123     		movs	r3, #1
 3110 0332 A5E7     		b	.L300
 3111              	.L332:
 3112 0334 0123     		movs	r3, #1
 3113 0336 A3E7     		b	.L300
 3114              	.L333:
 3115 0338 0123     		movs	r3, #1
 3116 033a A1E7     		b	.L300
 3117              	.L334:
 3118 033c 0123     		movs	r3, #1
 3119 033e 9FE7     		b	.L300
 3120              	.L335:
ARM GAS  C:\Users\CompuTOP\AppData\Local\Temp\cc4hOfP8.s 			page 99


 3121 0340 0123     		movs	r3, #1
 3122 0342 9DE7     		b	.L300
 3123              	.L336:
 3124 0344 0123     		movs	r3, #1
 3125 0346 9BE7     		b	.L300
 3126              	.L337:
 3127 0348 0123     		movs	r3, #1
 3128 034a 99E7     		b	.L300
 3129              	.L353:
 3130              		.align	2
 3131              	.L352:
 3132 034c 28000240 		.word	1073872936
 3133 0350 10000240 		.word	1073872912
 3134 0354 08540258 		.word	1476547592
 3135              	.L338:
 3136 0358 0123     		movs	r3, #1
 3137 035a 91E7     		b	.L300
 3138              	.L339:
 3139 035c 0123     		movs	r3, #1
 3140 035e 8FE7     		b	.L300
 3141              	.L340:
 3142 0360 0123     		movs	r3, #1
 3143 0362 8DE7     		b	.L300
 3144              	.L341:
 3145 0364 0123     		movs	r3, #1
 3146 0366 8BE7     		b	.L300
 3147              	.L342:
 3148 0368 0123     		movs	r3, #1
 3149 036a 89E7     		b	.L300
 3150              	.L343:
 3151 036c 0123     		movs	r3, #1
 3152 036e 87E7     		b	.L300
 3153              	.L303:
 746:Drivers/STM32H7xx_HAL_Driver/Src/stm32h7xx_hal_dma.c ****   }
 3154              		.loc 1 746 0 discriminator 29
 3155 0370 1A68     		ldr	r2, [r3]
 3156 0372 42F00102 		orr	r2, r2, #1
 3157 0376 1A60     		str	r2, [r3]
 677:Drivers/STM32H7xx_HAL_Driver/Src/stm32h7xx_hal_dma.c **** 
 3158              		.loc 1 677 0 discriminator 29
 3159 0378 0020     		movs	r0, #0
 746:Drivers/STM32H7xx_HAL_Driver/Src/stm32h7xx_hal_dma.c ****   }
 3160              		.loc 1 746 0 discriminator 29
 3161 037a 70BD     		pop	{r4, r5, r6, pc}
 3162              	.LVL136:
 3163              	.L305:
 3164              	.LCFI15:
 3165              		.cfi_def_cfa_offset 0
 3166              		.cfi_restore 4
 3167              		.cfi_restore 5
 3168              		.cfi_restore 6
 3169              		.cfi_restore 14
 685:Drivers/STM32H7xx_HAL_Driver/Src/stm32h7xx_hal_dma.c ****   }
 3170              		.loc 1 685 0
 3171 037c 0120     		movs	r0, #1
 3172              	.LVL137:
 3173 037e 7047     		bx	lr
ARM GAS  C:\Users\CompuTOP\AppData\Local\Temp\cc4hOfP8.s 			page 100


 3174              	.LVL138:
 3175              	.L306:
 3176              	.LCFI16:
 3177              		.cfi_def_cfa_offset 16
 3178              		.cfi_offset 4, -16
 3179              		.cfi_offset 5, -12
 3180              		.cfi_offset 6, -8
 3181              		.cfi_offset 14, -4
 689:Drivers/STM32H7xx_HAL_Driver/Src/stm32h7xx_hal_dma.c **** 
 3182              		.loc 1 689 0
 3183 0380 0220     		movs	r0, #2
 761:Drivers/STM32H7xx_HAL_Driver/Src/stm32h7xx_hal_dma.c **** 
 3184              		.loc 1 761 0
 3185 0382 70BD     		pop	{r4, r5, r6, pc}
 3186              		.cfi_endproc
 3187              	.LFE147:
 3189              		.section	.text.HAL_DMA_Abort,"ax",%progbits
 3190              		.align	1
 3191              		.global	HAL_DMA_Abort
 3192              		.syntax unified
 3193              		.thumb
 3194              		.thumb_func
 3195              		.fpu fpv5-d16
 3197              	HAL_DMA_Abort:
 3198              	.LFB148:
 776:Drivers/STM32H7xx_HAL_Driver/Src/stm32h7xx_hal_dma.c ****   /* calculate DMA base and stream number */
 3199              		.loc 1 776 0
 3200              		.cfi_startproc
 3201              		@ args = 0, pretend = 0, frame = 0
 3202              		@ frame_needed = 0, uses_anonymous_args = 0
 3203              	.LVL139:
 3204 0000 70B5     		push	{r4, r5, r6, lr}
 3205              	.LCFI17:
 3206              		.cfi_def_cfa_offset 16
 3207              		.cfi_offset 4, -16
 3208              		.cfi_offset 5, -12
 3209              		.cfi_offset 6, -8
 3210              		.cfi_offset 14, -4
 3211 0002 0446     		mov	r4, r0
 782:Drivers/STM32H7xx_HAL_Driver/Src/stm32h7xx_hal_dma.c **** 
 3212              		.loc 1 782 0
 3213 0004 FFF7FEFF 		bl	HAL_GetTick
 3214              	.LVL140:
 785:Drivers/STM32H7xx_HAL_Driver/Src/stm32h7xx_hal_dma.c ****   {
 3215              		.loc 1 785 0
 3216 0008 002C     		cmp	r4, #0
 3217 000a 00F05C82 		beq	.L372
 3218 000e 0546     		mov	r5, r0
 791:Drivers/STM32H7xx_HAL_Driver/Src/stm32h7xx_hal_dma.c ****   {
 3219              		.loc 1 791 0
 3220 0010 94F83530 		ldrb	r3, [r4, #53]	@ zero_extendqisi2
 3221 0014 DBB2     		uxtb	r3, r3
 3222 0016 022B     		cmp	r3, #2
 3223 0018 06D0     		beq	.L356
 793:Drivers/STM32H7xx_HAL_Driver/Src/stm32h7xx_hal_dma.c **** 
 3224              		.loc 1 793 0
 3225 001a 8023     		movs	r3, #128
ARM GAS  C:\Users\CompuTOP\AppData\Local\Temp\cc4hOfP8.s 			page 101


 3226 001c 6365     		str	r3, [r4, #84]
 796:Drivers/STM32H7xx_HAL_Driver/Src/stm32h7xx_hal_dma.c **** 
 3227              		.loc 1 796 0
 3228 001e 0023     		movs	r3, #0
 3229 0020 84F83430 		strb	r3, [r4, #52]
 798:Drivers/STM32H7xx_HAL_Driver/Src/stm32h7xx_hal_dma.c ****   }
 3230              		.loc 1 798 0
 3231 0024 0120     		movs	r0, #1
 3232              	.LVL141:
 3233 0026 70BD     		pop	{r4, r5, r6, pc}
 3234              	.LVL142:
 3235              	.L356:
 803:Drivers/STM32H7xx_HAL_Driver/Src/stm32h7xx_hal_dma.c ****     {
 3236              		.loc 1 803 0
 3237 0028 2368     		ldr	r3, [r4]
 3238 002a C74A     		ldr	r2, .L455
 3239 002c C749     		ldr	r1, .L455+4
 3240 002e 9342     		cmp	r3, r2
 3241 0030 18BF     		it	ne
 3242 0032 8B42     		cmpne	r3, r1
 3243 0034 3BD0     		beq	.L373
 803:Drivers/STM32H7xx_HAL_Driver/Src/stm32h7xx_hal_dma.c ****     {
 3244              		.loc 1 803 0 is_stmt 0 discriminator 2
 3245 0036 1832     		adds	r2, r2, #24
 3246 0038 9342     		cmp	r3, r2
 3247 003a 00F0A780 		beq	.L374
 803:Drivers/STM32H7xx_HAL_Driver/Src/stm32h7xx_hal_dma.c ****     {
 3248              		.loc 1 803 0 discriminator 4
 3249 003e 1832     		adds	r2, r2, #24
 3250 0040 9342     		cmp	r3, r2
 3251 0042 00F0A580 		beq	.L375
 803:Drivers/STM32H7xx_HAL_Driver/Src/stm32h7xx_hal_dma.c ****     {
 3252              		.loc 1 803 0 discriminator 6
 3253 0046 1832     		adds	r2, r2, #24
 3254 0048 9342     		cmp	r3, r2
 3255 004a 00F0A380 		beq	.L376
 803:Drivers/STM32H7xx_HAL_Driver/Src/stm32h7xx_hal_dma.c ****     {
 3256              		.loc 1 803 0 discriminator 8
 3257 004e 1832     		adds	r2, r2, #24
 3258 0050 9342     		cmp	r3, r2
 3259 0052 00F0A180 		beq	.L377
 803:Drivers/STM32H7xx_HAL_Driver/Src/stm32h7xx_hal_dma.c ****     {
 3260              		.loc 1 803 0 discriminator 10
 3261 0056 1832     		adds	r2, r2, #24
 3262 0058 9342     		cmp	r3, r2
 3263 005a 00F09F80 		beq	.L378
 803:Drivers/STM32H7xx_HAL_Driver/Src/stm32h7xx_hal_dma.c ****     {
 3264              		.loc 1 803 0 discriminator 12
 3265 005e 1832     		adds	r2, r2, #24
 3266 0060 9342     		cmp	r3, r2
 3267 0062 00F09D80 		beq	.L379
 803:Drivers/STM32H7xx_HAL_Driver/Src/stm32h7xx_hal_dma.c ****     {
 3268              		.loc 1 803 0 discriminator 14
 3269 0066 02F55672 		add	r2, r2, #856
 3270 006a 9342     		cmp	r3, r2
 3271 006c 00F09A80 		beq	.L380
 803:Drivers/STM32H7xx_HAL_Driver/Src/stm32h7xx_hal_dma.c ****     {
ARM GAS  C:\Users\CompuTOP\AppData\Local\Temp\cc4hOfP8.s 			page 102


 3272              		.loc 1 803 0 discriminator 16
 3273 0070 1832     		adds	r2, r2, #24
 3274 0072 9342     		cmp	r3, r2
 3275 0074 00F09880 		beq	.L381
 803:Drivers/STM32H7xx_HAL_Driver/Src/stm32h7xx_hal_dma.c ****     {
 3276              		.loc 1 803 0 discriminator 18
 3277 0078 1832     		adds	r2, r2, #24
 3278 007a 9342     		cmp	r3, r2
 3279 007c 00F09680 		beq	.L382
 803:Drivers/STM32H7xx_HAL_Driver/Src/stm32h7xx_hal_dma.c ****     {
 3280              		.loc 1 803 0 discriminator 20
 3281 0080 1832     		adds	r2, r2, #24
 3282 0082 9342     		cmp	r3, r2
 3283 0084 00F09480 		beq	.L383
 803:Drivers/STM32H7xx_HAL_Driver/Src/stm32h7xx_hal_dma.c ****     {
 3284              		.loc 1 803 0 discriminator 22
 3285 0088 1832     		adds	r2, r2, #24
 3286 008a 9342     		cmp	r3, r2
 3287 008c 00F09280 		beq	.L384
 803:Drivers/STM32H7xx_HAL_Driver/Src/stm32h7xx_hal_dma.c ****     {
 3288              		.loc 1 803 0 discriminator 24
 3289 0090 1832     		adds	r2, r2, #24
 3290 0092 9342     		cmp	r3, r2
 3291 0094 00F09080 		beq	.L385
 803:Drivers/STM32H7xx_HAL_Driver/Src/stm32h7xx_hal_dma.c ****     {
 3292              		.loc 1 803 0 discriminator 26
 3293 0098 1832     		adds	r2, r2, #24
 3294 009a 9342     		cmp	r3, r2
 3295 009c 00F08E80 		beq	.L386
 803:Drivers/STM32H7xx_HAL_Driver/Src/stm32h7xx_hal_dma.c ****     {
 3296              		.loc 1 803 0 discriminator 28
 3297 00a0 1832     		adds	r2, r2, #24
 3298 00a2 9342     		cmp	r3, r2
 3299 00a4 01D0     		beq	.L450
 803:Drivers/STM32H7xx_HAL_Driver/Src/stm32h7xx_hal_dma.c ****     {
 3300              		.loc 1 803 0
 3301 00a6 0022     		movs	r2, #0
 3302 00a8 02E0     		b	.L357
 3303              	.L450:
 3304 00aa 0122     		movs	r2, #1
 3305 00ac 00E0     		b	.L357
 3306              	.L373:
 3307 00ae 0122     		movs	r2, #1
 3308              	.L357:
 803:Drivers/STM32H7xx_HAL_Driver/Src/stm32h7xx_hal_dma.c ****     {
 3309              		.loc 1 803 0 discriminator 32
 3310 00b0 002A     		cmp	r2, #0
 3311 00b2 00F08580 		beq	.L358
 806:Drivers/STM32H7xx_HAL_Driver/Src/stm32h7xx_hal_dma.c ****       ((DMA_Stream_TypeDef   *)hdma->Instance)->FCR &= ~(DMA_IT_FE);
 3312              		.loc 1 806 0 is_stmt 1
 3313 00b6 1A68     		ldr	r2, [r3]
 3314 00b8 22F01E02 		bic	r2, r2, #30
 3315 00bc 1A60     		str	r2, [r3]
 807:Drivers/STM32H7xx_HAL_Driver/Src/stm32h7xx_hal_dma.c **** 
 3316              		.loc 1 807 0
 3317 00be 2268     		ldr	r2, [r4]
 3318 00c0 5369     		ldr	r3, [r2, #20]
ARM GAS  C:\Users\CompuTOP\AppData\Local\Temp\cc4hOfP8.s 			page 103


 3319 00c2 23F08003 		bic	r3, r3, #128
 3320 00c6 5361     		str	r3, [r2, #20]
 809:Drivers/STM32H7xx_HAL_Driver/Src/stm32h7xx_hal_dma.c ****     }
 3321              		.loc 1 809 0
 3322 00c8 2668     		ldr	r6, [r4]
 3323              	.LVL143:
 3324              	.L359:
 819:Drivers/STM32H7xx_HAL_Driver/Src/stm32h7xx_hal_dma.c ****     {
 3325              		.loc 1 819 0
 3326 00ca 2368     		ldr	r3, [r4]
 3327 00cc 9E4A     		ldr	r2, .L455
 3328 00ce 9F49     		ldr	r1, .L455+4
 3329 00d0 9342     		cmp	r3, r2
 3330 00d2 18BF     		it	ne
 3331 00d4 8B42     		cmpne	r3, r1
 3332 00d6 7BD0     		beq	.L388
 819:Drivers/STM32H7xx_HAL_Driver/Src/stm32h7xx_hal_dma.c ****     {
 3333              		.loc 1 819 0 is_stmt 0 discriminator 2
 3334 00d8 1832     		adds	r2, r2, #24
 3335 00da 9342     		cmp	r3, r2
 3336 00dc 00F0B680 		beq	.L389
 819:Drivers/STM32H7xx_HAL_Driver/Src/stm32h7xx_hal_dma.c ****     {
 3337              		.loc 1 819 0 discriminator 4
 3338 00e0 1832     		adds	r2, r2, #24
 3339 00e2 9342     		cmp	r3, r2
 3340 00e4 00F0B480 		beq	.L390
 819:Drivers/STM32H7xx_HAL_Driver/Src/stm32h7xx_hal_dma.c ****     {
 3341              		.loc 1 819 0 discriminator 6
 3342 00e8 1832     		adds	r2, r2, #24
 3343 00ea 9342     		cmp	r3, r2
 3344 00ec 00F0B280 		beq	.L391
 819:Drivers/STM32H7xx_HAL_Driver/Src/stm32h7xx_hal_dma.c ****     {
 3345              		.loc 1 819 0 discriminator 8
 3346 00f0 1832     		adds	r2, r2, #24
 3347 00f2 9342     		cmp	r3, r2
 3348 00f4 00F0B080 		beq	.L392
 819:Drivers/STM32H7xx_HAL_Driver/Src/stm32h7xx_hal_dma.c ****     {
 3349              		.loc 1 819 0 discriminator 10
 3350 00f8 1832     		adds	r2, r2, #24
 3351 00fa 9342     		cmp	r3, r2
 3352 00fc 00F0AE80 		beq	.L393
 819:Drivers/STM32H7xx_HAL_Driver/Src/stm32h7xx_hal_dma.c ****     {
 3353              		.loc 1 819 0 discriminator 12
 3354 0100 1832     		adds	r2, r2, #24
 3355 0102 9342     		cmp	r3, r2
 3356 0104 00F0AC80 		beq	.L394
 819:Drivers/STM32H7xx_HAL_Driver/Src/stm32h7xx_hal_dma.c ****     {
 3357              		.loc 1 819 0 discriminator 14
 3358 0108 02F55672 		add	r2, r2, #856
 3359 010c 9342     		cmp	r3, r2
 3360 010e 00F0A980 		beq	.L395
 819:Drivers/STM32H7xx_HAL_Driver/Src/stm32h7xx_hal_dma.c ****     {
 3361              		.loc 1 819 0 discriminator 16
 3362 0112 1832     		adds	r2, r2, #24
 3363 0114 9342     		cmp	r3, r2
 3364 0116 00F0A780 		beq	.L396
 819:Drivers/STM32H7xx_HAL_Driver/Src/stm32h7xx_hal_dma.c ****     {
ARM GAS  C:\Users\CompuTOP\AppData\Local\Temp\cc4hOfP8.s 			page 104


 3365              		.loc 1 819 0 discriminator 18
 3366 011a 1832     		adds	r2, r2, #24
 3367 011c 9342     		cmp	r3, r2
 3368 011e 00F0A580 		beq	.L397
 819:Drivers/STM32H7xx_HAL_Driver/Src/stm32h7xx_hal_dma.c ****     {
 3369              		.loc 1 819 0 discriminator 20
 3370 0122 1832     		adds	r2, r2, #24
 3371 0124 9342     		cmp	r3, r2
 3372 0126 00F0A380 		beq	.L398
 819:Drivers/STM32H7xx_HAL_Driver/Src/stm32h7xx_hal_dma.c ****     {
 3373              		.loc 1 819 0 discriminator 22
 3374 012a 1832     		adds	r2, r2, #24
 3375 012c 9342     		cmp	r3, r2
 3376 012e 00F0A180 		beq	.L399
 819:Drivers/STM32H7xx_HAL_Driver/Src/stm32h7xx_hal_dma.c ****     {
 3377              		.loc 1 819 0 discriminator 24
 3378 0132 1832     		adds	r2, r2, #24
 3379 0134 9342     		cmp	r3, r2
 3380 0136 00F09F80 		beq	.L400
 819:Drivers/STM32H7xx_HAL_Driver/Src/stm32h7xx_hal_dma.c ****     {
 3381              		.loc 1 819 0 discriminator 26
 3382 013a 1832     		adds	r2, r2, #24
 3383 013c 9342     		cmp	r3, r2
 3384 013e 00F09D80 		beq	.L401
 819:Drivers/STM32H7xx_HAL_Driver/Src/stm32h7xx_hal_dma.c ****     {
 3385              		.loc 1 819 0 discriminator 28
 3386 0142 1832     		adds	r2, r2, #24
 3387 0144 9342     		cmp	r3, r2
 3388 0146 00F09B80 		beq	.L402
 819:Drivers/STM32H7xx_HAL_Driver/Src/stm32h7xx_hal_dma.c ****     {
 3389              		.loc 1 819 0 discriminator 30
 3390 014a 814A     		ldr	r2, .L455+8
 3391 014c 9342     		cmp	r3, r2
 3392 014e 00F09980 		beq	.L403
 819:Drivers/STM32H7xx_HAL_Driver/Src/stm32h7xx_hal_dma.c ****     {
 3393              		.loc 1 819 0 discriminator 32
 3394 0152 1432     		adds	r2, r2, #20
 3395 0154 9342     		cmp	r3, r2
 3396 0156 00F09780 		beq	.L404
 819:Drivers/STM32H7xx_HAL_Driver/Src/stm32h7xx_hal_dma.c ****     {
 3397              		.loc 1 819 0 discriminator 34
 3398 015a 1432     		adds	r2, r2, #20
 3399 015c 9342     		cmp	r3, r2
 3400 015e 00F09580 		beq	.L405
 819:Drivers/STM32H7xx_HAL_Driver/Src/stm32h7xx_hal_dma.c ****     {
 3401              		.loc 1 819 0 discriminator 36
 3402 0162 1432     		adds	r2, r2, #20
 3403 0164 9342     		cmp	r3, r2
 3404 0166 00F09380 		beq	.L406
 819:Drivers/STM32H7xx_HAL_Driver/Src/stm32h7xx_hal_dma.c ****     {
 3405              		.loc 1 819 0 discriminator 38
 3406 016a 1432     		adds	r2, r2, #20
 3407 016c 9342     		cmp	r3, r2
 3408 016e 00F09180 		beq	.L407
 819:Drivers/STM32H7xx_HAL_Driver/Src/stm32h7xx_hal_dma.c ****     {
 3409              		.loc 1 819 0 discriminator 40
 3410 0172 1432     		adds	r2, r2, #20
ARM GAS  C:\Users\CompuTOP\AppData\Local\Temp\cc4hOfP8.s 			page 105


 3411 0174 9342     		cmp	r3, r2
 3412 0176 00F08F80 		beq	.L408
 819:Drivers/STM32H7xx_HAL_Driver/Src/stm32h7xx_hal_dma.c ****     {
 3413              		.loc 1 819 0 discriminator 42
 3414 017a 1432     		adds	r2, r2, #20
 3415 017c 9342     		cmp	r3, r2
 3416 017e 00F08D80 		beq	.L409
 819:Drivers/STM32H7xx_HAL_Driver/Src/stm32h7xx_hal_dma.c ****     {
 3417              		.loc 1 819 0 discriminator 44
 3418 0182 1432     		adds	r2, r2, #20
 3419 0184 9342     		cmp	r3, r2
 3420 0186 21D0     		beq	.L451
 819:Drivers/STM32H7xx_HAL_Driver/Src/stm32h7xx_hal_dma.c ****     {
 3421              		.loc 1 819 0
 3422 0188 0023     		movs	r3, #0
 3423 018a 22E0     		b	.L360
 3424              	.LVL144:
 3425              	.L374:
 803:Drivers/STM32H7xx_HAL_Driver/Src/stm32h7xx_hal_dma.c ****     {
 3426              		.loc 1 803 0 is_stmt 1
 3427 018c 0122     		movs	r2, #1
 3428 018e 8FE7     		b	.L357
 3429              	.L375:
 3430 0190 0122     		movs	r2, #1
 3431 0192 8DE7     		b	.L357
 3432              	.L376:
 3433 0194 0122     		movs	r2, #1
 3434 0196 8BE7     		b	.L357
 3435              	.L377:
 3436 0198 0122     		movs	r2, #1
 3437 019a 89E7     		b	.L357
 3438              	.L378:
 3439 019c 0122     		movs	r2, #1
 3440 019e 87E7     		b	.L357
 3441              	.L379:
 3442 01a0 0122     		movs	r2, #1
 3443 01a2 85E7     		b	.L357
 3444              	.L380:
 3445 01a4 0122     		movs	r2, #1
 3446 01a6 83E7     		b	.L357
 3447              	.L381:
 3448 01a8 0122     		movs	r2, #1
 3449 01aa 81E7     		b	.L357
 3450              	.L382:
 3451 01ac 0122     		movs	r2, #1
 3452 01ae 7FE7     		b	.L357
 3453              	.L383:
 3454 01b0 0122     		movs	r2, #1
 3455 01b2 7DE7     		b	.L357
 3456              	.L384:
 3457 01b4 0122     		movs	r2, #1
 3458 01b6 7BE7     		b	.L357
 3459              	.L385:
 3460 01b8 0122     		movs	r2, #1
 3461 01ba 79E7     		b	.L357
 3462              	.L386:
 3463 01bc 0122     		movs	r2, #1
ARM GAS  C:\Users\CompuTOP\AppData\Local\Temp\cc4hOfP8.s 			page 106


 3464 01be 77E7     		b	.L357
 3465              	.L358:
 814:Drivers/STM32H7xx_HAL_Driver/Src/stm32h7xx_hal_dma.c **** 
 3466              		.loc 1 814 0
 3467 01c0 1A68     		ldr	r2, [r3]
 3468 01c2 22F00E02 		bic	r2, r2, #14
 3469 01c6 1A60     		str	r2, [r3]
 816:Drivers/STM32H7xx_HAL_Driver/Src/stm32h7xx_hal_dma.c ****     }
 3470              		.loc 1 816 0
 3471 01c8 2668     		ldr	r6, [r4]
 3472              	.LVL145:
 3473 01ca 7EE7     		b	.L359
 3474              	.L451:
 819:Drivers/STM32H7xx_HAL_Driver/Src/stm32h7xx_hal_dma.c ****     {
 3475              		.loc 1 819 0
 3476 01cc 0123     		movs	r3, #1
 3477 01ce 00E0     		b	.L360
 3478              	.L388:
 3479 01d0 0123     		movs	r3, #1
 3480              	.L360:
 819:Drivers/STM32H7xx_HAL_Driver/Src/stm32h7xx_hal_dma.c ****     {
 3481              		.loc 1 819 0 is_stmt 0 discriminator 48
 3482 01d2 23B1     		cbz	r3, .L361
 822:Drivers/STM32H7xx_HAL_Driver/Src/stm32h7xx_hal_dma.c ****     }
 3483              		.loc 1 822 0 is_stmt 1
 3484 01d4 226E     		ldr	r2, [r4, #96]
 3485 01d6 1368     		ldr	r3, [r2]
 3486 01d8 23F48073 		bic	r3, r3, #256
 3487 01dc 1360     		str	r3, [r2]
 3488              	.L361:
 826:Drivers/STM32H7xx_HAL_Driver/Src/stm32h7xx_hal_dma.c **** 
 3489              		.loc 1 826 0
 3490 01de 2368     		ldr	r3, [r4]
 3491 01e0 594A     		ldr	r2, .L455
 3492 01e2 5A49     		ldr	r1, .L455+4
 3493 01e4 9342     		cmp	r3, r2
 3494 01e6 18BF     		it	ne
 3495 01e8 8B42     		cmpne	r3, r1
 3496 01ea 59D0     		beq	.L362
 826:Drivers/STM32H7xx_HAL_Driver/Src/stm32h7xx_hal_dma.c **** 
 3497              		.loc 1 826 0 is_stmt 0 discriminator 2
 3498 01ec 1832     		adds	r2, r2, #24
 3499 01ee 9342     		cmp	r3, r2
 3500 01f0 56D0     		beq	.L362
 826:Drivers/STM32H7xx_HAL_Driver/Src/stm32h7xx_hal_dma.c **** 
 3501              		.loc 1 826 0 discriminator 4
 3502 01f2 1832     		adds	r2, r2, #24
 3503 01f4 9342     		cmp	r3, r2
 3504 01f6 53D0     		beq	.L362
 826:Drivers/STM32H7xx_HAL_Driver/Src/stm32h7xx_hal_dma.c **** 
 3505              		.loc 1 826 0 discriminator 6
 3506 01f8 1832     		adds	r2, r2, #24
 3507 01fa 9342     		cmp	r3, r2
 3508 01fc 50D0     		beq	.L362
 826:Drivers/STM32H7xx_HAL_Driver/Src/stm32h7xx_hal_dma.c **** 
 3509              		.loc 1 826 0 discriminator 8
 3510 01fe 1832     		adds	r2, r2, #24
ARM GAS  C:\Users\CompuTOP\AppData\Local\Temp\cc4hOfP8.s 			page 107


 3511 0200 9342     		cmp	r3, r2
 3512 0202 4DD0     		beq	.L362
 826:Drivers/STM32H7xx_HAL_Driver/Src/stm32h7xx_hal_dma.c **** 
 3513              		.loc 1 826 0 discriminator 10
 3514 0204 1832     		adds	r2, r2, #24
 3515 0206 9342     		cmp	r3, r2
 3516 0208 4AD0     		beq	.L362
 826:Drivers/STM32H7xx_HAL_Driver/Src/stm32h7xx_hal_dma.c **** 
 3517              		.loc 1 826 0 discriminator 12
 3518 020a 1832     		adds	r2, r2, #24
 3519 020c 9342     		cmp	r3, r2
 3520 020e 47D0     		beq	.L362
 826:Drivers/STM32H7xx_HAL_Driver/Src/stm32h7xx_hal_dma.c **** 
 3521              		.loc 1 826 0 discriminator 14
 3522 0210 02F55672 		add	r2, r2, #856
 3523 0214 9342     		cmp	r3, r2
 3524 0216 43D0     		beq	.L362
 826:Drivers/STM32H7xx_HAL_Driver/Src/stm32h7xx_hal_dma.c **** 
 3525              		.loc 1 826 0 discriminator 16
 3526 0218 1832     		adds	r2, r2, #24
 3527 021a 9342     		cmp	r3, r2
 3528 021c 40D0     		beq	.L362
 826:Drivers/STM32H7xx_HAL_Driver/Src/stm32h7xx_hal_dma.c **** 
 3529              		.loc 1 826 0 discriminator 18
 3530 021e 1832     		adds	r2, r2, #24
 3531 0220 9342     		cmp	r3, r2
 3532 0222 3DD0     		beq	.L362
 826:Drivers/STM32H7xx_HAL_Driver/Src/stm32h7xx_hal_dma.c **** 
 3533              		.loc 1 826 0 discriminator 20
 3534 0224 1832     		adds	r2, r2, #24
 3535 0226 9342     		cmp	r3, r2
 3536 0228 3AD0     		beq	.L362
 826:Drivers/STM32H7xx_HAL_Driver/Src/stm32h7xx_hal_dma.c **** 
 3537              		.loc 1 826 0 discriminator 22
 3538 022a 1832     		adds	r2, r2, #24
 3539 022c 9342     		cmp	r3, r2
 3540 022e 37D0     		beq	.L362
 826:Drivers/STM32H7xx_HAL_Driver/Src/stm32h7xx_hal_dma.c **** 
 3541              		.loc 1 826 0 discriminator 24
 3542 0230 1832     		adds	r2, r2, #24
 3543 0232 9342     		cmp	r3, r2
 3544 0234 34D0     		beq	.L362
 826:Drivers/STM32H7xx_HAL_Driver/Src/stm32h7xx_hal_dma.c **** 
 3545              		.loc 1 826 0 discriminator 26
 3546 0236 1832     		adds	r2, r2, #24
 3547 0238 9342     		cmp	r3, r2
 3548 023a 31D0     		beq	.L362
 826:Drivers/STM32H7xx_HAL_Driver/Src/stm32h7xx_hal_dma.c **** 
 3549              		.loc 1 826 0 discriminator 28
 3550 023c 1832     		adds	r2, r2, #24
 3551 023e 9342     		cmp	r3, r2
 3552 0240 2ED0     		beq	.L362
 826:Drivers/STM32H7xx_HAL_Driver/Src/stm32h7xx_hal_dma.c **** 
 3553              		.loc 1 826 0 discriminator 30
 3554 0242 1A68     		ldr	r2, [r3]
 3555 0244 22F00102 		bic	r2, r2, #1
 3556 0248 1A60     		str	r2, [r3]
ARM GAS  C:\Users\CompuTOP\AppData\Local\Temp\cc4hOfP8.s 			page 108


 3557 024a 2DE0     		b	.L365
 3558              	.L389:
 819:Drivers/STM32H7xx_HAL_Driver/Src/stm32h7xx_hal_dma.c ****     {
 3559              		.loc 1 819 0 is_stmt 1
 3560 024c 0123     		movs	r3, #1
 3561 024e C0E7     		b	.L360
 3562              	.L390:
 3563 0250 0123     		movs	r3, #1
 3564 0252 BEE7     		b	.L360
 3565              	.L391:
 3566 0254 0123     		movs	r3, #1
 3567 0256 BCE7     		b	.L360
 3568              	.L392:
 3569 0258 0123     		movs	r3, #1
 3570 025a BAE7     		b	.L360
 3571              	.L393:
 3572 025c 0123     		movs	r3, #1
 3573 025e B8E7     		b	.L360
 3574              	.L394:
 3575 0260 0123     		movs	r3, #1
 3576 0262 B6E7     		b	.L360
 3577              	.L395:
 3578 0264 0123     		movs	r3, #1
 3579 0266 B4E7     		b	.L360
 3580              	.L396:
 3581 0268 0123     		movs	r3, #1
 3582 026a B2E7     		b	.L360
 3583              	.L397:
 3584 026c 0123     		movs	r3, #1
 3585 026e B0E7     		b	.L360
 3586              	.L398:
 3587 0270 0123     		movs	r3, #1
 3588 0272 AEE7     		b	.L360
 3589              	.L399:
 3590 0274 0123     		movs	r3, #1
 3591 0276 ACE7     		b	.L360
 3592              	.L400:
 3593 0278 0123     		movs	r3, #1
 3594 027a AAE7     		b	.L360
 3595              	.L401:
 3596 027c 0123     		movs	r3, #1
 3597 027e A8E7     		b	.L360
 3598              	.L402:
 3599 0280 0123     		movs	r3, #1
 3600 0282 A6E7     		b	.L360
 3601              	.L403:
 3602 0284 0123     		movs	r3, #1
 3603 0286 A4E7     		b	.L360
 3604              	.L404:
 3605 0288 0123     		movs	r3, #1
 3606 028a A2E7     		b	.L360
 3607              	.L405:
 3608 028c 0123     		movs	r3, #1
 3609 028e A0E7     		b	.L360
 3610              	.L406:
 3611 0290 0123     		movs	r3, #1
 3612 0292 9EE7     		b	.L360
ARM GAS  C:\Users\CompuTOP\AppData\Local\Temp\cc4hOfP8.s 			page 109


 3613              	.L407:
 3614 0294 0123     		movs	r3, #1
 3615 0296 9CE7     		b	.L360
 3616              	.L408:
 3617 0298 0123     		movs	r3, #1
 3618 029a 9AE7     		b	.L360
 3619              	.L409:
 3620 029c 0123     		movs	r3, #1
 3621 029e 98E7     		b	.L360
 3622              	.L362:
 826:Drivers/STM32H7xx_HAL_Driver/Src/stm32h7xx_hal_dma.c **** 
 3623              		.loc 1 826 0 discriminator 29
 3624 02a0 1A68     		ldr	r2, [r3]
 3625 02a2 22F00102 		bic	r2, r2, #1
 3626 02a6 1A60     		str	r2, [r3]
 3627              	.LVL146:
 3628              	.L365:
 829:Drivers/STM32H7xx_HAL_Driver/Src/stm32h7xx_hal_dma.c ****     {
 3629              		.loc 1 829 0
 3630 02a8 3368     		ldr	r3, [r6]
 3631 02aa 13F0010F 		tst	r3, #1
 3632 02ae 0ED0     		beq	.L452
 832:Drivers/STM32H7xx_HAL_Driver/Src/stm32h7xx_hal_dma.c ****       {
 3633              		.loc 1 832 0
 3634 02b0 FFF7FEFF 		bl	HAL_GetTick
 3635              	.LVL147:
 3636 02b4 401B     		subs	r0, r0, r5
 3637 02b6 0528     		cmp	r0, #5
 3638 02b8 F6D9     		bls	.L365
 835:Drivers/STM32H7xx_HAL_Driver/Src/stm32h7xx_hal_dma.c **** 
 3639              		.loc 1 835 0
 3640 02ba 2023     		movs	r3, #32
 3641 02bc 6365     		str	r3, [r4, #84]
 838:Drivers/STM32H7xx_HAL_Driver/Src/stm32h7xx_hal_dma.c **** 
 3642              		.loc 1 838 0
 3643 02be 0323     		movs	r3, #3
 3644 02c0 84F83530 		strb	r3, [r4, #53]
 841:Drivers/STM32H7xx_HAL_Driver/Src/stm32h7xx_hal_dma.c **** 
 3645              		.loc 1 841 0
 3646 02c4 0023     		movs	r3, #0
 3647 02c6 84F83430 		strb	r3, [r4, #52]
 843:Drivers/STM32H7xx_HAL_Driver/Src/stm32h7xx_hal_dma.c ****       }
 3648              		.loc 1 843 0
 3649 02ca 0120     		movs	r0, #1
 3650 02cc 70BD     		pop	{r4, r5, r6, pc}
 3651              	.LVL148:
 3652              	.L452:
 848:Drivers/STM32H7xx_HAL_Driver/Src/stm32h7xx_hal_dma.c ****     {
 3653              		.loc 1 848 0
 3654 02ce 2368     		ldr	r3, [r4]
 3655 02d0 1D4A     		ldr	r2, .L455
 3656 02d2 1E49     		ldr	r1, .L455+4
 3657 02d4 9342     		cmp	r3, r2
 3658 02d6 18BF     		it	ne
 3659 02d8 8B42     		cmpne	r3, r1
 3660 02da 3BD0     		beq	.L411
 848:Drivers/STM32H7xx_HAL_Driver/Src/stm32h7xx_hal_dma.c ****     {
ARM GAS  C:\Users\CompuTOP\AppData\Local\Temp\cc4hOfP8.s 			page 110


 3661              		.loc 1 848 0 is_stmt 0 discriminator 2
 3662 02dc 1832     		adds	r2, r2, #24
 3663 02de 9342     		cmp	r3, r2
 3664 02e0 00F08E80 		beq	.L412
 848:Drivers/STM32H7xx_HAL_Driver/Src/stm32h7xx_hal_dma.c ****     {
 3665              		.loc 1 848 0 discriminator 4
 3666 02e4 1832     		adds	r2, r2, #24
 3667 02e6 9342     		cmp	r3, r2
 3668 02e8 00F08C80 		beq	.L413
 848:Drivers/STM32H7xx_HAL_Driver/Src/stm32h7xx_hal_dma.c ****     {
 3669              		.loc 1 848 0 discriminator 6
 3670 02ec 1832     		adds	r2, r2, #24
 3671 02ee 9342     		cmp	r3, r2
 3672 02f0 00F08A80 		beq	.L414
 848:Drivers/STM32H7xx_HAL_Driver/Src/stm32h7xx_hal_dma.c ****     {
 3673              		.loc 1 848 0 discriminator 8
 3674 02f4 1832     		adds	r2, r2, #24
 3675 02f6 9342     		cmp	r3, r2
 3676 02f8 00F08880 		beq	.L415
 848:Drivers/STM32H7xx_HAL_Driver/Src/stm32h7xx_hal_dma.c ****     {
 3677              		.loc 1 848 0 discriminator 10
 3678 02fc 1832     		adds	r2, r2, #24
 3679 02fe 9342     		cmp	r3, r2
 3680 0300 00F08680 		beq	.L416
 848:Drivers/STM32H7xx_HAL_Driver/Src/stm32h7xx_hal_dma.c ****     {
 3681              		.loc 1 848 0 discriminator 12
 3682 0304 1832     		adds	r2, r2, #24
 3683 0306 9342     		cmp	r3, r2
 3684 0308 00F08480 		beq	.L417
 848:Drivers/STM32H7xx_HAL_Driver/Src/stm32h7xx_hal_dma.c ****     {
 3685              		.loc 1 848 0 discriminator 14
 3686 030c 02F55672 		add	r2, r2, #856
 3687 0310 9342     		cmp	r3, r2
 3688 0312 00F08180 		beq	.L418
 848:Drivers/STM32H7xx_HAL_Driver/Src/stm32h7xx_hal_dma.c ****     {
 3689              		.loc 1 848 0 discriminator 16
 3690 0316 1832     		adds	r2, r2, #24
 3691 0318 9342     		cmp	r3, r2
 3692 031a 7FD0     		beq	.L419
 848:Drivers/STM32H7xx_HAL_Driver/Src/stm32h7xx_hal_dma.c ****     {
 3693              		.loc 1 848 0 discriminator 18
 3694 031c 1832     		adds	r2, r2, #24
 3695 031e 9342     		cmp	r3, r2
 3696 0320 7ED0     		beq	.L420
 848:Drivers/STM32H7xx_HAL_Driver/Src/stm32h7xx_hal_dma.c ****     {
 3697              		.loc 1 848 0 discriminator 20
 3698 0322 1832     		adds	r2, r2, #24
 3699 0324 9342     		cmp	r3, r2
 3700 0326 7DD0     		beq	.L421
 848:Drivers/STM32H7xx_HAL_Driver/Src/stm32h7xx_hal_dma.c ****     {
 3701              		.loc 1 848 0 discriminator 22
 3702 0328 1832     		adds	r2, r2, #24
 3703 032a 9342     		cmp	r3, r2
 3704 032c 7CD0     		beq	.L422
 848:Drivers/STM32H7xx_HAL_Driver/Src/stm32h7xx_hal_dma.c ****     {
 3705              		.loc 1 848 0 discriminator 24
 3706 032e 1832     		adds	r2, r2, #24
ARM GAS  C:\Users\CompuTOP\AppData\Local\Temp\cc4hOfP8.s 			page 111


 3707 0330 9342     		cmp	r3, r2
 3708 0332 7BD0     		beq	.L423
 848:Drivers/STM32H7xx_HAL_Driver/Src/stm32h7xx_hal_dma.c ****     {
 3709              		.loc 1 848 0 discriminator 26
 3710 0334 1832     		adds	r2, r2, #24
 3711 0336 9342     		cmp	r3, r2
 3712 0338 7AD0     		beq	.L424
 848:Drivers/STM32H7xx_HAL_Driver/Src/stm32h7xx_hal_dma.c ****     {
 3713              		.loc 1 848 0 discriminator 28
 3714 033a 1832     		adds	r2, r2, #24
 3715 033c 9342     		cmp	r3, r2
 3716 033e 01D0     		beq	.L453
 848:Drivers/STM32H7xx_HAL_Driver/Src/stm32h7xx_hal_dma.c ****     {
 3717              		.loc 1 848 0
 3718 0340 0023     		movs	r3, #0
 3719 0342 08E0     		b	.L367
 3720              	.L453:
 3721 0344 0123     		movs	r3, #1
 3722 0346 06E0     		b	.L367
 3723              	.L456:
 3724              		.align	2
 3725              	.L455:
 3726 0348 28000240 		.word	1073872936
 3727 034c 10000240 		.word	1073872912
 3728 0350 08540258 		.word	1476547592
 3729              	.L411:
 3730 0354 0123     		movs	r3, #1
 3731              	.L367:
 848:Drivers/STM32H7xx_HAL_Driver/Src/stm32h7xx_hal_dma.c ****     {
 3732              		.loc 1 848 0 discriminator 32
 3733 0356 002B     		cmp	r3, #0
 3734 0358 6CD0     		beq	.L368
 850:Drivers/STM32H7xx_HAL_Driver/Src/stm32h7xx_hal_dma.c ****       regs_dma->IFCR = 0x3FUL << (hdma->StreamIndex & 0x1FU);
 3735              		.loc 1 850 0 is_stmt 1
 3736 035a A16D     		ldr	r1, [r4, #88]
 3737              	.LVL149:
 851:Drivers/STM32H7xx_HAL_Driver/Src/stm32h7xx_hal_dma.c ****     }
 3738              		.loc 1 851 0
 3739 035c E36D     		ldr	r3, [r4, #92]
 3740 035e 03F01F02 		and	r2, r3, #31
 3741 0362 3F23     		movs	r3, #63
 3742 0364 9340     		lsls	r3, r3, r2
 3743 0366 8B60     		str	r3, [r1, #8]
 3744              	.LVL150:
 3745              	.L369:
 859:Drivers/STM32H7xx_HAL_Driver/Src/stm32h7xx_hal_dma.c ****     {
 3746              		.loc 1 859 0
 3747 0368 2368     		ldr	r3, [r4]
 3748 036a 584A     		ldr	r2, .L457
 3749 036c 5849     		ldr	r1, .L457+4
 3750 036e 9342     		cmp	r3, r2
 3751 0370 18BF     		it	ne
 3752 0372 8B42     		cmpne	r3, r1
 3753 0374 68D0     		beq	.L426
 859:Drivers/STM32H7xx_HAL_Driver/Src/stm32h7xx_hal_dma.c ****     {
 3754              		.loc 1 859 0 is_stmt 0 discriminator 2
 3755 0376 1832     		adds	r2, r2, #24
ARM GAS  C:\Users\CompuTOP\AppData\Local\Temp\cc4hOfP8.s 			page 112


 3756 0378 9342     		cmp	r3, r2
 3757 037a 7AD0     		beq	.L427
 859:Drivers/STM32H7xx_HAL_Driver/Src/stm32h7xx_hal_dma.c ****     {
 3758              		.loc 1 859 0 discriminator 4
 3759 037c 1832     		adds	r2, r2, #24
 3760 037e 9342     		cmp	r3, r2
 3761 0380 79D0     		beq	.L428
 859:Drivers/STM32H7xx_HAL_Driver/Src/stm32h7xx_hal_dma.c ****     {
 3762              		.loc 1 859 0 discriminator 6
 3763 0382 1832     		adds	r2, r2, #24
 3764 0384 9342     		cmp	r3, r2
 3765 0386 78D0     		beq	.L429
 859:Drivers/STM32H7xx_HAL_Driver/Src/stm32h7xx_hal_dma.c ****     {
 3766              		.loc 1 859 0 discriminator 8
 3767 0388 1832     		adds	r2, r2, #24
 3768 038a 9342     		cmp	r3, r2
 3769 038c 77D0     		beq	.L430
 859:Drivers/STM32H7xx_HAL_Driver/Src/stm32h7xx_hal_dma.c ****     {
 3770              		.loc 1 859 0 discriminator 10
 3771 038e 1832     		adds	r2, r2, #24
 3772 0390 9342     		cmp	r3, r2
 3773 0392 76D0     		beq	.L431
 859:Drivers/STM32H7xx_HAL_Driver/Src/stm32h7xx_hal_dma.c ****     {
 3774              		.loc 1 859 0 discriminator 12
 3775 0394 1832     		adds	r2, r2, #24
 3776 0396 9342     		cmp	r3, r2
 3777 0398 75D0     		beq	.L432
 859:Drivers/STM32H7xx_HAL_Driver/Src/stm32h7xx_hal_dma.c ****     {
 3778              		.loc 1 859 0 discriminator 14
 3779 039a 02F55672 		add	r2, r2, #856
 3780 039e 9342     		cmp	r3, r2
 3781 03a0 73D0     		beq	.L433
 859:Drivers/STM32H7xx_HAL_Driver/Src/stm32h7xx_hal_dma.c ****     {
 3782              		.loc 1 859 0 discriminator 16
 3783 03a2 1832     		adds	r2, r2, #24
 3784 03a4 9342     		cmp	r3, r2
 3785 03a6 72D0     		beq	.L434
 859:Drivers/STM32H7xx_HAL_Driver/Src/stm32h7xx_hal_dma.c ****     {
 3786              		.loc 1 859 0 discriminator 18
 3787 03a8 1832     		adds	r2, r2, #24
 3788 03aa 9342     		cmp	r3, r2
 3789 03ac 71D0     		beq	.L435
 859:Drivers/STM32H7xx_HAL_Driver/Src/stm32h7xx_hal_dma.c ****     {
 3790              		.loc 1 859 0 discriminator 20
 3791 03ae 1832     		adds	r2, r2, #24
 3792 03b0 9342     		cmp	r3, r2
 3793 03b2 70D0     		beq	.L436
 859:Drivers/STM32H7xx_HAL_Driver/Src/stm32h7xx_hal_dma.c ****     {
 3794              		.loc 1 859 0 discriminator 22
 3795 03b4 1832     		adds	r2, r2, #24
 3796 03b6 9342     		cmp	r3, r2
 3797 03b8 6FD0     		beq	.L437
 859:Drivers/STM32H7xx_HAL_Driver/Src/stm32h7xx_hal_dma.c ****     {
 3798              		.loc 1 859 0 discriminator 24
 3799 03ba 1832     		adds	r2, r2, #24
 3800 03bc 9342     		cmp	r3, r2
 3801 03be 6ED0     		beq	.L438
ARM GAS  C:\Users\CompuTOP\AppData\Local\Temp\cc4hOfP8.s 			page 113


 859:Drivers/STM32H7xx_HAL_Driver/Src/stm32h7xx_hal_dma.c ****     {
 3802              		.loc 1 859 0 discriminator 26
 3803 03c0 1832     		adds	r2, r2, #24
 3804 03c2 9342     		cmp	r3, r2
 3805 03c4 6DD0     		beq	.L439
 859:Drivers/STM32H7xx_HAL_Driver/Src/stm32h7xx_hal_dma.c ****     {
 3806              		.loc 1 859 0 discriminator 28
 3807 03c6 1832     		adds	r2, r2, #24
 3808 03c8 9342     		cmp	r3, r2
 3809 03ca 6CD0     		beq	.L440
 859:Drivers/STM32H7xx_HAL_Driver/Src/stm32h7xx_hal_dma.c ****     {
 3810              		.loc 1 859 0 discriminator 30
 3811 03cc 414A     		ldr	r2, .L457+8
 3812 03ce 9342     		cmp	r3, r2
 3813 03d0 6BD0     		beq	.L441
 859:Drivers/STM32H7xx_HAL_Driver/Src/stm32h7xx_hal_dma.c ****     {
 3814              		.loc 1 859 0 discriminator 32
 3815 03d2 1432     		adds	r2, r2, #20
 3816 03d4 9342     		cmp	r3, r2
 3817 03d6 6AD0     		beq	.L442
 859:Drivers/STM32H7xx_HAL_Driver/Src/stm32h7xx_hal_dma.c ****     {
 3818              		.loc 1 859 0 discriminator 34
 3819 03d8 1432     		adds	r2, r2, #20
 3820 03da 9342     		cmp	r3, r2
 3821 03dc 69D0     		beq	.L443
 859:Drivers/STM32H7xx_HAL_Driver/Src/stm32h7xx_hal_dma.c ****     {
 3822              		.loc 1 859 0 discriminator 36
 3823 03de 1432     		adds	r2, r2, #20
 3824 03e0 9342     		cmp	r3, r2
 3825 03e2 68D0     		beq	.L444
 859:Drivers/STM32H7xx_HAL_Driver/Src/stm32h7xx_hal_dma.c ****     {
 3826              		.loc 1 859 0 discriminator 38
 3827 03e4 1432     		adds	r2, r2, #20
 3828 03e6 9342     		cmp	r3, r2
 3829 03e8 67D0     		beq	.L445
 859:Drivers/STM32H7xx_HAL_Driver/Src/stm32h7xx_hal_dma.c ****     {
 3830              		.loc 1 859 0 discriminator 40
 3831 03ea 1432     		adds	r2, r2, #20
 3832 03ec 9342     		cmp	r3, r2
 3833 03ee 66D0     		beq	.L446
 859:Drivers/STM32H7xx_HAL_Driver/Src/stm32h7xx_hal_dma.c ****     {
 3834              		.loc 1 859 0 discriminator 42
 3835 03f0 1432     		adds	r2, r2, #20
 3836 03f2 9342     		cmp	r3, r2
 3837 03f4 65D0     		beq	.L447
 859:Drivers/STM32H7xx_HAL_Driver/Src/stm32h7xx_hal_dma.c ****     {
 3838              		.loc 1 859 0 discriminator 44
 3839 03f6 1432     		adds	r2, r2, #20
 3840 03f8 9342     		cmp	r3, r2
 3841 03fa 23D0     		beq	.L454
 859:Drivers/STM32H7xx_HAL_Driver/Src/stm32h7xx_hal_dma.c ****     {
 3842              		.loc 1 859 0
 3843 03fc 0023     		movs	r3, #0
 3844 03fe 24E0     		b	.L370
 3845              	.L412:
 848:Drivers/STM32H7xx_HAL_Driver/Src/stm32h7xx_hal_dma.c ****     {
 3846              		.loc 1 848 0 is_stmt 1
ARM GAS  C:\Users\CompuTOP\AppData\Local\Temp\cc4hOfP8.s 			page 114


 3847 0400 0123     		movs	r3, #1
 3848 0402 A8E7     		b	.L367
 3849              	.L413:
 3850 0404 0123     		movs	r3, #1
 3851 0406 A6E7     		b	.L367
 3852              	.L414:
 3853 0408 0123     		movs	r3, #1
 3854 040a A4E7     		b	.L367
 3855              	.L415:
 3856 040c 0123     		movs	r3, #1
 3857 040e A2E7     		b	.L367
 3858              	.L416:
 3859 0410 0123     		movs	r3, #1
 3860 0412 A0E7     		b	.L367
 3861              	.L417:
 3862 0414 0123     		movs	r3, #1
 3863 0416 9EE7     		b	.L367
 3864              	.L418:
 3865 0418 0123     		movs	r3, #1
 3866 041a 9CE7     		b	.L367
 3867              	.L419:
 3868 041c 0123     		movs	r3, #1
 3869 041e 9AE7     		b	.L367
 3870              	.L420:
 3871 0420 0123     		movs	r3, #1
 3872 0422 98E7     		b	.L367
 3873              	.L421:
 3874 0424 0123     		movs	r3, #1
 3875 0426 96E7     		b	.L367
 3876              	.L422:
 3877 0428 0123     		movs	r3, #1
 3878 042a 94E7     		b	.L367
 3879              	.L423:
 3880 042c 0123     		movs	r3, #1
 3881 042e 92E7     		b	.L367
 3882              	.L424:
 3883 0430 0123     		movs	r3, #1
 3884 0432 90E7     		b	.L367
 3885              	.L368:
 855:Drivers/STM32H7xx_HAL_Driver/Src/stm32h7xx_hal_dma.c ****       regs_bdma->IFCR = ((BDMA_IFCR_CGIF0) << (hdma->StreamIndex & 0x1FU));
 3886              		.loc 1 855 0
 3887 0434 A16D     		ldr	r1, [r4, #88]
 3888              	.LVL151:
 856:Drivers/STM32H7xx_HAL_Driver/Src/stm32h7xx_hal_dma.c ****     }
 3889              		.loc 1 856 0
 3890 0436 E36D     		ldr	r3, [r4, #92]
 3891 0438 03F01F02 		and	r2, r3, #31
 3892 043c 0123     		movs	r3, #1
 3893 043e 9340     		lsls	r3, r3, r2
 3894 0440 4B60     		str	r3, [r1, #4]
 3895 0442 91E7     		b	.L369
 3896              	.LVL152:
 3897              	.L454:
 859:Drivers/STM32H7xx_HAL_Driver/Src/stm32h7xx_hal_dma.c ****     {
 3898              		.loc 1 859 0
 3899 0444 0123     		movs	r3, #1
 3900 0446 00E0     		b	.L370
ARM GAS  C:\Users\CompuTOP\AppData\Local\Temp\cc4hOfP8.s 			page 115


 3901              	.L426:
 3902 0448 0123     		movs	r3, #1
 3903              	.L370:
 859:Drivers/STM32H7xx_HAL_Driver/Src/stm32h7xx_hal_dma.c ****     {
 3904              		.loc 1 859 0 is_stmt 0 discriminator 48
 3905 044a 5BB1     		cbz	r3, .L371
 862:Drivers/STM32H7xx_HAL_Driver/Src/stm32h7xx_hal_dma.c **** 
 3906              		.loc 1 862 0 is_stmt 1
 3907 044c 636E     		ldr	r3, [r4, #100]
 3908 044e A26E     		ldr	r2, [r4, #104]
 3909 0450 5A60     		str	r2, [r3, #4]
 864:Drivers/STM32H7xx_HAL_Driver/Src/stm32h7xx_hal_dma.c ****       {
 3910              		.loc 1 864 0
 3911 0452 E36E     		ldr	r3, [r4, #108]
 3912 0454 33B1     		cbz	r3, .L371
 868:Drivers/STM32H7xx_HAL_Driver/Src/stm32h7xx_hal_dma.c **** 
 3913              		.loc 1 868 0
 3914 0456 1A68     		ldr	r2, [r3]
 3915 0458 22F48072 		bic	r2, r2, #256
 3916 045c 1A60     		str	r2, [r3]
 871:Drivers/STM32H7xx_HAL_Driver/Src/stm32h7xx_hal_dma.c ****       }
 3917              		.loc 1 871 0
 3918 045e 236F     		ldr	r3, [r4, #112]
 3919 0460 626F     		ldr	r2, [r4, #116]
 3920 0462 5A60     		str	r2, [r3, #4]
 3921              	.L371:
 876:Drivers/STM32H7xx_HAL_Driver/Src/stm32h7xx_hal_dma.c **** 
 3922              		.loc 1 876 0
 3923 0464 0123     		movs	r3, #1
 3924 0466 84F83530 		strb	r3, [r4, #53]
 879:Drivers/STM32H7xx_HAL_Driver/Src/stm32h7xx_hal_dma.c ****   }
 3925              		.loc 1 879 0
 3926 046a 0020     		movs	r0, #0
 3927 046c 84F83400 		strb	r0, [r4, #52]
 882:Drivers/STM32H7xx_HAL_Driver/Src/stm32h7xx_hal_dma.c **** }
 3928              		.loc 1 882 0
 3929 0470 70BD     		pop	{r4, r5, r6, pc}
 3930              	.LVL153:
 3931              	.L427:
 859:Drivers/STM32H7xx_HAL_Driver/Src/stm32h7xx_hal_dma.c ****     {
 3932              		.loc 1 859 0
 3933 0472 0123     		movs	r3, #1
 3934 0474 E9E7     		b	.L370
 3935              	.L428:
 3936 0476 0123     		movs	r3, #1
 3937 0478 E7E7     		b	.L370
 3938              	.L429:
 3939 047a 0123     		movs	r3, #1
 3940 047c E5E7     		b	.L370
 3941              	.L430:
 3942 047e 0123     		movs	r3, #1
 3943 0480 E3E7     		b	.L370
 3944              	.L431:
 3945 0482 0123     		movs	r3, #1
 3946 0484 E1E7     		b	.L370
 3947              	.L432:
 3948 0486 0123     		movs	r3, #1
ARM GAS  C:\Users\CompuTOP\AppData\Local\Temp\cc4hOfP8.s 			page 116


 3949 0488 DFE7     		b	.L370
 3950              	.L433:
 3951 048a 0123     		movs	r3, #1
 3952 048c DDE7     		b	.L370
 3953              	.L434:
 3954 048e 0123     		movs	r3, #1
 3955 0490 DBE7     		b	.L370
 3956              	.L435:
 3957 0492 0123     		movs	r3, #1
 3958 0494 D9E7     		b	.L370
 3959              	.L436:
 3960 0496 0123     		movs	r3, #1
 3961 0498 D7E7     		b	.L370
 3962              	.L437:
 3963 049a 0123     		movs	r3, #1
 3964 049c D5E7     		b	.L370
 3965              	.L438:
 3966 049e 0123     		movs	r3, #1
 3967 04a0 D3E7     		b	.L370
 3968              	.L439:
 3969 04a2 0123     		movs	r3, #1
 3970 04a4 D1E7     		b	.L370
 3971              	.L440:
 3972 04a6 0123     		movs	r3, #1
 3973 04a8 CFE7     		b	.L370
 3974              	.L441:
 3975 04aa 0123     		movs	r3, #1
 3976 04ac CDE7     		b	.L370
 3977              	.L442:
 3978 04ae 0123     		movs	r3, #1
 3979 04b0 CBE7     		b	.L370
 3980              	.L443:
 3981 04b2 0123     		movs	r3, #1
 3982 04b4 C9E7     		b	.L370
 3983              	.L444:
 3984 04b6 0123     		movs	r3, #1
 3985 04b8 C7E7     		b	.L370
 3986              	.L445:
 3987 04ba 0123     		movs	r3, #1
 3988 04bc C5E7     		b	.L370
 3989              	.L446:
 3990 04be 0123     		movs	r3, #1
 3991 04c0 C3E7     		b	.L370
 3992              	.L447:
 3993 04c2 0123     		movs	r3, #1
 3994 04c4 C1E7     		b	.L370
 3995              	.LVL154:
 3996              	.L372:
 787:Drivers/STM32H7xx_HAL_Driver/Src/stm32h7xx_hal_dma.c ****   }
 3997              		.loc 1 787 0
 3998 04c6 0120     		movs	r0, #1
 3999              	.LVL155:
 883:Drivers/STM32H7xx_HAL_Driver/Src/stm32h7xx_hal_dma.c **** 
 4000              		.loc 1 883 0
 4001 04c8 70BD     		pop	{r4, r5, r6, pc}
 4002              	.LVL156:
 4003              	.L458:
ARM GAS  C:\Users\CompuTOP\AppData\Local\Temp\cc4hOfP8.s 			page 117


 4004 04ca 00BF     		.align	2
 4005              	.L457:
 4006 04cc 28000240 		.word	1073872936
 4007 04d0 10000240 		.word	1073872912
 4008 04d4 08540258 		.word	1476547592
 4009              		.cfi_endproc
 4010              	.LFE148:
 4012              		.section	.text.HAL_DMA_Abort_IT,"ax",%progbits
 4013              		.align	1
 4014              		.global	HAL_DMA_Abort_IT
 4015              		.syntax unified
 4016              		.thumb
 4017              		.thumb_func
 4018              		.fpu fpv5-d16
 4020              	HAL_DMA_Abort_IT:
 4021              	.LFB149:
 892:Drivers/STM32H7xx_HAL_Driver/Src/stm32h7xx_hal_dma.c ****   BDMA_Base_Registers *regs_bdma;
 4022              		.loc 1 892 0
 4023              		.cfi_startproc
 4024              		@ args = 0, pretend = 0, frame = 0
 4025              		@ frame_needed = 0, uses_anonymous_args = 0
 4026              	.LVL157:
 896:Drivers/STM32H7xx_HAL_Driver/Src/stm32h7xx_hal_dma.c ****   {
 4027              		.loc 1 896 0
 4028 0000 0028     		cmp	r0, #0
 4029 0002 00F08181 		beq	.L471
 4030 0006 0346     		mov	r3, r0
 901:Drivers/STM32H7xx_HAL_Driver/Src/stm32h7xx_hal_dma.c ****   {
 4031              		.loc 1 901 0
 4032 0008 90F83520 		ldrb	r2, [r0, #53]	@ zero_extendqisi2
 4033 000c D2B2     		uxtb	r2, r2
 4034 000e 022A     		cmp	r2, #2
 4035 0010 03D0     		beq	.L461
 903:Drivers/STM32H7xx_HAL_Driver/Src/stm32h7xx_hal_dma.c ****     return HAL_ERROR;
 4036              		.loc 1 903 0
 4037 0012 8022     		movs	r2, #128
 4038 0014 4265     		str	r2, [r0, #84]
 904:Drivers/STM32H7xx_HAL_Driver/Src/stm32h7xx_hal_dma.c ****   }
 4039              		.loc 1 904 0
 4040 0016 0120     		movs	r0, #1
 4041              	.LVL158:
 4042 0018 7047     		bx	lr
 4043              	.LVL159:
 4044              	.L461:
 908:Drivers/STM32H7xx_HAL_Driver/Src/stm32h7xx_hal_dma.c ****     {
 4045              		.loc 1 908 0
 4046 001a 0268     		ldr	r2, [r0]
 4047 001c B048     		ldr	r0, .L514
 4048              	.LVL160:
 4049 001e B149     		ldr	r1, .L514+4
 4050 0020 8A42     		cmp	r2, r1
 4051 0022 18BF     		it	ne
 4052 0024 8242     		cmpne	r2, r0
 4053 0026 0CBF     		ite	eq
 4054 0028 0121     		moveq	r1, #1
 4055 002a 0021     		movne	r1, #0
 4056 002c 2ED0     		beq	.L472
ARM GAS  C:\Users\CompuTOP\AppData\Local\Temp\cc4hOfP8.s 			page 118


 908:Drivers/STM32H7xx_HAL_Driver/Src/stm32h7xx_hal_dma.c ****     {
 4057              		.loc 1 908 0 is_stmt 0 discriminator 2
 4058 002e 3030     		adds	r0, r0, #48
 4059 0030 8242     		cmp	r2, r0
 4060 0032 64D0     		beq	.L473
 908:Drivers/STM32H7xx_HAL_Driver/Src/stm32h7xx_hal_dma.c ****     {
 4061              		.loc 1 908 0 discriminator 4
 4062 0034 1830     		adds	r0, r0, #24
 4063 0036 8242     		cmp	r2, r0
 4064 0038 63D0     		beq	.L474
 908:Drivers/STM32H7xx_HAL_Driver/Src/stm32h7xx_hal_dma.c ****     {
 4065              		.loc 1 908 0 discriminator 6
 4066 003a 1830     		adds	r0, r0, #24
 4067 003c 8242     		cmp	r2, r0
 4068 003e 62D0     		beq	.L475
 908:Drivers/STM32H7xx_HAL_Driver/Src/stm32h7xx_hal_dma.c ****     {
 4069              		.loc 1 908 0 discriminator 8
 4070 0040 1830     		adds	r0, r0, #24
 4071 0042 8242     		cmp	r2, r0
 4072 0044 61D0     		beq	.L476
 908:Drivers/STM32H7xx_HAL_Driver/Src/stm32h7xx_hal_dma.c ****     {
 4073              		.loc 1 908 0 discriminator 10
 4074 0046 1830     		adds	r0, r0, #24
 4075 0048 8242     		cmp	r2, r0
 4076 004a 60D0     		beq	.L477
 908:Drivers/STM32H7xx_HAL_Driver/Src/stm32h7xx_hal_dma.c ****     {
 4077              		.loc 1 908 0 discriminator 12
 4078 004c 1830     		adds	r0, r0, #24
 4079 004e 8242     		cmp	r2, r0
 4080 0050 5FD0     		beq	.L478
 908:Drivers/STM32H7xx_HAL_Driver/Src/stm32h7xx_hal_dma.c ****     {
 4081              		.loc 1 908 0 discriminator 14
 4082 0052 00F55670 		add	r0, r0, #856
 4083 0056 8242     		cmp	r2, r0
 4084 0058 5DD0     		beq	.L479
 908:Drivers/STM32H7xx_HAL_Driver/Src/stm32h7xx_hal_dma.c ****     {
 4085              		.loc 1 908 0 discriminator 16
 4086 005a 1830     		adds	r0, r0, #24
 4087 005c 8242     		cmp	r2, r0
 4088 005e 5CD0     		beq	.L480
 908:Drivers/STM32H7xx_HAL_Driver/Src/stm32h7xx_hal_dma.c ****     {
 4089              		.loc 1 908 0 discriminator 18
 4090 0060 1830     		adds	r0, r0, #24
 4091 0062 8242     		cmp	r2, r0
 4092 0064 5BD0     		beq	.L481
 908:Drivers/STM32H7xx_HAL_Driver/Src/stm32h7xx_hal_dma.c ****     {
 4093              		.loc 1 908 0 discriminator 20
 4094 0066 1830     		adds	r0, r0, #24
 4095 0068 8242     		cmp	r2, r0
 4096 006a 5AD0     		beq	.L482
 908:Drivers/STM32H7xx_HAL_Driver/Src/stm32h7xx_hal_dma.c ****     {
 4097              		.loc 1 908 0 discriminator 22
 4098 006c 1830     		adds	r0, r0, #24
 4099 006e 8242     		cmp	r2, r0
 4100 0070 59D0     		beq	.L483
 908:Drivers/STM32H7xx_HAL_Driver/Src/stm32h7xx_hal_dma.c ****     {
 4101              		.loc 1 908 0 discriminator 24
ARM GAS  C:\Users\CompuTOP\AppData\Local\Temp\cc4hOfP8.s 			page 119


 4102 0072 1830     		adds	r0, r0, #24
 4103 0074 8242     		cmp	r2, r0
 4104 0076 58D0     		beq	.L484
 908:Drivers/STM32H7xx_HAL_Driver/Src/stm32h7xx_hal_dma.c ****     {
 4105              		.loc 1 908 0 discriminator 26
 4106 0078 1830     		adds	r0, r0, #24
 4107 007a 8242     		cmp	r2, r0
 4108 007c 57D0     		beq	.L485
 908:Drivers/STM32H7xx_HAL_Driver/Src/stm32h7xx_hal_dma.c ****     {
 4109              		.loc 1 908 0 discriminator 28
 4110 007e 1830     		adds	r0, r0, #24
 4111 0080 8242     		cmp	r2, r0
 4112 0082 01D0     		beq	.L513
 908:Drivers/STM32H7xx_HAL_Driver/Src/stm32h7xx_hal_dma.c ****     {
 4113              		.loc 1 908 0
 4114 0084 0020     		movs	r0, #0
 4115 0086 02E0     		b	.L462
 4116              	.L513:
 4117 0088 0120     		movs	r0, #1
 4118 008a 00E0     		b	.L462
 4119              	.L472:
 4120 008c 0120     		movs	r0, #1
 4121              	.L462:
 908:Drivers/STM32H7xx_HAL_Driver/Src/stm32h7xx_hal_dma.c ****     {
 4122              		.loc 1 908 0 discriminator 32
 4123 008e 0028     		cmp	r0, #0
 4124 0090 55D0     		beq	.L463
 911:Drivers/STM32H7xx_HAL_Driver/Src/stm32h7xx_hal_dma.c **** 
 4125              		.loc 1 911 0 is_stmt 1
 4126 0092 0420     		movs	r0, #4
 4127 0094 83F83500 		strb	r0, [r3, #53]
 914:Drivers/STM32H7xx_HAL_Driver/Src/stm32h7xx_hal_dma.c ****     }
 4128              		.loc 1 914 0
 4129 0098 0029     		cmp	r1, #0
 4130 009a 4AD1     		bne	.L464
 914:Drivers/STM32H7xx_HAL_Driver/Src/stm32h7xx_hal_dma.c ****     }
 4131              		.loc 1 914 0 is_stmt 0 discriminator 2
 4132 009c 924B     		ldr	r3, .L514+8
 4133              	.LVL161:
 4134 009e 9A42     		cmp	r2, r3
 4135 00a0 47D0     		beq	.L464
 914:Drivers/STM32H7xx_HAL_Driver/Src/stm32h7xx_hal_dma.c ****     }
 4136              		.loc 1 914 0 discriminator 4
 4137 00a2 1833     		adds	r3, r3, #24
 4138 00a4 9A42     		cmp	r2, r3
 4139 00a6 44D0     		beq	.L464
 914:Drivers/STM32H7xx_HAL_Driver/Src/stm32h7xx_hal_dma.c ****     }
 4140              		.loc 1 914 0 discriminator 6
 4141 00a8 1833     		adds	r3, r3, #24
 4142 00aa 9A42     		cmp	r2, r3
 4143 00ac 41D0     		beq	.L464
 914:Drivers/STM32H7xx_HAL_Driver/Src/stm32h7xx_hal_dma.c ****     }
 4144              		.loc 1 914 0 discriminator 8
 4145 00ae 1833     		adds	r3, r3, #24
 4146 00b0 9A42     		cmp	r2, r3
 4147 00b2 3ED0     		beq	.L464
 914:Drivers/STM32H7xx_HAL_Driver/Src/stm32h7xx_hal_dma.c ****     }
ARM GAS  C:\Users\CompuTOP\AppData\Local\Temp\cc4hOfP8.s 			page 120


 4148              		.loc 1 914 0 discriminator 10
 4149 00b4 1833     		adds	r3, r3, #24
 4150 00b6 9A42     		cmp	r2, r3
 4151 00b8 3BD0     		beq	.L464
 914:Drivers/STM32H7xx_HAL_Driver/Src/stm32h7xx_hal_dma.c ****     }
 4152              		.loc 1 914 0 discriminator 12
 4153 00ba 1833     		adds	r3, r3, #24
 4154 00bc 9A42     		cmp	r2, r3
 4155 00be 38D0     		beq	.L464
 914:Drivers/STM32H7xx_HAL_Driver/Src/stm32h7xx_hal_dma.c ****     }
 4156              		.loc 1 914 0 discriminator 14
 4157 00c0 03F55673 		add	r3, r3, #856
 4158 00c4 9A42     		cmp	r2, r3
 4159 00c6 34D0     		beq	.L464
 914:Drivers/STM32H7xx_HAL_Driver/Src/stm32h7xx_hal_dma.c ****     }
 4160              		.loc 1 914 0 discriminator 16
 4161 00c8 1833     		adds	r3, r3, #24
 4162 00ca 9A42     		cmp	r2, r3
 4163 00cc 31D0     		beq	.L464
 914:Drivers/STM32H7xx_HAL_Driver/Src/stm32h7xx_hal_dma.c ****     }
 4164              		.loc 1 914 0 discriminator 18
 4165 00ce 1833     		adds	r3, r3, #24
 4166 00d0 9A42     		cmp	r2, r3
 4167 00d2 2ED0     		beq	.L464
 914:Drivers/STM32H7xx_HAL_Driver/Src/stm32h7xx_hal_dma.c ****     }
 4168              		.loc 1 914 0 discriminator 20
 4169 00d4 1833     		adds	r3, r3, #24
 4170 00d6 9A42     		cmp	r2, r3
 4171 00d8 2BD0     		beq	.L464
 914:Drivers/STM32H7xx_HAL_Driver/Src/stm32h7xx_hal_dma.c ****     }
 4172              		.loc 1 914 0 discriminator 22
 4173 00da 1833     		adds	r3, r3, #24
 4174 00dc 9A42     		cmp	r2, r3
 4175 00de 28D0     		beq	.L464
 914:Drivers/STM32H7xx_HAL_Driver/Src/stm32h7xx_hal_dma.c ****     }
 4176              		.loc 1 914 0 discriminator 24
 4177 00e0 1833     		adds	r3, r3, #24
 4178 00e2 9A42     		cmp	r2, r3
 4179 00e4 25D0     		beq	.L464
 914:Drivers/STM32H7xx_HAL_Driver/Src/stm32h7xx_hal_dma.c ****     }
 4180              		.loc 1 914 0 discriminator 26
 4181 00e6 1833     		adds	r3, r3, #24
 4182 00e8 9A42     		cmp	r2, r3
 4183 00ea 22D0     		beq	.L464
 914:Drivers/STM32H7xx_HAL_Driver/Src/stm32h7xx_hal_dma.c ****     }
 4184              		.loc 1 914 0 discriminator 28
 4185 00ec 1833     		adds	r3, r3, #24
 4186 00ee 9A42     		cmp	r2, r3
 4187 00f0 1FD0     		beq	.L464
 914:Drivers/STM32H7xx_HAL_Driver/Src/stm32h7xx_hal_dma.c ****     }
 4188              		.loc 1 914 0 discriminator 30
 4189 00f2 1368     		ldr	r3, [r2]
 4190 00f4 23F00103 		bic	r3, r3, #1
 4191 00f8 1360     		str	r3, [r2]
 961:Drivers/STM32H7xx_HAL_Driver/Src/stm32h7xx_hal_dma.c **** }
 4192              		.loc 1 961 0 is_stmt 1 discriminator 30
 4193 00fa 0020     		movs	r0, #0
ARM GAS  C:\Users\CompuTOP\AppData\Local\Temp\cc4hOfP8.s 			page 121


 4194 00fc 7047     		bx	lr
 4195              	.LVL162:
 4196              	.L473:
 908:Drivers/STM32H7xx_HAL_Driver/Src/stm32h7xx_hal_dma.c ****     {
 4197              		.loc 1 908 0
 4198 00fe 0120     		movs	r0, #1
 4199 0100 C5E7     		b	.L462
 4200              	.L474:
 4201 0102 0120     		movs	r0, #1
 4202 0104 C3E7     		b	.L462
 4203              	.L475:
 4204 0106 0120     		movs	r0, #1
 4205 0108 C1E7     		b	.L462
 4206              	.L476:
 4207 010a 0120     		movs	r0, #1
 4208 010c BFE7     		b	.L462
 4209              	.L477:
 4210 010e 0120     		movs	r0, #1
 4211 0110 BDE7     		b	.L462
 4212              	.L478:
 4213 0112 0120     		movs	r0, #1
 4214 0114 BBE7     		b	.L462
 4215              	.L479:
 4216 0116 0120     		movs	r0, #1
 4217 0118 B9E7     		b	.L462
 4218              	.L480:
 4219 011a 0120     		movs	r0, #1
 4220 011c B7E7     		b	.L462
 4221              	.L481:
 4222 011e 0120     		movs	r0, #1
 4223 0120 B5E7     		b	.L462
 4224              	.L482:
 4225 0122 0120     		movs	r0, #1
 4226 0124 B3E7     		b	.L462
 4227              	.L483:
 4228 0126 0120     		movs	r0, #1
 4229 0128 B1E7     		b	.L462
 4230              	.L484:
 4231 012a 0120     		movs	r0, #1
 4232 012c AFE7     		b	.L462
 4233              	.L485:
 4234 012e 0120     		movs	r0, #1
 4235 0130 ADE7     		b	.L462
 4236              	.LVL163:
 4237              	.L464:
 914:Drivers/STM32H7xx_HAL_Driver/Src/stm32h7xx_hal_dma.c ****     }
 4238              		.loc 1 914 0 discriminator 29
 4239 0132 1368     		ldr	r3, [r2]
 4240 0134 23F00103 		bic	r3, r3, #1
 4241 0138 1360     		str	r3, [r2]
 961:Drivers/STM32H7xx_HAL_Driver/Src/stm32h7xx_hal_dma.c **** }
 4242              		.loc 1 961 0 discriminator 29
 4243 013a 0020     		movs	r0, #0
 914:Drivers/STM32H7xx_HAL_Driver/Src/stm32h7xx_hal_dma.c ****     }
 4244              		.loc 1 914 0 discriminator 29
 4245 013c 7047     		bx	lr
 4246              	.LVL164:
ARM GAS  C:\Users\CompuTOP\AppData\Local\Temp\cc4hOfP8.s 			page 122


 4247              	.L463:
 892:Drivers/STM32H7xx_HAL_Driver/Src/stm32h7xx_hal_dma.c ****   BDMA_Base_Registers *regs_bdma;
 4248              		.loc 1 892 0
 4249 013e 10B5     		push	{r4, lr}
 4250              	.LCFI18:
 4251              		.cfi_def_cfa_offset 8
 4252              		.cfi_offset 4, -8
 4253              		.cfi_offset 14, -4
 919:Drivers/STM32H7xx_HAL_Driver/Src/stm32h7xx_hal_dma.c **** 
 4254              		.loc 1 919 0
 4255 0140 1168     		ldr	r1, [r2]
 4256 0142 21F00E01 		bic	r1, r1, #14
 4257 0146 1160     		str	r1, [r2]
 922:Drivers/STM32H7xx_HAL_Driver/Src/stm32h7xx_hal_dma.c **** 
 4258              		.loc 1 922 0
 4259 0148 1A68     		ldr	r2, [r3]
 4260 014a 6649     		ldr	r1, .L514+4
 4261 014c 644C     		ldr	r4, .L514
 4262 014e 8A42     		cmp	r2, r1
 4263 0150 18BF     		it	ne
 4264 0152 A242     		cmpne	r2, r4
 4265 0154 2FD0     		beq	.L466
 922:Drivers/STM32H7xx_HAL_Driver/Src/stm32h7xx_hal_dma.c **** 
 4266              		.loc 1 922 0 is_stmt 0 discriminator 2
 4267 0156 1831     		adds	r1, r1, #24
 4268 0158 8A42     		cmp	r2, r1
 4269 015a 2CD0     		beq	.L466
 922:Drivers/STM32H7xx_HAL_Driver/Src/stm32h7xx_hal_dma.c **** 
 4270              		.loc 1 922 0 discriminator 4
 4271 015c 1831     		adds	r1, r1, #24
 4272 015e 8A42     		cmp	r2, r1
 4273 0160 29D0     		beq	.L466
 922:Drivers/STM32H7xx_HAL_Driver/Src/stm32h7xx_hal_dma.c **** 
 4274              		.loc 1 922 0 discriminator 6
 4275 0162 1831     		adds	r1, r1, #24
 4276 0164 8A42     		cmp	r2, r1
 4277 0166 26D0     		beq	.L466
 922:Drivers/STM32H7xx_HAL_Driver/Src/stm32h7xx_hal_dma.c **** 
 4278              		.loc 1 922 0 discriminator 8
 4279 0168 1831     		adds	r1, r1, #24
 4280 016a 8A42     		cmp	r2, r1
 4281 016c 23D0     		beq	.L466
 922:Drivers/STM32H7xx_HAL_Driver/Src/stm32h7xx_hal_dma.c **** 
 4282              		.loc 1 922 0 discriminator 10
 4283 016e 1831     		adds	r1, r1, #24
 4284 0170 8A42     		cmp	r2, r1
 4285 0172 20D0     		beq	.L466
 922:Drivers/STM32H7xx_HAL_Driver/Src/stm32h7xx_hal_dma.c **** 
 4286              		.loc 1 922 0 discriminator 12
 4287 0174 1831     		adds	r1, r1, #24
 4288 0176 8A42     		cmp	r2, r1
 4289 0178 1DD0     		beq	.L466
 922:Drivers/STM32H7xx_HAL_Driver/Src/stm32h7xx_hal_dma.c **** 
 4290              		.loc 1 922 0 discriminator 14
 4291 017a 01F55671 		add	r1, r1, #856
 4292 017e 8A42     		cmp	r2, r1
 4293 0180 19D0     		beq	.L466
ARM GAS  C:\Users\CompuTOP\AppData\Local\Temp\cc4hOfP8.s 			page 123


 922:Drivers/STM32H7xx_HAL_Driver/Src/stm32h7xx_hal_dma.c **** 
 4294              		.loc 1 922 0 discriminator 16
 4295 0182 1831     		adds	r1, r1, #24
 4296 0184 8A42     		cmp	r2, r1
 4297 0186 16D0     		beq	.L466
 922:Drivers/STM32H7xx_HAL_Driver/Src/stm32h7xx_hal_dma.c **** 
 4298              		.loc 1 922 0 discriminator 18
 4299 0188 1831     		adds	r1, r1, #24
 4300 018a 8A42     		cmp	r2, r1
 4301 018c 13D0     		beq	.L466
 922:Drivers/STM32H7xx_HAL_Driver/Src/stm32h7xx_hal_dma.c **** 
 4302              		.loc 1 922 0 discriminator 20
 4303 018e 1831     		adds	r1, r1, #24
 4304 0190 8A42     		cmp	r2, r1
 4305 0192 10D0     		beq	.L466
 922:Drivers/STM32H7xx_HAL_Driver/Src/stm32h7xx_hal_dma.c **** 
 4306              		.loc 1 922 0 discriminator 22
 4307 0194 1831     		adds	r1, r1, #24
 4308 0196 8A42     		cmp	r2, r1
 4309 0198 0DD0     		beq	.L466
 922:Drivers/STM32H7xx_HAL_Driver/Src/stm32h7xx_hal_dma.c **** 
 4310              		.loc 1 922 0 discriminator 24
 4311 019a 1831     		adds	r1, r1, #24
 4312 019c 8A42     		cmp	r2, r1
 4313 019e 0AD0     		beq	.L466
 922:Drivers/STM32H7xx_HAL_Driver/Src/stm32h7xx_hal_dma.c **** 
 4314              		.loc 1 922 0 discriminator 26
 4315 01a0 1831     		adds	r1, r1, #24
 4316 01a2 8A42     		cmp	r2, r1
 4317 01a4 07D0     		beq	.L466
 922:Drivers/STM32H7xx_HAL_Driver/Src/stm32h7xx_hal_dma.c **** 
 4318              		.loc 1 922 0 discriminator 28
 4319 01a6 1831     		adds	r1, r1, #24
 4320 01a8 8A42     		cmp	r2, r1
 4321 01aa 04D0     		beq	.L466
 922:Drivers/STM32H7xx_HAL_Driver/Src/stm32h7xx_hal_dma.c **** 
 4322              		.loc 1 922 0 discriminator 30
 4323 01ac 1168     		ldr	r1, [r2]
 4324 01ae 21F00101 		bic	r1, r1, #1
 4325 01b2 1160     		str	r1, [r2]
 4326 01b4 03E0     		b	.L468
 4327              	.L466:
 922:Drivers/STM32H7xx_HAL_Driver/Src/stm32h7xx_hal_dma.c **** 
 4328              		.loc 1 922 0 discriminator 29
 4329 01b6 1168     		ldr	r1, [r2]
 4330 01b8 21F00101 		bic	r1, r1, #1
 4331 01bc 1160     		str	r1, [r2]
 4332              	.L468:
 924:Drivers/STM32H7xx_HAL_Driver/Src/stm32h7xx_hal_dma.c ****       {
 4333              		.loc 1 924 0 is_stmt 1
 4334 01be 1A68     		ldr	r2, [r3]
 4335 01c0 4849     		ldr	r1, .L514+4
 4336 01c2 474C     		ldr	r4, .L514
 4337 01c4 8A42     		cmp	r2, r1
 4338 01c6 18BF     		it	ne
 4339 01c8 A242     		cmpne	r2, r4
 4340 01ca 44D0     		beq	.L487
ARM GAS  C:\Users\CompuTOP\AppData\Local\Temp\cc4hOfP8.s 			page 124


 924:Drivers/STM32H7xx_HAL_Driver/Src/stm32h7xx_hal_dma.c ****       {
 4341              		.loc 1 924 0 is_stmt 0 discriminator 2
 4342 01cc 1831     		adds	r1, r1, #24
 4343 01ce 8A42     		cmp	r2, r1
 4344 01d0 67D0     		beq	.L488
 924:Drivers/STM32H7xx_HAL_Driver/Src/stm32h7xx_hal_dma.c ****       {
 4345              		.loc 1 924 0 discriminator 4
 4346 01d2 1831     		adds	r1, r1, #24
 4347 01d4 8A42     		cmp	r2, r1
 4348 01d6 66D0     		beq	.L489
 924:Drivers/STM32H7xx_HAL_Driver/Src/stm32h7xx_hal_dma.c ****       {
 4349              		.loc 1 924 0 discriminator 6
 4350 01d8 1831     		adds	r1, r1, #24
 4351 01da 8A42     		cmp	r2, r1
 4352 01dc 65D0     		beq	.L490
 924:Drivers/STM32H7xx_HAL_Driver/Src/stm32h7xx_hal_dma.c ****       {
 4353              		.loc 1 924 0 discriminator 8
 4354 01de 1831     		adds	r1, r1, #24
 4355 01e0 8A42     		cmp	r2, r1
 4356 01e2 64D0     		beq	.L491
 924:Drivers/STM32H7xx_HAL_Driver/Src/stm32h7xx_hal_dma.c ****       {
 4357              		.loc 1 924 0 discriminator 10
 4358 01e4 1831     		adds	r1, r1, #24
 4359 01e6 8A42     		cmp	r2, r1
 4360 01e8 63D0     		beq	.L492
 924:Drivers/STM32H7xx_HAL_Driver/Src/stm32h7xx_hal_dma.c ****       {
 4361              		.loc 1 924 0 discriminator 12
 4362 01ea 1831     		adds	r1, r1, #24
 4363 01ec 8A42     		cmp	r2, r1
 4364 01ee 62D0     		beq	.L493
 924:Drivers/STM32H7xx_HAL_Driver/Src/stm32h7xx_hal_dma.c ****       {
 4365              		.loc 1 924 0 discriminator 14
 4366 01f0 01F55671 		add	r1, r1, #856
 4367 01f4 8A42     		cmp	r2, r1
 4368 01f6 60D0     		beq	.L494
 924:Drivers/STM32H7xx_HAL_Driver/Src/stm32h7xx_hal_dma.c ****       {
 4369              		.loc 1 924 0 discriminator 16
 4370 01f8 1831     		adds	r1, r1, #24
 4371 01fa 8A42     		cmp	r2, r1
 4372 01fc 5FD0     		beq	.L495
 924:Drivers/STM32H7xx_HAL_Driver/Src/stm32h7xx_hal_dma.c ****       {
 4373              		.loc 1 924 0 discriminator 18
 4374 01fe 1831     		adds	r1, r1, #24
 4375 0200 8A42     		cmp	r2, r1
 4376 0202 5ED0     		beq	.L496
 924:Drivers/STM32H7xx_HAL_Driver/Src/stm32h7xx_hal_dma.c ****       {
 4377              		.loc 1 924 0 discriminator 20
 4378 0204 1831     		adds	r1, r1, #24
 4379 0206 8A42     		cmp	r2, r1
 4380 0208 5DD0     		beq	.L497
 924:Drivers/STM32H7xx_HAL_Driver/Src/stm32h7xx_hal_dma.c ****       {
 4381              		.loc 1 924 0 discriminator 22
 4382 020a 1831     		adds	r1, r1, #24
 4383 020c 8A42     		cmp	r2, r1
 4384 020e 5CD0     		beq	.L498
 924:Drivers/STM32H7xx_HAL_Driver/Src/stm32h7xx_hal_dma.c ****       {
 4385              		.loc 1 924 0 discriminator 24
ARM GAS  C:\Users\CompuTOP\AppData\Local\Temp\cc4hOfP8.s 			page 125


 4386 0210 1831     		adds	r1, r1, #24
 4387 0212 8A42     		cmp	r2, r1
 4388 0214 5BD0     		beq	.L499
 924:Drivers/STM32H7xx_HAL_Driver/Src/stm32h7xx_hal_dma.c ****       {
 4389              		.loc 1 924 0 discriminator 26
 4390 0216 1831     		adds	r1, r1, #24
 4391 0218 8A42     		cmp	r2, r1
 4392 021a 5AD0     		beq	.L500
 924:Drivers/STM32H7xx_HAL_Driver/Src/stm32h7xx_hal_dma.c ****       {
 4393              		.loc 1 924 0 discriminator 28
 4394 021c 1831     		adds	r1, r1, #24
 4395 021e 8A42     		cmp	r2, r1
 4396 0220 59D0     		beq	.L501
 924:Drivers/STM32H7xx_HAL_Driver/Src/stm32h7xx_hal_dma.c ****       {
 4397              		.loc 1 924 0 discriminator 30
 4398 0222 3249     		ldr	r1, .L514+12
 4399 0224 8A42     		cmp	r2, r1
 4400 0226 58D0     		beq	.L502
 924:Drivers/STM32H7xx_HAL_Driver/Src/stm32h7xx_hal_dma.c ****       {
 4401              		.loc 1 924 0 discriminator 32
 4402 0228 1431     		adds	r1, r1, #20
 4403 022a 8A42     		cmp	r2, r1
 4404 022c 60D0     		beq	.L503
 924:Drivers/STM32H7xx_HAL_Driver/Src/stm32h7xx_hal_dma.c ****       {
 4405              		.loc 1 924 0 discriminator 34
 4406 022e 1431     		adds	r1, r1, #20
 4407 0230 8A42     		cmp	r2, r1
 4408 0232 5FD0     		beq	.L504
 924:Drivers/STM32H7xx_HAL_Driver/Src/stm32h7xx_hal_dma.c ****       {
 4409              		.loc 1 924 0 discriminator 36
 4410 0234 1431     		adds	r1, r1, #20
 4411 0236 8A42     		cmp	r2, r1
 4412 0238 5ED0     		beq	.L505
 924:Drivers/STM32H7xx_HAL_Driver/Src/stm32h7xx_hal_dma.c ****       {
 4413              		.loc 1 924 0 discriminator 38
 4414 023a 1431     		adds	r1, r1, #20
 4415 023c 8A42     		cmp	r2, r1
 4416 023e 5DD0     		beq	.L506
 924:Drivers/STM32H7xx_HAL_Driver/Src/stm32h7xx_hal_dma.c ****       {
 4417              		.loc 1 924 0 discriminator 40
 4418 0240 1431     		adds	r1, r1, #20
 4419 0242 8A42     		cmp	r2, r1
 4420 0244 5CD0     		beq	.L507
 924:Drivers/STM32H7xx_HAL_Driver/Src/stm32h7xx_hal_dma.c ****       {
 4421              		.loc 1 924 0 discriminator 42
 4422 0246 1431     		adds	r1, r1, #20
 4423 0248 8A42     		cmp	r2, r1
 4424 024a 5BD0     		beq	.L508
 924:Drivers/STM32H7xx_HAL_Driver/Src/stm32h7xx_hal_dma.c ****       {
 4425              		.loc 1 924 0 discriminator 44
 4426 024c 1431     		adds	r1, r1, #20
 4427 024e 8A42     		cmp	r2, r1
 4428 0250 02D1     		bne	.L469
 924:Drivers/STM32H7xx_HAL_Driver/Src/stm32h7xx_hal_dma.c ****       {
 4429              		.loc 1 924 0
 4430 0252 0120     		movs	r0, #1
 4431 0254 00E0     		b	.L469
ARM GAS  C:\Users\CompuTOP\AppData\Local\Temp\cc4hOfP8.s 			page 126


 4432              	.L487:
 4433 0256 0120     		movs	r0, #1
 4434              	.L469:
 924:Drivers/STM32H7xx_HAL_Driver/Src/stm32h7xx_hal_dma.c ****       {
 4435              		.loc 1 924 0 discriminator 48
 4436 0258 B8B1     		cbz	r0, .L470
 927:Drivers/STM32H7xx_HAL_Driver/Src/stm32h7xx_hal_dma.c **** 
 4437              		.loc 1 927 0 is_stmt 1
 4438 025a 196E     		ldr	r1, [r3, #96]
 4439 025c 0A68     		ldr	r2, [r1]
 4440 025e 22F48072 		bic	r2, r2, #256
 4441 0262 0A60     		str	r2, [r1]
 930:Drivers/STM32H7xx_HAL_Driver/Src/stm32h7xx_hal_dma.c ****         regs_bdma->IFCR = ((BDMA_IFCR_CGIF0) << (hdma->StreamIndex & 0x1FU));
 4442              		.loc 1 930 0
 4443 0264 986D     		ldr	r0, [r3, #88]
 4444              	.LVL165:
 931:Drivers/STM32H7xx_HAL_Driver/Src/stm32h7xx_hal_dma.c **** 
 4445              		.loc 1 931 0
 4446 0266 DA6D     		ldr	r2, [r3, #92]
 4447 0268 02F01F01 		and	r1, r2, #31
 4448 026c 0122     		movs	r2, #1
 4449 026e 8A40     		lsls	r2, r2, r1
 4450 0270 4260     		str	r2, [r0, #4]
 934:Drivers/STM32H7xx_HAL_Driver/Src/stm32h7xx_hal_dma.c **** 
 4451              		.loc 1 934 0
 4452 0272 5A6E     		ldr	r2, [r3, #100]
 4453 0274 996E     		ldr	r1, [r3, #104]
 4454 0276 5160     		str	r1, [r2, #4]
 936:Drivers/STM32H7xx_HAL_Driver/Src/stm32h7xx_hal_dma.c ****         {
 4455              		.loc 1 936 0
 4456 0278 DA6E     		ldr	r2, [r3, #108]
 4457 027a 32B1     		cbz	r2, .L470
 940:Drivers/STM32H7xx_HAL_Driver/Src/stm32h7xx_hal_dma.c **** 
 4458              		.loc 1 940 0
 4459 027c 1168     		ldr	r1, [r2]
 4460 027e 21F48071 		bic	r1, r1, #256
 4461 0282 1160     		str	r1, [r2]
 943:Drivers/STM32H7xx_HAL_Driver/Src/stm32h7xx_hal_dma.c ****         }
 4462              		.loc 1 943 0
 4463 0284 1A6F     		ldr	r2, [r3, #112]
 4464 0286 596F     		ldr	r1, [r3, #116]
 4465 0288 5160     		str	r1, [r2, #4]
 4466              	.LVL166:
 4467              	.L470:
 948:Drivers/STM32H7xx_HAL_Driver/Src/stm32h7xx_hal_dma.c **** 
 4468              		.loc 1 948 0
 4469 028a 0122     		movs	r2, #1
 4470 028c 83F83520 		strb	r2, [r3, #53]
 951:Drivers/STM32H7xx_HAL_Driver/Src/stm32h7xx_hal_dma.c **** 
 4471              		.loc 1 951 0
 4472 0290 0022     		movs	r2, #0
 4473 0292 83F83420 		strb	r2, [r3, #52]
 954:Drivers/STM32H7xx_HAL_Driver/Src/stm32h7xx_hal_dma.c ****       {
 4474              		.loc 1 954 0
 4475 0296 1A6D     		ldr	r2, [r3, #80]
 4476 0298 C2B3     		cbz	r2, .L509
 4477 029a 1846     		mov	r0, r3
ARM GAS  C:\Users\CompuTOP\AppData\Local\Temp\cc4hOfP8.s 			page 127


 956:Drivers/STM32H7xx_HAL_Driver/Src/stm32h7xx_hal_dma.c ****       }
 4478              		.loc 1 956 0
 4479 029c 9047     		blx	r2
 4480              	.LVL167:
 961:Drivers/STM32H7xx_HAL_Driver/Src/stm32h7xx_hal_dma.c **** }
 4481              		.loc 1 961 0
 4482 029e 0020     		movs	r0, #0
 4483 02a0 10BD     		pop	{r4, pc}
 4484              	.LVL168:
 4485              	.L488:
 924:Drivers/STM32H7xx_HAL_Driver/Src/stm32h7xx_hal_dma.c ****       {
 4486              		.loc 1 924 0
 4487 02a2 0120     		movs	r0, #1
 4488 02a4 D8E7     		b	.L469
 4489              	.L489:
 4490 02a6 0120     		movs	r0, #1
 4491 02a8 D6E7     		b	.L469
 4492              	.L490:
 4493 02aa 0120     		movs	r0, #1
 4494 02ac D4E7     		b	.L469
 4495              	.L491:
 4496 02ae 0120     		movs	r0, #1
 4497 02b0 D2E7     		b	.L469
 4498              	.L492:
 4499 02b2 0120     		movs	r0, #1
 4500 02b4 D0E7     		b	.L469
 4501              	.L493:
 4502 02b6 0120     		movs	r0, #1
 4503 02b8 CEE7     		b	.L469
 4504              	.L494:
 4505 02ba 0120     		movs	r0, #1
 4506 02bc CCE7     		b	.L469
 4507              	.L495:
 4508 02be 0120     		movs	r0, #1
 4509 02c0 CAE7     		b	.L469
 4510              	.L496:
 4511 02c2 0120     		movs	r0, #1
 4512 02c4 C8E7     		b	.L469
 4513              	.L497:
 4514 02c6 0120     		movs	r0, #1
 4515 02c8 C6E7     		b	.L469
 4516              	.L498:
 4517 02ca 0120     		movs	r0, #1
 4518 02cc C4E7     		b	.L469
 4519              	.L499:
 4520 02ce 0120     		movs	r0, #1
 4521 02d0 C2E7     		b	.L469
 4522              	.L500:
 4523 02d2 0120     		movs	r0, #1
 4524 02d4 C0E7     		b	.L469
 4525              	.L501:
 4526 02d6 0120     		movs	r0, #1
 4527 02d8 BEE7     		b	.L469
 4528              	.L502:
 4529 02da 0120     		movs	r0, #1
 4530 02dc BCE7     		b	.L469
 4531              	.L515:
ARM GAS  C:\Users\CompuTOP\AppData\Local\Temp\cc4hOfP8.s 			page 128


 4532 02de 00BF     		.align	2
 4533              	.L514:
 4534 02e0 10000240 		.word	1073872912
 4535 02e4 28000240 		.word	1073872936
 4536 02e8 40000240 		.word	1073872960
 4537 02ec 08540258 		.word	1476547592
 4538              	.L503:
 4539 02f0 0120     		movs	r0, #1
 4540 02f2 B1E7     		b	.L469
 4541              	.L504:
 4542 02f4 0120     		movs	r0, #1
 4543 02f6 AFE7     		b	.L469
 4544              	.L505:
 4545 02f8 0120     		movs	r0, #1
 4546 02fa ADE7     		b	.L469
 4547              	.L506:
 4548 02fc 0120     		movs	r0, #1
 4549 02fe ABE7     		b	.L469
 4550              	.L507:
 4551 0300 0120     		movs	r0, #1
 4552 0302 A9E7     		b	.L469
 4553              	.L508:
 4554 0304 0120     		movs	r0, #1
 4555 0306 A7E7     		b	.L469
 4556              	.LVL169:
 4557              	.L471:
 4558              	.LCFI19:
 4559              		.cfi_def_cfa_offset 0
 4560              		.cfi_restore 4
 4561              		.cfi_restore 14
 898:Drivers/STM32H7xx_HAL_Driver/Src/stm32h7xx_hal_dma.c ****   }
 4562              		.loc 1 898 0
 4563 0308 0120     		movs	r0, #1
 4564              	.LVL170:
 4565 030a 7047     		bx	lr
 4566              	.LVL171:
 4567              	.L509:
 4568              	.LCFI20:
 4569              		.cfi_def_cfa_offset 8
 4570              		.cfi_offset 4, -8
 4571              		.cfi_offset 14, -4
 961:Drivers/STM32H7xx_HAL_Driver/Src/stm32h7xx_hal_dma.c **** }
 4572              		.loc 1 961 0
 4573 030c 0020     		movs	r0, #0
 962:Drivers/STM32H7xx_HAL_Driver/Src/stm32h7xx_hal_dma.c **** 
 4574              		.loc 1 962 0
 4575 030e 10BD     		pop	{r4, pc}
 4576              		.cfi_endproc
 4577              	.LFE149:
 4579              		.section	.text.HAL_DMA_PollForTransfer,"ax",%progbits
 4580              		.align	1
 4581              		.global	HAL_DMA_PollForTransfer
 4582              		.syntax unified
 4583              		.thumb
 4584              		.thumb_func
 4585              		.fpu fpv5-d16
 4587              	HAL_DMA_PollForTransfer:
ARM GAS  C:\Users\CompuTOP\AppData\Local\Temp\cc4hOfP8.s 			page 129


 4588              	.LFB150:
 976:Drivers/STM32H7xx_HAL_Driver/Src/stm32h7xx_hal_dma.c ****   HAL_StatusTypeDef status = HAL_OK;
 4589              		.loc 1 976 0
 4590              		.cfi_startproc
 4591              		@ args = 0, pretend = 0, frame = 0
 4592              		@ frame_needed = 0, uses_anonymous_args = 0
 4593              	.LVL172:
 4594 0000 2DE9F047 		push	{r4, r5, r6, r7, r8, r9, r10, lr}
 4595              	.LCFI21:
 4596              		.cfi_def_cfa_offset 32
 4597              		.cfi_offset 4, -32
 4598              		.cfi_offset 5, -28
 4599              		.cfi_offset 6, -24
 4600              		.cfi_offset 7, -20
 4601              		.cfi_offset 8, -16
 4602              		.cfi_offset 9, -12
 4603              		.cfi_offset 10, -8
 4604              		.cfi_offset 14, -4
 4605 0004 0446     		mov	r4, r0
 4606 0006 8A46     		mov	r10, r1
 4607 0008 1646     		mov	r6, r2
 4608              	.LVL173:
 979:Drivers/STM32H7xx_HAL_Driver/Src/stm32h7xx_hal_dma.c **** 
 4609              		.loc 1 979 0
 4610 000a FFF7FEFF 		bl	HAL_GetTick
 4611              	.LVL174:
 987:Drivers/STM32H7xx_HAL_Driver/Src/stm32h7xx_hal_dma.c ****   {
 4612              		.loc 1 987 0
 4613 000e 002C     		cmp	r4, #0
 4614 0010 00F0D782 		beq	.L547
 4615 0014 8046     		mov	r8, r0
 992:Drivers/STM32H7xx_HAL_Driver/Src/stm32h7xx_hal_dma.c ****   {
 4616              		.loc 1 992 0
 4617 0016 94F83530 		ldrb	r3, [r4, #53]	@ zero_extendqisi2
 4618 001a DBB2     		uxtb	r3, r3
 4619 001c 022B     		cmp	r3, #2
 4620 001e 07D0     		beq	.L518
 995:Drivers/STM32H7xx_HAL_Driver/Src/stm32h7xx_hal_dma.c ****     __HAL_UNLOCK(hdma);
 4621              		.loc 1 995 0
 4622 0020 8023     		movs	r3, #128
 4623 0022 6365     		str	r3, [r4, #84]
 996:Drivers/STM32H7xx_HAL_Driver/Src/stm32h7xx_hal_dma.c **** 
 4624              		.loc 1 996 0
 4625 0024 0023     		movs	r3, #0
 4626 0026 84F83430 		strb	r3, [r4, #52]
 998:Drivers/STM32H7xx_HAL_Driver/Src/stm32h7xx_hal_dma.c ****   }
 4627              		.loc 1 998 0
 4628 002a 0120     		movs	r0, #1
 4629              	.LVL175:
 4630 002c BDE8F087 		pop	{r4, r5, r6, r7, r8, r9, r10, pc}
 4631              	.LVL176:
 4632              	.L518:
1001:Drivers/STM32H7xx_HAL_Driver/Src/stm32h7xx_hal_dma.c ****   {
 4633              		.loc 1 1001 0
 4634 0030 2368     		ldr	r3, [r4]
 4635 0032 C64A     		ldr	r2, .L643
 4636 0034 C649     		ldr	r1, .L643+4
ARM GAS  C:\Users\CompuTOP\AppData\Local\Temp\cc4hOfP8.s 			page 130


 4637 0036 9342     		cmp	r3, r2
 4638 0038 18BF     		it	ne
 4639 003a 8B42     		cmpne	r3, r1
 4640 003c 2ED0     		beq	.L548
1001:Drivers/STM32H7xx_HAL_Driver/Src/stm32h7xx_hal_dma.c ****   {
 4641              		.loc 1 1001 0 is_stmt 0 discriminator 2
 4642 003e 1832     		adds	r2, r2, #24
 4643 0040 9342     		cmp	r3, r2
 4644 0042 3ED0     		beq	.L549
1001:Drivers/STM32H7xx_HAL_Driver/Src/stm32h7xx_hal_dma.c ****   {
 4645              		.loc 1 1001 0 discriminator 4
 4646 0044 1832     		adds	r2, r2, #24
 4647 0046 9342     		cmp	r3, r2
 4648 0048 3DD0     		beq	.L550
1001:Drivers/STM32H7xx_HAL_Driver/Src/stm32h7xx_hal_dma.c ****   {
 4649              		.loc 1 1001 0 discriminator 6
 4650 004a 1832     		adds	r2, r2, #24
 4651 004c 9342     		cmp	r3, r2
 4652 004e 3CD0     		beq	.L551
1001:Drivers/STM32H7xx_HAL_Driver/Src/stm32h7xx_hal_dma.c ****   {
 4653              		.loc 1 1001 0 discriminator 8
 4654 0050 1832     		adds	r2, r2, #24
 4655 0052 9342     		cmp	r3, r2
 4656 0054 3BD0     		beq	.L552
1001:Drivers/STM32H7xx_HAL_Driver/Src/stm32h7xx_hal_dma.c ****   {
 4657              		.loc 1 1001 0 discriminator 10
 4658 0056 1832     		adds	r2, r2, #24
 4659 0058 9342     		cmp	r3, r2
 4660 005a 3AD0     		beq	.L553
1001:Drivers/STM32H7xx_HAL_Driver/Src/stm32h7xx_hal_dma.c ****   {
 4661              		.loc 1 1001 0 discriminator 12
 4662 005c 1832     		adds	r2, r2, #24
 4663 005e 9342     		cmp	r3, r2
 4664 0060 39D0     		beq	.L554
1001:Drivers/STM32H7xx_HAL_Driver/Src/stm32h7xx_hal_dma.c ****   {
 4665              		.loc 1 1001 0 discriminator 14
 4666 0062 02F55672 		add	r2, r2, #856
 4667 0066 9342     		cmp	r3, r2
 4668 0068 37D0     		beq	.L555
1001:Drivers/STM32H7xx_HAL_Driver/Src/stm32h7xx_hal_dma.c ****   {
 4669              		.loc 1 1001 0 discriminator 16
 4670 006a 1832     		adds	r2, r2, #24
 4671 006c 9342     		cmp	r3, r2
 4672 006e 36D0     		beq	.L556
1001:Drivers/STM32H7xx_HAL_Driver/Src/stm32h7xx_hal_dma.c ****   {
 4673              		.loc 1 1001 0 discriminator 18
 4674 0070 1832     		adds	r2, r2, #24
 4675 0072 9342     		cmp	r3, r2
 4676 0074 35D0     		beq	.L557
1001:Drivers/STM32H7xx_HAL_Driver/Src/stm32h7xx_hal_dma.c ****   {
 4677              		.loc 1 1001 0 discriminator 20
 4678 0076 1832     		adds	r2, r2, #24
 4679 0078 9342     		cmp	r3, r2
 4680 007a 34D0     		beq	.L558
1001:Drivers/STM32H7xx_HAL_Driver/Src/stm32h7xx_hal_dma.c ****   {
 4681              		.loc 1 1001 0 discriminator 22
 4682 007c 1832     		adds	r2, r2, #24
ARM GAS  C:\Users\CompuTOP\AppData\Local\Temp\cc4hOfP8.s 			page 131


 4683 007e 9342     		cmp	r3, r2
 4684 0080 33D0     		beq	.L559
1001:Drivers/STM32H7xx_HAL_Driver/Src/stm32h7xx_hal_dma.c ****   {
 4685              		.loc 1 1001 0 discriminator 24
 4686 0082 1832     		adds	r2, r2, #24
 4687 0084 9342     		cmp	r3, r2
 4688 0086 32D0     		beq	.L560
1001:Drivers/STM32H7xx_HAL_Driver/Src/stm32h7xx_hal_dma.c ****   {
 4689              		.loc 1 1001 0 discriminator 26
 4690 0088 1832     		adds	r2, r2, #24
 4691 008a 9342     		cmp	r3, r2
 4692 008c 31D0     		beq	.L561
1001:Drivers/STM32H7xx_HAL_Driver/Src/stm32h7xx_hal_dma.c ****   {
 4693              		.loc 1 1001 0 discriminator 28
 4694 008e 1832     		adds	r2, r2, #24
 4695 0090 9342     		cmp	r3, r2
 4696 0092 01D0     		beq	.L632
1001:Drivers/STM32H7xx_HAL_Driver/Src/stm32h7xx_hal_dma.c ****   {
 4697              		.loc 1 1001 0
 4698 0094 0022     		movs	r2, #0
 4699 0096 02E0     		b	.L519
 4700              	.L632:
 4701 0098 0122     		movs	r2, #1
 4702 009a 00E0     		b	.L519
 4703              	.L548:
 4704 009c 0122     		movs	r2, #1
 4705              	.L519:
1001:Drivers/STM32H7xx_HAL_Driver/Src/stm32h7xx_hal_dma.c ****   {
 4706              		.loc 1 1001 0 discriminator 32
 4707 009e B2B3     		cbz	r2, .L520
1004:Drivers/STM32H7xx_HAL_Driver/Src/stm32h7xx_hal_dma.c ****     {
 4708              		.loc 1 1004 0 is_stmt 1
 4709 00a0 1B68     		ldr	r3, [r3]
 4710 00a2 13F4807F 		tst	r3, #256
 4711 00a6 26D1     		bne	.L633
1011:Drivers/STM32H7xx_HAL_Driver/Src/stm32h7xx_hal_dma.c ****     {
 4712              		.loc 1 1011 0
 4713 00a8 BAF1000F 		cmp	r10, #0
 4714 00ac 29D1     		bne	.L522
1014:Drivers/STM32H7xx_HAL_Driver/Src/stm32h7xx_hal_dma.c ****     }
 4715              		.loc 1 1014 0
 4716 00ae E36D     		ldr	r3, [r4, #92]
 4717 00b0 03F01F03 		and	r3, r3, #31
 4718 00b4 2027     		movs	r7, #32
 4719 00b6 9F40     		lsls	r7, r7, r3
 4720              	.LVL177:
 4721              	.L523:
1022:Drivers/STM32H7xx_HAL_Driver/Src/stm32h7xx_hal_dma.c ****     ifcr_reg = &(((DMA_Base_Registers *)hdma->StreamBaseAddress)->IFCR);
 4722              		.loc 1 1022 0
 4723 00b8 A36D     		ldr	r3, [r4, #88]
 4724 00ba 1D46     		mov	r5, r3
 4725              	.LVL178:
1023:Drivers/STM32H7xx_HAL_Driver/Src/stm32h7xx_hal_dma.c ****   }
 4726              		.loc 1 1023 0
 4727 00bc 03F10809 		add	r9, r3, #8
 4728              	.LVL179:
 4729 00c0 E2E0     		b	.L537
ARM GAS  C:\Users\CompuTOP\AppData\Local\Temp\cc4hOfP8.s 			page 132


 4730              	.LVL180:
 4731              	.L549:
1001:Drivers/STM32H7xx_HAL_Driver/Src/stm32h7xx_hal_dma.c ****   {
 4732              		.loc 1 1001 0
 4733 00c2 0122     		movs	r2, #1
 4734 00c4 EBE7     		b	.L519
 4735              	.L550:
 4736 00c6 0122     		movs	r2, #1
 4737 00c8 E9E7     		b	.L519
 4738              	.L551:
 4739 00ca 0122     		movs	r2, #1
 4740 00cc E7E7     		b	.L519
 4741              	.L552:
 4742 00ce 0122     		movs	r2, #1
 4743 00d0 E5E7     		b	.L519
 4744              	.L553:
 4745 00d2 0122     		movs	r2, #1
 4746 00d4 E3E7     		b	.L519
 4747              	.L554:
 4748 00d6 0122     		movs	r2, #1
 4749 00d8 E1E7     		b	.L519
 4750              	.L555:
 4751 00da 0122     		movs	r2, #1
 4752 00dc DFE7     		b	.L519
 4753              	.L556:
 4754 00de 0122     		movs	r2, #1
 4755 00e0 DDE7     		b	.L519
 4756              	.L557:
 4757 00e2 0122     		movs	r2, #1
 4758 00e4 DBE7     		b	.L519
 4759              	.L558:
 4760 00e6 0122     		movs	r2, #1
 4761 00e8 D9E7     		b	.L519
 4762              	.L559:
 4763 00ea 0122     		movs	r2, #1
 4764 00ec D7E7     		b	.L519
 4765              	.L560:
 4766 00ee 0122     		movs	r2, #1
 4767 00f0 D5E7     		b	.L519
 4768              	.L561:
 4769 00f2 0122     		movs	r2, #1
 4770 00f4 D3E7     		b	.L519
 4771              	.L633:
1006:Drivers/STM32H7xx_HAL_Driver/Src/stm32h7xx_hal_dma.c ****       return HAL_ERROR;
 4772              		.loc 1 1006 0
 4773 00f6 4FF48073 		mov	r3, #256
 4774 00fa 6365     		str	r3, [r4, #84]
1007:Drivers/STM32H7xx_HAL_Driver/Src/stm32h7xx_hal_dma.c ****     }
 4775              		.loc 1 1007 0
 4776 00fc 0120     		movs	r0, #1
 4777              	.LVL181:
 4778 00fe BDE8F087 		pop	{r4, r5, r6, r7, r8, r9, r10, pc}
 4779              	.LVL182:
 4780              	.L522:
1019:Drivers/STM32H7xx_HAL_Driver/Src/stm32h7xx_hal_dma.c ****     }
 4781              		.loc 1 1019 0
 4782 0102 E36D     		ldr	r3, [r4, #92]
ARM GAS  C:\Users\CompuTOP\AppData\Local\Temp\cc4hOfP8.s 			page 133


 4783 0104 03F01F03 		and	r3, r3, #31
 4784 0108 1027     		movs	r7, #16
 4785 010a 9F40     		lsls	r7, r7, r3
 4786              	.LVL183:
 4787 010c D4E7     		b	.L523
 4788              	.LVL184:
 4789              	.L520:
1028:Drivers/STM32H7xx_HAL_Driver/Src/stm32h7xx_hal_dma.c ****     {
 4790              		.loc 1 1028 0
 4791 010e 1B68     		ldr	r3, [r3]
 4792 0110 13F0200F 		tst	r3, #32
 4793 0114 0CD1     		bne	.L634
1035:Drivers/STM32H7xx_HAL_Driver/Src/stm32h7xx_hal_dma.c ****     {
 4794              		.loc 1 1035 0
 4795 0116 BAF1000F 		cmp	r10, #0
 4796 011a 0FD1     		bne	.L526
1038:Drivers/STM32H7xx_HAL_Driver/Src/stm32h7xx_hal_dma.c ****     }
 4797              		.loc 1 1038 0
 4798 011c E36D     		ldr	r3, [r4, #92]
 4799 011e 03F01F03 		and	r3, r3, #31
 4800 0122 0227     		movs	r7, #2
 4801 0124 9F40     		lsls	r7, r7, r3
 4802              	.LVL185:
 4803              	.L527:
1046:Drivers/STM32H7xx_HAL_Driver/Src/stm32h7xx_hal_dma.c ****     ifcr_reg = &(((BDMA_Base_Registers *)hdma->StreamBaseAddress)->IFCR);
 4804              		.loc 1 1046 0
 4805 0126 A36D     		ldr	r3, [r4, #88]
 4806 0128 1D46     		mov	r5, r3
 4807              	.LVL186:
1047:Drivers/STM32H7xx_HAL_Driver/Src/stm32h7xx_hal_dma.c ****   }
 4808              		.loc 1 1047 0
 4809 012a 03F10409 		add	r9, r3, #4
 4810              	.LVL187:
 4811 012e ABE0     		b	.L537
 4812              	.LVL188:
 4813              	.L634:
1030:Drivers/STM32H7xx_HAL_Driver/Src/stm32h7xx_hal_dma.c ****       return HAL_ERROR;
 4814              		.loc 1 1030 0
 4815 0130 4FF48073 		mov	r3, #256
 4816 0134 6365     		str	r3, [r4, #84]
1031:Drivers/STM32H7xx_HAL_Driver/Src/stm32h7xx_hal_dma.c ****     }
 4817              		.loc 1 1031 0
 4818 0136 0120     		movs	r0, #1
 4819              	.LVL189:
 4820 0138 BDE8F087 		pop	{r4, r5, r6, r7, r8, r9, r10, pc}
 4821              	.LVL190:
 4822              	.L526:
1043:Drivers/STM32H7xx_HAL_Driver/Src/stm32h7xx_hal_dma.c ****     }
 4823              		.loc 1 1043 0
 4824 013c E36D     		ldr	r3, [r4, #92]
 4825 013e 03F01F03 		and	r3, r3, #31
 4826 0142 0427     		movs	r7, #4
 4827 0144 9F40     		lsls	r7, r7, r3
 4828              	.LVL191:
 4829 0146 EEE7     		b	.L527
 4830              	.LVL192:
 4831              	.L639:
ARM GAS  C:\Users\CompuTOP\AppData\Local\Temp\cc4hOfP8.s 			page 134


1052:Drivers/STM32H7xx_HAL_Driver/Src/stm32h7xx_hal_dma.c ****     {
 4832              		.loc 1 1052 0
 4833 0148 0123     		movs	r3, #1
 4834 014a 00E0     		b	.L529
 4835              	.L563:
 4836 014c 0123     		movs	r3, #1
 4837              	.L529:
1052:Drivers/STM32H7xx_HAL_Driver/Src/stm32h7xx_hal_dma.c ****     {
 4838              		.loc 1 1052 0 is_stmt 0 discriminator 32
 4839 014e 002B     		cmp	r3, #0
 4840 0150 00F00281 		beq	.L530
1054:Drivers/STM32H7xx_HAL_Driver/Src/stm32h7xx_hal_dma.c ****       {
 4841              		.loc 1 1054 0 is_stmt 1
 4842 0154 2A68     		ldr	r2, [r5]
 4843 0156 E36D     		ldr	r3, [r4, #92]
 4844 0158 03F01F03 		and	r3, r3, #31
 4845 015c DA40     		lsrs	r2, r2, r3
 4846 015e 12F0010F 		tst	r2, #1
 4847 0162 08D0     		beq	.L531
1057:Drivers/STM32H7xx_HAL_Driver/Src/stm32h7xx_hal_dma.c **** 
 4848              		.loc 1 1057 0
 4849 0164 626D     		ldr	r2, [r4, #84]
 4850 0166 42F00202 		orr	r2, r2, #2
 4851 016a 6265     		str	r2, [r4, #84]
1060:Drivers/STM32H7xx_HAL_Driver/Src/stm32h7xx_hal_dma.c ****       }
 4852              		.loc 1 1060 0
 4853 016c 0122     		movs	r2, #1
 4854 016e 02FA03F3 		lsl	r3, r2, r3
 4855 0172 C9F80030 		str	r3, [r9]
 4856              	.L531:
1063:Drivers/STM32H7xx_HAL_Driver/Src/stm32h7xx_hal_dma.c ****       {
 4857              		.loc 1 1063 0
 4858 0176 2968     		ldr	r1, [r5]
 4859 0178 E36D     		ldr	r3, [r4, #92]
 4860 017a 03F01F02 		and	r2, r3, #31
 4861 017e 0423     		movs	r3, #4
 4862 0180 9340     		lsls	r3, r3, r2
 4863 0182 1942     		tst	r1, r3
 4864 0184 05D0     		beq	.L532
1066:Drivers/STM32H7xx_HAL_Driver/Src/stm32h7xx_hal_dma.c **** 
 4865              		.loc 1 1066 0
 4866 0186 626D     		ldr	r2, [r4, #84]
 4867 0188 42F00402 		orr	r2, r2, #4
 4868 018c 6265     		str	r2, [r4, #84]
1069:Drivers/STM32H7xx_HAL_Driver/Src/stm32h7xx_hal_dma.c ****       }
 4869              		.loc 1 1069 0
 4870 018e C9F80030 		str	r3, [r9]
 4871              	.L532:
1072:Drivers/STM32H7xx_HAL_Driver/Src/stm32h7xx_hal_dma.c ****       {
 4872              		.loc 1 1072 0
 4873 0192 2968     		ldr	r1, [r5]
 4874 0194 E36D     		ldr	r3, [r4, #92]
 4875 0196 03F01F02 		and	r2, r3, #31
 4876 019a 0823     		movs	r3, #8
 4877 019c 9340     		lsls	r3, r3, r2
 4878 019e 1942     		tst	r1, r3
 4879 01a0 40F0C680 		bne	.L635
ARM GAS  C:\Users\CompuTOP\AppData\Local\Temp\cc4hOfP8.s 			page 135


 4880              	.L533:
1112:Drivers/STM32H7xx_HAL_Driver/Src/stm32h7xx_hal_dma.c ****     {
 4881              		.loc 1 1112 0
 4882 01a4 B6F1FF3F 		cmp	r6, #-1
 4883 01a8 09D0     		beq	.L534
1114:Drivers/STM32H7xx_HAL_Driver/Src/stm32h7xx_hal_dma.c ****       {
 4884              		.loc 1 1114 0
 4885 01aa FFF7FEFF 		bl	HAL_GetTick
 4886              	.LVL193:
 4887 01ae A0EB0800 		sub	r0, r0, r8
 4888 01b2 8642     		cmp	r6, r0
 4889 01b4 C0F0E580 		bcc	.L535
1114:Drivers/STM32H7xx_HAL_Driver/Src/stm32h7xx_hal_dma.c ****       {
 4890              		.loc 1 1114 0 is_stmt 0 discriminator 1
 4891 01b8 002E     		cmp	r6, #0
 4892 01ba 00F0E280 		beq	.L535
 4893              	.L534:
1133:Drivers/STM32H7xx_HAL_Driver/Src/stm32h7xx_hal_dma.c ****     {
 4894              		.loc 1 1133 0 is_stmt 1
 4895 01be 2368     		ldr	r3, [r4]
 4896 01c0 624A     		ldr	r2, .L643
 4897 01c2 6349     		ldr	r1, .L643+4
 4898 01c4 9342     		cmp	r3, r2
 4899 01c6 18BF     		it	ne
 4900 01c8 8B42     		cmpne	r3, r1
 4901 01ca 00F0E480 		beq	.L578
1133:Drivers/STM32H7xx_HAL_Driver/Src/stm32h7xx_hal_dma.c ****     {
 4902              		.loc 1 1133 0 is_stmt 0 discriminator 2
 4903 01ce 1832     		adds	r2, r2, #24
 4904 01d0 9342     		cmp	r3, r2
 4905 01d2 00F0E280 		beq	.L579
1133:Drivers/STM32H7xx_HAL_Driver/Src/stm32h7xx_hal_dma.c ****     {
 4906              		.loc 1 1133 0 discriminator 4
 4907 01d6 1832     		adds	r2, r2, #24
 4908 01d8 9342     		cmp	r3, r2
 4909 01da 00F0E080 		beq	.L580
1133:Drivers/STM32H7xx_HAL_Driver/Src/stm32h7xx_hal_dma.c ****     {
 4910              		.loc 1 1133 0 discriminator 6
 4911 01de 1832     		adds	r2, r2, #24
 4912 01e0 9342     		cmp	r3, r2
 4913 01e2 00F0DE80 		beq	.L581
1133:Drivers/STM32H7xx_HAL_Driver/Src/stm32h7xx_hal_dma.c ****     {
 4914              		.loc 1 1133 0 discriminator 8
 4915 01e6 1832     		adds	r2, r2, #24
 4916 01e8 9342     		cmp	r3, r2
 4917 01ea 00F0DC80 		beq	.L582
1133:Drivers/STM32H7xx_HAL_Driver/Src/stm32h7xx_hal_dma.c ****     {
 4918              		.loc 1 1133 0 discriminator 10
 4919 01ee 1832     		adds	r2, r2, #24
 4920 01f0 9342     		cmp	r3, r2
 4921 01f2 00F0DA80 		beq	.L583
1133:Drivers/STM32H7xx_HAL_Driver/Src/stm32h7xx_hal_dma.c ****     {
 4922              		.loc 1 1133 0 discriminator 12
 4923 01f6 1832     		adds	r2, r2, #24
 4924 01f8 9342     		cmp	r3, r2
 4925 01fa 00F0D880 		beq	.L584
1133:Drivers/STM32H7xx_HAL_Driver/Src/stm32h7xx_hal_dma.c ****     {
ARM GAS  C:\Users\CompuTOP\AppData\Local\Temp\cc4hOfP8.s 			page 136


 4926              		.loc 1 1133 0 discriminator 14
 4927 01fe 02F55672 		add	r2, r2, #856
 4928 0202 9342     		cmp	r3, r2
 4929 0204 00F0D580 		beq	.L585
1133:Drivers/STM32H7xx_HAL_Driver/Src/stm32h7xx_hal_dma.c ****     {
 4930              		.loc 1 1133 0 discriminator 16
 4931 0208 1832     		adds	r2, r2, #24
 4932 020a 9342     		cmp	r3, r2
 4933 020c 00F0D380 		beq	.L586
1133:Drivers/STM32H7xx_HAL_Driver/Src/stm32h7xx_hal_dma.c ****     {
 4934              		.loc 1 1133 0 discriminator 18
 4935 0210 1832     		adds	r2, r2, #24
 4936 0212 9342     		cmp	r3, r2
 4937 0214 00F0D180 		beq	.L587
1133:Drivers/STM32H7xx_HAL_Driver/Src/stm32h7xx_hal_dma.c ****     {
 4938              		.loc 1 1133 0 discriminator 20
 4939 0218 1832     		adds	r2, r2, #24
 4940 021a 9342     		cmp	r3, r2
 4941 021c 00F0CF80 		beq	.L588
1133:Drivers/STM32H7xx_HAL_Driver/Src/stm32h7xx_hal_dma.c ****     {
 4942              		.loc 1 1133 0 discriminator 22
 4943 0220 1832     		adds	r2, r2, #24
 4944 0222 9342     		cmp	r3, r2
 4945 0224 00F0CD80 		beq	.L589
1133:Drivers/STM32H7xx_HAL_Driver/Src/stm32h7xx_hal_dma.c ****     {
 4946              		.loc 1 1133 0 discriminator 24
 4947 0228 1832     		adds	r2, r2, #24
 4948 022a 9342     		cmp	r3, r2
 4949 022c 00F0CB80 		beq	.L590
1133:Drivers/STM32H7xx_HAL_Driver/Src/stm32h7xx_hal_dma.c ****     {
 4950              		.loc 1 1133 0 discriminator 26
 4951 0230 1832     		adds	r2, r2, #24
 4952 0232 9342     		cmp	r3, r2
 4953 0234 00F0C980 		beq	.L591
1133:Drivers/STM32H7xx_HAL_Driver/Src/stm32h7xx_hal_dma.c ****     {
 4954              		.loc 1 1133 0 discriminator 28
 4955 0238 1832     		adds	r2, r2, #24
 4956 023a 9342     		cmp	r3, r2
 4957 023c 00F0C780 		beq	.L592
1133:Drivers/STM32H7xx_HAL_Driver/Src/stm32h7xx_hal_dma.c ****     {
 4958              		.loc 1 1133 0 discriminator 30
 4959 0240 444A     		ldr	r2, .L643+8
 4960 0242 9342     		cmp	r3, r2
 4961 0244 00F0C580 		beq	.L593
1133:Drivers/STM32H7xx_HAL_Driver/Src/stm32h7xx_hal_dma.c ****     {
 4962              		.loc 1 1133 0 discriminator 32
 4963 0248 1432     		adds	r2, r2, #20
 4964 024a 9342     		cmp	r3, r2
 4965 024c 00F0C380 		beq	.L594
1133:Drivers/STM32H7xx_HAL_Driver/Src/stm32h7xx_hal_dma.c ****     {
 4966              		.loc 1 1133 0 discriminator 34
 4967 0250 1432     		adds	r2, r2, #20
 4968 0252 9342     		cmp	r3, r2
 4969 0254 00F0C180 		beq	.L595
1133:Drivers/STM32H7xx_HAL_Driver/Src/stm32h7xx_hal_dma.c ****     {
 4970              		.loc 1 1133 0 discriminator 36
 4971 0258 1432     		adds	r2, r2, #20
ARM GAS  C:\Users\CompuTOP\AppData\Local\Temp\cc4hOfP8.s 			page 137


 4972 025a 9342     		cmp	r3, r2
 4973 025c 00F0BF80 		beq	.L596
1133:Drivers/STM32H7xx_HAL_Driver/Src/stm32h7xx_hal_dma.c ****     {
 4974              		.loc 1 1133 0 discriminator 38
 4975 0260 1432     		adds	r2, r2, #20
 4976 0262 9342     		cmp	r3, r2
 4977 0264 00F0BD80 		beq	.L597
1133:Drivers/STM32H7xx_HAL_Driver/Src/stm32h7xx_hal_dma.c ****     {
 4978              		.loc 1 1133 0 discriminator 40
 4979 0268 1432     		adds	r2, r2, #20
 4980 026a 9342     		cmp	r3, r2
 4981 026c 00F0BB80 		beq	.L598
1133:Drivers/STM32H7xx_HAL_Driver/Src/stm32h7xx_hal_dma.c ****     {
 4982              		.loc 1 1133 0 discriminator 42
 4983 0270 1432     		adds	r2, r2, #20
 4984 0272 9342     		cmp	r3, r2
 4985 0274 00F0B980 		beq	.L599
1133:Drivers/STM32H7xx_HAL_Driver/Src/stm32h7xx_hal_dma.c ****     {
 4986              		.loc 1 1133 0 discriminator 44
 4987 0278 1432     		adds	r2, r2, #20
 4988 027a 9342     		cmp	r3, r2
 4989 027c 00F08980 		beq	.L636
1133:Drivers/STM32H7xx_HAL_Driver/Src/stm32h7xx_hal_dma.c ****     {
 4990              		.loc 1 1133 0
 4991 0280 0023     		movs	r3, #0
 4992              	.L536:
1133:Drivers/STM32H7xx_HAL_Driver/Src/stm32h7xx_hal_dma.c ****     {
 4993              		.loc 1 1133 0 discriminator 48
 4994 0282 002B     		cmp	r3, #0
 4995 0284 40F0B380 		bne	.L637
 4996              	.L537:
1050:Drivers/STM32H7xx_HAL_Driver/Src/stm32h7xx_hal_dma.c ****   {
 4997              		.loc 1 1050 0 is_stmt 1
 4998 0288 2B68     		ldr	r3, [r5]
 4999 028a 1F42     		tst	r7, r3
 5000 028c 40F0C780 		bne	.L638
1052:Drivers/STM32H7xx_HAL_Driver/Src/stm32h7xx_hal_dma.c ****     {
 5001              		.loc 1 1052 0
 5002 0290 2368     		ldr	r3, [r4]
 5003 0292 2E4A     		ldr	r2, .L643
 5004 0294 2E49     		ldr	r1, .L643+4
 5005 0296 9342     		cmp	r3, r2
 5006 0298 18BF     		it	ne
 5007 029a 8B42     		cmpne	r3, r1
 5008 029c 3FF456AF 		beq	.L563
1052:Drivers/STM32H7xx_HAL_Driver/Src/stm32h7xx_hal_dma.c ****     {
 5009              		.loc 1 1052 0 is_stmt 0 discriminator 2
 5010 02a0 1832     		adds	r2, r2, #24
 5011 02a2 9342     		cmp	r3, r2
 5012 02a4 2AD0     		beq	.L564
1052:Drivers/STM32H7xx_HAL_Driver/Src/stm32h7xx_hal_dma.c ****     {
 5013              		.loc 1 1052 0 discriminator 4
 5014 02a6 1832     		adds	r2, r2, #24
 5015 02a8 9342     		cmp	r3, r2
 5016 02aa 29D0     		beq	.L565
1052:Drivers/STM32H7xx_HAL_Driver/Src/stm32h7xx_hal_dma.c ****     {
 5017              		.loc 1 1052 0 discriminator 6
ARM GAS  C:\Users\CompuTOP\AppData\Local\Temp\cc4hOfP8.s 			page 138


 5018 02ac 1832     		adds	r2, r2, #24
 5019 02ae 9342     		cmp	r3, r2
 5020 02b0 28D0     		beq	.L566
1052:Drivers/STM32H7xx_HAL_Driver/Src/stm32h7xx_hal_dma.c ****     {
 5021              		.loc 1 1052 0 discriminator 8
 5022 02b2 1832     		adds	r2, r2, #24
 5023 02b4 9342     		cmp	r3, r2
 5024 02b6 27D0     		beq	.L567
1052:Drivers/STM32H7xx_HAL_Driver/Src/stm32h7xx_hal_dma.c ****     {
 5025              		.loc 1 1052 0 discriminator 10
 5026 02b8 1832     		adds	r2, r2, #24
 5027 02ba 9342     		cmp	r3, r2
 5028 02bc 26D0     		beq	.L568
1052:Drivers/STM32H7xx_HAL_Driver/Src/stm32h7xx_hal_dma.c ****     {
 5029              		.loc 1 1052 0 discriminator 12
 5030 02be 1832     		adds	r2, r2, #24
 5031 02c0 9342     		cmp	r3, r2
 5032 02c2 25D0     		beq	.L569
1052:Drivers/STM32H7xx_HAL_Driver/Src/stm32h7xx_hal_dma.c ****     {
 5033              		.loc 1 1052 0 discriminator 14
 5034 02c4 02F55672 		add	r2, r2, #856
 5035 02c8 9342     		cmp	r3, r2
 5036 02ca 23D0     		beq	.L570
1052:Drivers/STM32H7xx_HAL_Driver/Src/stm32h7xx_hal_dma.c ****     {
 5037              		.loc 1 1052 0 discriminator 16
 5038 02cc 1832     		adds	r2, r2, #24
 5039 02ce 9342     		cmp	r3, r2
 5040 02d0 22D0     		beq	.L571
1052:Drivers/STM32H7xx_HAL_Driver/Src/stm32h7xx_hal_dma.c ****     {
 5041              		.loc 1 1052 0 discriminator 18
 5042 02d2 1832     		adds	r2, r2, #24
 5043 02d4 9342     		cmp	r3, r2
 5044 02d6 21D0     		beq	.L572
1052:Drivers/STM32H7xx_HAL_Driver/Src/stm32h7xx_hal_dma.c ****     {
 5045              		.loc 1 1052 0 discriminator 20
 5046 02d8 1832     		adds	r2, r2, #24
 5047 02da 9342     		cmp	r3, r2
 5048 02dc 20D0     		beq	.L573
1052:Drivers/STM32H7xx_HAL_Driver/Src/stm32h7xx_hal_dma.c ****     {
 5049              		.loc 1 1052 0 discriminator 22
 5050 02de 1832     		adds	r2, r2, #24
 5051 02e0 9342     		cmp	r3, r2
 5052 02e2 1FD0     		beq	.L574
1052:Drivers/STM32H7xx_HAL_Driver/Src/stm32h7xx_hal_dma.c ****     {
 5053              		.loc 1 1052 0 discriminator 24
 5054 02e4 1832     		adds	r2, r2, #24
 5055 02e6 9342     		cmp	r3, r2
 5056 02e8 1ED0     		beq	.L575
1052:Drivers/STM32H7xx_HAL_Driver/Src/stm32h7xx_hal_dma.c ****     {
 5057              		.loc 1 1052 0 discriminator 26
 5058 02ea 1832     		adds	r2, r2, #24
 5059 02ec 9342     		cmp	r3, r2
 5060 02ee 1DD0     		beq	.L576
1052:Drivers/STM32H7xx_HAL_Driver/Src/stm32h7xx_hal_dma.c ****     {
 5061              		.loc 1 1052 0 discriminator 28
 5062 02f0 1832     		adds	r2, r2, #24
 5063 02f2 9342     		cmp	r3, r2
ARM GAS  C:\Users\CompuTOP\AppData\Local\Temp\cc4hOfP8.s 			page 139


 5064 02f4 3FF428AF 		beq	.L639
1052:Drivers/STM32H7xx_HAL_Driver/Src/stm32h7xx_hal_dma.c ****     {
 5065              		.loc 1 1052 0
 5066 02f8 0023     		movs	r3, #0
 5067 02fa 28E7     		b	.L529
 5068              	.L564:
 5069 02fc 0123     		movs	r3, #1
 5070 02fe 26E7     		b	.L529
 5071              	.L565:
 5072 0300 0123     		movs	r3, #1
 5073 0302 24E7     		b	.L529
 5074              	.L566:
 5075 0304 0123     		movs	r3, #1
 5076 0306 22E7     		b	.L529
 5077              	.L567:
 5078 0308 0123     		movs	r3, #1
 5079 030a 20E7     		b	.L529
 5080              	.L568:
 5081 030c 0123     		movs	r3, #1
 5082 030e 1EE7     		b	.L529
 5083              	.L569:
 5084 0310 0123     		movs	r3, #1
 5085 0312 1CE7     		b	.L529
 5086              	.L570:
 5087 0314 0123     		movs	r3, #1
 5088 0316 1AE7     		b	.L529
 5089              	.L571:
 5090 0318 0123     		movs	r3, #1
 5091 031a 18E7     		b	.L529
 5092              	.L572:
 5093 031c 0123     		movs	r3, #1
 5094 031e 16E7     		b	.L529
 5095              	.L573:
 5096 0320 0123     		movs	r3, #1
 5097 0322 14E7     		b	.L529
 5098              	.L574:
 5099 0324 0123     		movs	r3, #1
 5100 0326 12E7     		b	.L529
 5101              	.L575:
 5102 0328 0123     		movs	r3, #1
 5103 032a 10E7     		b	.L529
 5104              	.L576:
 5105 032c 0123     		movs	r3, #1
 5106 032e 0EE7     		b	.L529
 5107              	.L635:
1075:Drivers/STM32H7xx_HAL_Driver/Src/stm32h7xx_hal_dma.c **** 
 5108              		.loc 1 1075 0 is_stmt 1
 5109 0330 626D     		ldr	r2, [r4, #84]
 5110 0332 42F00102 		orr	r2, r2, #1
 5111 0336 6265     		str	r2, [r4, #84]
1078:Drivers/STM32H7xx_HAL_Driver/Src/stm32h7xx_hal_dma.c **** 
 5112              		.loc 1 1078 0
 5113 0338 C9F80030 		str	r3, [r9]
1081:Drivers/STM32H7xx_HAL_Driver/Src/stm32h7xx_hal_dma.c **** 
 5114              		.loc 1 1081 0
 5115 033c 0120     		movs	r0, #1
 5116 033e 84F83500 		strb	r0, [r4, #53]
ARM GAS  C:\Users\CompuTOP\AppData\Local\Temp\cc4hOfP8.s 			page 140


1084:Drivers/STM32H7xx_HAL_Driver/Src/stm32h7xx_hal_dma.c **** 
 5117              		.loc 1 1084 0
 5118 0342 0023     		movs	r3, #0
 5119 0344 84F83430 		strb	r3, [r4, #52]
1086:Drivers/STM32H7xx_HAL_Driver/Src/stm32h7xx_hal_dma.c ****       }
 5120              		.loc 1 1086 0
 5121 0348 BDE8F087 		pop	{r4, r5, r6, r7, r8, r9, r10, pc}
 5122              	.LVL194:
 5123              	.L644:
 5124              		.align	2
 5125              	.L643:
 5126 034c 28000240 		.word	1073872936
 5127 0350 10000240 		.word	1073872912
 5128 0354 08540258 		.word	1476547592
 5129              	.LVL195:
 5130              	.L530:
1091:Drivers/STM32H7xx_HAL_Driver/Src/stm32h7xx_hal_dma.c ****       {
 5131              		.loc 1 1091 0
 5132 0358 2968     		ldr	r1, [r5]
 5133 035a E36D     		ldr	r3, [r4, #92]
 5134 035c 03F01F03 		and	r3, r3, #31
 5135 0360 0822     		movs	r2, #8
 5136 0362 9A40     		lsls	r2, r2, r3
 5137 0364 1142     		tst	r1, r2
 5138 0366 3FF41DAF 		beq	.L533
1096:Drivers/STM32H7xx_HAL_Driver/Src/stm32h7xx_hal_dma.c **** 
 5139              		.loc 1 1096 0
 5140 036a 0120     		movs	r0, #1
 5141 036c 00FA03F3 		lsl	r3, r0, r3
 5142 0370 2B60     		str	r3, [r5]
1099:Drivers/STM32H7xx_HAL_Driver/Src/stm32h7xx_hal_dma.c **** 
 5143              		.loc 1 1099 0
 5144 0372 6065     		str	r0, [r4, #84]
1102:Drivers/STM32H7xx_HAL_Driver/Src/stm32h7xx_hal_dma.c **** 
 5145              		.loc 1 1102 0
 5146 0374 84F83500 		strb	r0, [r4, #53]
1105:Drivers/STM32H7xx_HAL_Driver/Src/stm32h7xx_hal_dma.c **** 
 5147              		.loc 1 1105 0
 5148 0378 0023     		movs	r3, #0
 5149 037a 84F83430 		strb	r3, [r4, #52]
1107:Drivers/STM32H7xx_HAL_Driver/Src/stm32h7xx_hal_dma.c ****       }
 5150              		.loc 1 1107 0
 5151 037e BDE8F087 		pop	{r4, r5, r6, r7, r8, r9, r10, pc}
 5152              	.LVL196:
 5153              	.L535:
1117:Drivers/STM32H7xx_HAL_Driver/Src/stm32h7xx_hal_dma.c **** 
 5154              		.loc 1 1117 0
 5155 0382 2023     		movs	r3, #32
 5156 0384 6365     		str	r3, [r4, #84]
1121:Drivers/STM32H7xx_HAL_Driver/Src/stm32h7xx_hal_dma.c ****           /*
 5157              		.loc 1 1121 0
 5158 0386 2046     		mov	r0, r4
 5159 0388 FFF7FEFF 		bl	HAL_DMA_Abort
 5160              	.LVL197:
1129:Drivers/STM32H7xx_HAL_Driver/Src/stm32h7xx_hal_dma.c ****       }
 5161              		.loc 1 1129 0
 5162 038c 0120     		movs	r0, #1
ARM GAS  C:\Users\CompuTOP\AppData\Local\Temp\cc4hOfP8.s 			page 141


 5163 038e BDE8F087 		pop	{r4, r5, r6, r7, r8, r9, r10, pc}
 5164              	.LVL198:
 5165              	.L636:
1133:Drivers/STM32H7xx_HAL_Driver/Src/stm32h7xx_hal_dma.c ****     {
 5166              		.loc 1 1133 0
 5167 0392 0123     		movs	r3, #1
 5168 0394 75E7     		b	.L536
 5169              	.L578:
 5170 0396 0123     		movs	r3, #1
 5171 0398 73E7     		b	.L536
 5172              	.L579:
 5173 039a 0123     		movs	r3, #1
 5174 039c 71E7     		b	.L536
 5175              	.L580:
 5176 039e 0123     		movs	r3, #1
 5177 03a0 6FE7     		b	.L536
 5178              	.L581:
 5179 03a2 0123     		movs	r3, #1
 5180 03a4 6DE7     		b	.L536
 5181              	.L582:
 5182 03a6 0123     		movs	r3, #1
 5183 03a8 6BE7     		b	.L536
 5184              	.L583:
 5185 03aa 0123     		movs	r3, #1
 5186 03ac 69E7     		b	.L536
 5187              	.L584:
 5188 03ae 0123     		movs	r3, #1
 5189 03b0 67E7     		b	.L536
 5190              	.L585:
 5191 03b2 0123     		movs	r3, #1
 5192 03b4 65E7     		b	.L536
 5193              	.L586:
 5194 03b6 0123     		movs	r3, #1
 5195 03b8 63E7     		b	.L536
 5196              	.L587:
 5197 03ba 0123     		movs	r3, #1
 5198 03bc 61E7     		b	.L536
 5199              	.L588:
 5200 03be 0123     		movs	r3, #1
 5201 03c0 5FE7     		b	.L536
 5202              	.L589:
 5203 03c2 0123     		movs	r3, #1
 5204 03c4 5DE7     		b	.L536
 5205              	.L590:
 5206 03c6 0123     		movs	r3, #1
 5207 03c8 5BE7     		b	.L536
 5208              	.L591:
 5209 03ca 0123     		movs	r3, #1
 5210 03cc 59E7     		b	.L536
 5211              	.L592:
 5212 03ce 0123     		movs	r3, #1
 5213 03d0 57E7     		b	.L536
 5214              	.L593:
 5215 03d2 0123     		movs	r3, #1
 5216 03d4 55E7     		b	.L536
 5217              	.L594:
 5218 03d6 0123     		movs	r3, #1
ARM GAS  C:\Users\CompuTOP\AppData\Local\Temp\cc4hOfP8.s 			page 142


 5219 03d8 53E7     		b	.L536
 5220              	.L595:
 5221 03da 0123     		movs	r3, #1
 5222 03dc 51E7     		b	.L536
 5223              	.L596:
 5224 03de 0123     		movs	r3, #1
 5225 03e0 4FE7     		b	.L536
 5226              	.L597:
 5227 03e2 0123     		movs	r3, #1
 5228 03e4 4DE7     		b	.L536
 5229              	.L598:
 5230 03e6 0123     		movs	r3, #1
 5231 03e8 4BE7     		b	.L536
 5232              	.L599:
 5233 03ea 0123     		movs	r3, #1
 5234 03ec 49E7     		b	.L536
 5235              	.L637:
1136:Drivers/STM32H7xx_HAL_Driver/Src/stm32h7xx_hal_dma.c ****       {
 5236              		.loc 1 1136 0
 5237 03ee E36E     		ldr	r3, [r4, #108]
 5238 03f0 4BB1     		cbz	r3, .L538
1139:Drivers/STM32H7xx_HAL_Driver/Src/stm32h7xx_hal_dma.c ****         {
 5239              		.loc 1 1139 0
 5240 03f2 236F     		ldr	r3, [r4, #112]
 5241 03f4 1968     		ldr	r1, [r3]
 5242 03f6 626F     		ldr	r2, [r4, #116]
 5243 03f8 1142     		tst	r1, r2
 5244 03fa 04D0     		beq	.L538
1142:Drivers/STM32H7xx_HAL_Driver/Src/stm32h7xx_hal_dma.c **** 
 5245              		.loc 1 1142 0
 5246 03fc 5A60     		str	r2, [r3, #4]
1145:Drivers/STM32H7xx_HAL_Driver/Src/stm32h7xx_hal_dma.c ****         }
 5247              		.loc 1 1145 0
 5248 03fe 636D     		ldr	r3, [r4, #84]
 5249 0400 43F48063 		orr	r3, r3, #1024
 5250 0404 6365     		str	r3, [r4, #84]
 5251              	.L538:
1150:Drivers/STM32H7xx_HAL_Driver/Src/stm32h7xx_hal_dma.c ****       {
 5252              		.loc 1 1150 0
 5253 0406 636E     		ldr	r3, [r4, #100]
 5254 0408 1968     		ldr	r1, [r3]
 5255 040a A26E     		ldr	r2, [r4, #104]
 5256 040c 1142     		tst	r1, r2
 5257 040e 3FF43BAF 		beq	.L537
1153:Drivers/STM32H7xx_HAL_Driver/Src/stm32h7xx_hal_dma.c **** 
 5258              		.loc 1 1153 0
 5259 0412 5A60     		str	r2, [r3, #4]
1156:Drivers/STM32H7xx_HAL_Driver/Src/stm32h7xx_hal_dma.c ****       }
 5260              		.loc 1 1156 0
 5261 0414 636D     		ldr	r3, [r4, #84]
 5262 0416 43F40073 		orr	r3, r3, #512
 5263 041a 6365     		str	r3, [r4, #84]
 5264 041c 34E7     		b	.L537
 5265              	.L638:
1163:Drivers/STM32H7xx_HAL_Driver/Src/stm32h7xx_hal_dma.c ****   {
 5266              		.loc 1 1163 0
 5267 041e BAF1000F 		cmp	r10, #0
ARM GAS  C:\Users\CompuTOP\AppData\Local\Temp\cc4hOfP8.s 			page 143


 5268 0422 68D1     		bne	.L541
1166:Drivers/STM32H7xx_HAL_Driver/Src/stm32h7xx_hal_dma.c ****     {
 5269              		.loc 1 1166 0
 5270 0424 2368     		ldr	r3, [r4]
 5271 0426 684A     		ldr	r2, .L645
 5272 0428 6849     		ldr	r1, .L645+4
 5273 042a 9342     		cmp	r3, r2
 5274 042c 18BF     		it	ne
 5275 042e 8B42     		cmpne	r3, r1
 5276 0430 2ED0     		beq	.L601
1166:Drivers/STM32H7xx_HAL_Driver/Src/stm32h7xx_hal_dma.c ****     {
 5277              		.loc 1 1166 0 is_stmt 0 discriminator 2
 5278 0432 1832     		adds	r2, r2, #24
 5279 0434 9342     		cmp	r3, r2
 5280 0436 3CD0     		beq	.L602
1166:Drivers/STM32H7xx_HAL_Driver/Src/stm32h7xx_hal_dma.c ****     {
 5281              		.loc 1 1166 0 discriminator 4
 5282 0438 1832     		adds	r2, r2, #24
 5283 043a 9342     		cmp	r3, r2
 5284 043c 3BD0     		beq	.L603
1166:Drivers/STM32H7xx_HAL_Driver/Src/stm32h7xx_hal_dma.c ****     {
 5285              		.loc 1 1166 0 discriminator 6
 5286 043e 1832     		adds	r2, r2, #24
 5287 0440 9342     		cmp	r3, r2
 5288 0442 3AD0     		beq	.L604
1166:Drivers/STM32H7xx_HAL_Driver/Src/stm32h7xx_hal_dma.c ****     {
 5289              		.loc 1 1166 0 discriminator 8
 5290 0444 1832     		adds	r2, r2, #24
 5291 0446 9342     		cmp	r3, r2
 5292 0448 39D0     		beq	.L605
1166:Drivers/STM32H7xx_HAL_Driver/Src/stm32h7xx_hal_dma.c ****     {
 5293              		.loc 1 1166 0 discriminator 10
 5294 044a 1832     		adds	r2, r2, #24
 5295 044c 9342     		cmp	r3, r2
 5296 044e 38D0     		beq	.L606
1166:Drivers/STM32H7xx_HAL_Driver/Src/stm32h7xx_hal_dma.c ****     {
 5297              		.loc 1 1166 0 discriminator 12
 5298 0450 1832     		adds	r2, r2, #24
 5299 0452 9342     		cmp	r3, r2
 5300 0454 37D0     		beq	.L607
1166:Drivers/STM32H7xx_HAL_Driver/Src/stm32h7xx_hal_dma.c ****     {
 5301              		.loc 1 1166 0 discriminator 14
 5302 0456 02F55672 		add	r2, r2, #856
 5303 045a 9342     		cmp	r3, r2
 5304 045c 35D0     		beq	.L608
1166:Drivers/STM32H7xx_HAL_Driver/Src/stm32h7xx_hal_dma.c ****     {
 5305              		.loc 1 1166 0 discriminator 16
 5306 045e 1832     		adds	r2, r2, #24
 5307 0460 9342     		cmp	r3, r2
 5308 0462 34D0     		beq	.L609
1166:Drivers/STM32H7xx_HAL_Driver/Src/stm32h7xx_hal_dma.c ****     {
 5309              		.loc 1 1166 0 discriminator 18
 5310 0464 1832     		adds	r2, r2, #24
 5311 0466 9342     		cmp	r3, r2
 5312 0468 33D0     		beq	.L610
1166:Drivers/STM32H7xx_HAL_Driver/Src/stm32h7xx_hal_dma.c ****     {
 5313              		.loc 1 1166 0 discriminator 20
ARM GAS  C:\Users\CompuTOP\AppData\Local\Temp\cc4hOfP8.s 			page 144


 5314 046a 1832     		adds	r2, r2, #24
 5315 046c 9342     		cmp	r3, r2
 5316 046e 32D0     		beq	.L611
1166:Drivers/STM32H7xx_HAL_Driver/Src/stm32h7xx_hal_dma.c ****     {
 5317              		.loc 1 1166 0 discriminator 22
 5318 0470 1832     		adds	r2, r2, #24
 5319 0472 9342     		cmp	r3, r2
 5320 0474 31D0     		beq	.L612
1166:Drivers/STM32H7xx_HAL_Driver/Src/stm32h7xx_hal_dma.c ****     {
 5321              		.loc 1 1166 0 discriminator 24
 5322 0476 1832     		adds	r2, r2, #24
 5323 0478 9342     		cmp	r3, r2
 5324 047a 30D0     		beq	.L613
1166:Drivers/STM32H7xx_HAL_Driver/Src/stm32h7xx_hal_dma.c ****     {
 5325              		.loc 1 1166 0 discriminator 26
 5326 047c 1832     		adds	r2, r2, #24
 5327 047e 9342     		cmp	r3, r2
 5328 0480 2FD0     		beq	.L614
1166:Drivers/STM32H7xx_HAL_Driver/Src/stm32h7xx_hal_dma.c ****     {
 5329              		.loc 1 1166 0 discriminator 28
 5330 0482 1832     		adds	r2, r2, #24
 5331 0484 9342     		cmp	r3, r2
 5332 0486 01D0     		beq	.L640
1166:Drivers/STM32H7xx_HAL_Driver/Src/stm32h7xx_hal_dma.c ****     {
 5333              		.loc 1 1166 0
 5334 0488 0023     		movs	r3, #0
 5335 048a 02E0     		b	.L542
 5336              	.L640:
 5337 048c 0123     		movs	r3, #1
 5338 048e 00E0     		b	.L542
 5339              	.L601:
 5340 0490 0123     		movs	r3, #1
 5341              	.L542:
1166:Drivers/STM32H7xx_HAL_Driver/Src/stm32h7xx_hal_dma.c ****     {
 5342              		.loc 1 1166 0 discriminator 32
 5343 0492 43B3     		cbz	r3, .L543
1168:Drivers/STM32H7xx_HAL_Driver/Src/stm32h7xx_hal_dma.c ****     }
 5344              		.loc 1 1168 0 is_stmt 1
 5345 0494 E36D     		ldr	r3, [r4, #92]
 5346 0496 03F01F02 		and	r2, r3, #31
 5347 049a 3023     		movs	r3, #48
 5348 049c 9340     		lsls	r3, r3, r2
 5349 049e C9F80030 		str	r3, [r9]
 5350              	.L544:
1175:Drivers/STM32H7xx_HAL_Driver/Src/stm32h7xx_hal_dma.c **** 
 5351              		.loc 1 1175 0
 5352 04a2 0123     		movs	r3, #1
 5353 04a4 84F83530 		strb	r3, [r4, #53]
1178:Drivers/STM32H7xx_HAL_Driver/Src/stm32h7xx_hal_dma.c ****   }
 5354              		.loc 1 1178 0
 5355 04a8 0020     		movs	r0, #0
 5356 04aa 84F83400 		strb	r0, [r4, #52]
 5357 04ae BDE8F087 		pop	{r4, r5, r6, r7, r8, r9, r10, pc}
 5358              	.LVL199:
 5359              	.L602:
1166:Drivers/STM32H7xx_HAL_Driver/Src/stm32h7xx_hal_dma.c ****     {
 5360              		.loc 1 1166 0
ARM GAS  C:\Users\CompuTOP\AppData\Local\Temp\cc4hOfP8.s 			page 145


 5361 04b2 0123     		movs	r3, #1
 5362 04b4 EDE7     		b	.L542
 5363              	.L603:
 5364 04b6 0123     		movs	r3, #1
 5365 04b8 EBE7     		b	.L542
 5366              	.L604:
 5367 04ba 0123     		movs	r3, #1
 5368 04bc E9E7     		b	.L542
 5369              	.L605:
 5370 04be 0123     		movs	r3, #1
 5371 04c0 E7E7     		b	.L542
 5372              	.L606:
 5373 04c2 0123     		movs	r3, #1
 5374 04c4 E5E7     		b	.L542
 5375              	.L607:
 5376 04c6 0123     		movs	r3, #1
 5377 04c8 E3E7     		b	.L542
 5378              	.L608:
 5379 04ca 0123     		movs	r3, #1
 5380 04cc E1E7     		b	.L542
 5381              	.L609:
 5382 04ce 0123     		movs	r3, #1
 5383 04d0 DFE7     		b	.L542
 5384              	.L610:
 5385 04d2 0123     		movs	r3, #1
 5386 04d4 DDE7     		b	.L542
 5387              	.L611:
 5388 04d6 0123     		movs	r3, #1
 5389 04d8 DBE7     		b	.L542
 5390              	.L612:
 5391 04da 0123     		movs	r3, #1
 5392 04dc D9E7     		b	.L542
 5393              	.L613:
 5394 04de 0123     		movs	r3, #1
 5395 04e0 D7E7     		b	.L542
 5396              	.L614:
 5397 04e2 0123     		movs	r3, #1
 5398 04e4 D5E7     		b	.L542
 5399              	.L543:
1172:Drivers/STM32H7xx_HAL_Driver/Src/stm32h7xx_hal_dma.c ****     }
 5400              		.loc 1 1172 0
 5401 04e6 E36D     		ldr	r3, [r4, #92]
 5402 04e8 03F01F02 		and	r2, r3, #31
 5403 04ec 0223     		movs	r3, #2
 5404 04ee 9340     		lsls	r3, r3, r2
 5405 04f0 C9F80030 		str	r3, [r9]
 5406 04f4 D5E7     		b	.L544
 5407              	.L541:
1183:Drivers/STM32H7xx_HAL_Driver/Src/stm32h7xx_hal_dma.c ****     {
 5408              		.loc 1 1183 0
 5409 04f6 2368     		ldr	r3, [r4]
 5410 04f8 334A     		ldr	r2, .L645
 5411 04fa 3449     		ldr	r1, .L645+4
 5412 04fc 9342     		cmp	r3, r2
 5413 04fe 18BF     		it	ne
 5414 0500 8B42     		cmpne	r3, r1
 5415 0502 2ED0     		beq	.L616
ARM GAS  C:\Users\CompuTOP\AppData\Local\Temp\cc4hOfP8.s 			page 146


1183:Drivers/STM32H7xx_HAL_Driver/Src/stm32h7xx_hal_dma.c ****     {
 5416              		.loc 1 1183 0 is_stmt 0 discriminator 2
 5417 0504 1832     		adds	r2, r2, #24
 5418 0506 9342     		cmp	r3, r2
 5419 0508 37D0     		beq	.L617
1183:Drivers/STM32H7xx_HAL_Driver/Src/stm32h7xx_hal_dma.c ****     {
 5420              		.loc 1 1183 0 discriminator 4
 5421 050a 1832     		adds	r2, r2, #24
 5422 050c 9342     		cmp	r3, r2
 5423 050e 36D0     		beq	.L618
1183:Drivers/STM32H7xx_HAL_Driver/Src/stm32h7xx_hal_dma.c ****     {
 5424              		.loc 1 1183 0 discriminator 6
 5425 0510 1832     		adds	r2, r2, #24
 5426 0512 9342     		cmp	r3, r2
 5427 0514 35D0     		beq	.L619
1183:Drivers/STM32H7xx_HAL_Driver/Src/stm32h7xx_hal_dma.c ****     {
 5428              		.loc 1 1183 0 discriminator 8
 5429 0516 1832     		adds	r2, r2, #24
 5430 0518 9342     		cmp	r3, r2
 5431 051a 34D0     		beq	.L620
1183:Drivers/STM32H7xx_HAL_Driver/Src/stm32h7xx_hal_dma.c ****     {
 5432              		.loc 1 1183 0 discriminator 10
 5433 051c 1832     		adds	r2, r2, #24
 5434 051e 9342     		cmp	r3, r2
 5435 0520 33D0     		beq	.L621
1183:Drivers/STM32H7xx_HAL_Driver/Src/stm32h7xx_hal_dma.c ****     {
 5436              		.loc 1 1183 0 discriminator 12
 5437 0522 1832     		adds	r2, r2, #24
 5438 0524 9342     		cmp	r3, r2
 5439 0526 32D0     		beq	.L622
1183:Drivers/STM32H7xx_HAL_Driver/Src/stm32h7xx_hal_dma.c ****     {
 5440              		.loc 1 1183 0 discriminator 14
 5441 0528 02F55672 		add	r2, r2, #856
 5442 052c 9342     		cmp	r3, r2
 5443 052e 30D0     		beq	.L623
1183:Drivers/STM32H7xx_HAL_Driver/Src/stm32h7xx_hal_dma.c ****     {
 5444              		.loc 1 1183 0 discriminator 16
 5445 0530 1832     		adds	r2, r2, #24
 5446 0532 9342     		cmp	r3, r2
 5447 0534 2FD0     		beq	.L624
1183:Drivers/STM32H7xx_HAL_Driver/Src/stm32h7xx_hal_dma.c ****     {
 5448              		.loc 1 1183 0 discriminator 18
 5449 0536 1832     		adds	r2, r2, #24
 5450 0538 9342     		cmp	r3, r2
 5451 053a 2ED0     		beq	.L625
1183:Drivers/STM32H7xx_HAL_Driver/Src/stm32h7xx_hal_dma.c ****     {
 5452              		.loc 1 1183 0 discriminator 20
 5453 053c 1832     		adds	r2, r2, #24
 5454 053e 9342     		cmp	r3, r2
 5455 0540 2DD0     		beq	.L626
1183:Drivers/STM32H7xx_HAL_Driver/Src/stm32h7xx_hal_dma.c ****     {
 5456              		.loc 1 1183 0 discriminator 22
 5457 0542 1832     		adds	r2, r2, #24
 5458 0544 9342     		cmp	r3, r2
 5459 0546 2CD0     		beq	.L627
1183:Drivers/STM32H7xx_HAL_Driver/Src/stm32h7xx_hal_dma.c ****     {
 5460              		.loc 1 1183 0 discriminator 24
ARM GAS  C:\Users\CompuTOP\AppData\Local\Temp\cc4hOfP8.s 			page 147


 5461 0548 1832     		adds	r2, r2, #24
 5462 054a 9342     		cmp	r3, r2
 5463 054c 2BD0     		beq	.L628
1183:Drivers/STM32H7xx_HAL_Driver/Src/stm32h7xx_hal_dma.c ****     {
 5464              		.loc 1 1183 0 discriminator 26
 5465 054e 1832     		adds	r2, r2, #24
 5466 0550 9342     		cmp	r3, r2
 5467 0552 2AD0     		beq	.L629
1183:Drivers/STM32H7xx_HAL_Driver/Src/stm32h7xx_hal_dma.c ****     {
 5468              		.loc 1 1183 0 discriminator 28
 5469 0554 1832     		adds	r2, r2, #24
 5470 0556 9342     		cmp	r3, r2
 5471 0558 01D0     		beq	.L641
1183:Drivers/STM32H7xx_HAL_Driver/Src/stm32h7xx_hal_dma.c ****     {
 5472              		.loc 1 1183 0
 5473 055a 0023     		movs	r3, #0
 5474 055c 02E0     		b	.L545
 5475              	.L641:
 5476 055e 0123     		movs	r3, #1
 5477 0560 00E0     		b	.L545
 5478              	.L616:
 5479 0562 0123     		movs	r3, #1
 5480              	.L545:
1183:Drivers/STM32H7xx_HAL_Driver/Src/stm32h7xx_hal_dma.c ****     {
 5481              		.loc 1 1183 0 discriminator 32
 5482 0564 1BBB     		cbnz	r3, .L642
1189:Drivers/STM32H7xx_HAL_Driver/Src/stm32h7xx_hal_dma.c ****     }
 5483              		.loc 1 1189 0 is_stmt 1
 5484 0566 E26D     		ldr	r2, [r4, #92]
 5485 0568 02F01F02 		and	r2, r2, #31
 5486 056c 0423     		movs	r3, #4
 5487 056e 9340     		lsls	r3, r3, r2
 5488 0570 C9F80030 		str	r3, [r9]
1193:Drivers/STM32H7xx_HAL_Driver/Src/stm32h7xx_hal_dma.c **** }
 5489              		.loc 1 1193 0
 5490 0574 0020     		movs	r0, #0
 5491 0576 BDE8F087 		pop	{r4, r5, r6, r7, r8, r9, r10, pc}
 5492              	.LVL200:
 5493              	.L617:
1183:Drivers/STM32H7xx_HAL_Driver/Src/stm32h7xx_hal_dma.c ****     {
 5494              		.loc 1 1183 0
 5495 057a 0123     		movs	r3, #1
 5496 057c F2E7     		b	.L545
 5497              	.L618:
 5498 057e 0123     		movs	r3, #1
 5499 0580 F0E7     		b	.L545
 5500              	.L619:
 5501 0582 0123     		movs	r3, #1
 5502 0584 EEE7     		b	.L545
 5503              	.L620:
 5504 0586 0123     		movs	r3, #1
 5505 0588 ECE7     		b	.L545
 5506              	.L621:
 5507 058a 0123     		movs	r3, #1
 5508 058c EAE7     		b	.L545
 5509              	.L622:
 5510 058e 0123     		movs	r3, #1
ARM GAS  C:\Users\CompuTOP\AppData\Local\Temp\cc4hOfP8.s 			page 148


 5511 0590 E8E7     		b	.L545
 5512              	.L623:
 5513 0592 0123     		movs	r3, #1
 5514 0594 E6E7     		b	.L545
 5515              	.L624:
 5516 0596 0123     		movs	r3, #1
 5517 0598 E4E7     		b	.L545
 5518              	.L625:
 5519 059a 0123     		movs	r3, #1
 5520 059c E2E7     		b	.L545
 5521              	.L626:
 5522 059e 0123     		movs	r3, #1
 5523 05a0 E0E7     		b	.L545
 5524              	.L627:
 5525 05a2 0123     		movs	r3, #1
 5526 05a4 DEE7     		b	.L545
 5527              	.L628:
 5528 05a6 0123     		movs	r3, #1
 5529 05a8 DCE7     		b	.L545
 5530              	.L629:
 5531 05aa 0123     		movs	r3, #1
 5532 05ac DAE7     		b	.L545
 5533              	.L642:
1185:Drivers/STM32H7xx_HAL_Driver/Src/stm32h7xx_hal_dma.c ****     }
 5534              		.loc 1 1185 0
 5535 05ae E26D     		ldr	r2, [r4, #92]
 5536 05b0 02F01F02 		and	r2, r2, #31
 5537 05b4 1023     		movs	r3, #16
 5538 05b6 9340     		lsls	r3, r3, r2
 5539 05b8 C9F80030 		str	r3, [r9]
1193:Drivers/STM32H7xx_HAL_Driver/Src/stm32h7xx_hal_dma.c **** }
 5540              		.loc 1 1193 0
 5541 05bc 0020     		movs	r0, #0
 5542 05be BDE8F087 		pop	{r4, r5, r6, r7, r8, r9, r10, pc}
 5543              	.LVL201:
 5544              	.L547:
 989:Drivers/STM32H7xx_HAL_Driver/Src/stm32h7xx_hal_dma.c ****   }
 5545              		.loc 1 989 0
 5546 05c2 0120     		movs	r0, #1
 5547              	.LVL202:
1194:Drivers/STM32H7xx_HAL_Driver/Src/stm32h7xx_hal_dma.c **** 
 5548              		.loc 1 1194 0
 5549 05c4 BDE8F087 		pop	{r4, r5, r6, r7, r8, r9, r10, pc}
 5550              	.LVL203:
 5551              	.L646:
 5552              		.align	2
 5553              	.L645:
 5554 05c8 28000240 		.word	1073872936
 5555 05cc 10000240 		.word	1073872912
 5556              		.cfi_endproc
 5557              	.LFE150:
 5559              		.section	.text.HAL_DMA_IRQHandler,"ax",%progbits
 5560              		.align	1
 5561              		.global	HAL_DMA_IRQHandler
 5562              		.syntax unified
 5563              		.thumb
 5564              		.thumb_func
ARM GAS  C:\Users\CompuTOP\AppData\Local\Temp\cc4hOfP8.s 			page 149


 5565              		.fpu fpv5-d16
 5567              	HAL_DMA_IRQHandler:
 5568              	.LFB151:
1203:Drivers/STM32H7xx_HAL_Driver/Src/stm32h7xx_hal_dma.c ****   uint32_t tmpisr_dma, tmpisr_bdma;
 5569              		.loc 1 1203 0
 5570              		.cfi_startproc
 5571              		@ args = 0, pretend = 0, frame = 8
 5572              		@ frame_needed = 0, uses_anonymous_args = 0
 5573              	.LVL204:
 5574 0000 F0B5     		push	{r4, r5, r6, r7, lr}
 5575              	.LCFI22:
 5576              		.cfi_def_cfa_offset 20
 5577              		.cfi_offset 4, -20
 5578              		.cfi_offset 5, -16
 5579              		.cfi_offset 6, -12
 5580              		.cfi_offset 7, -8
 5581              		.cfi_offset 14, -4
 5582 0002 83B0     		sub	sp, sp, #12
 5583              	.LCFI23:
 5584              		.cfi_def_cfa_offset 32
 5585 0004 0446     		mov	r4, r0
1206:Drivers/STM32H7xx_HAL_Driver/Src/stm32h7xx_hal_dma.c ****   uint32_t timeout = SystemCoreClock / 9600U;
 5586              		.loc 1 1206 0
 5587 0006 0023     		movs	r3, #0
 5588 0008 0193     		str	r3, [sp, #4]
1207:Drivers/STM32H7xx_HAL_Driver/Src/stm32h7xx_hal_dma.c **** 
 5589              		.loc 1 1207 0
 5590 000a 9A4B     		ldr	r3, .L730
 5591 000c 1D68     		ldr	r5, [r3]
 5592 000e 9A4B     		ldr	r3, .L730+4
 5593 0010 A3FB0535 		umull	r3, r5, r3, r5
 5594 0014 AD0A     		lsrs	r5, r5, #10
 5595              	.LVL205:
1210:Drivers/STM32H7xx_HAL_Driver/Src/stm32h7xx_hal_dma.c ****   BDMA_Base_Registers *regs_bdma = (BDMA_Base_Registers *)hdma->StreamBaseAddress;
 5596              		.loc 1 1210 0
 5597 0016 866D     		ldr	r6, [r0, #88]
 5598              	.LVL206:
1213:Drivers/STM32H7xx_HAL_Driver/Src/stm32h7xx_hal_dma.c ****   tmpisr_bdma = regs_bdma->ISR;
 5599              		.loc 1 1213 0
 5600 0018 3768     		ldr	r7, [r6]
 5601              	.LVL207:
1214:Drivers/STM32H7xx_HAL_Driver/Src/stm32h7xx_hal_dma.c **** 
 5602              		.loc 1 1214 0
 5603 001a 3068     		ldr	r0, [r6]
 5604              	.LVL208:
1216:Drivers/STM32H7xx_HAL_Driver/Src/stm32h7xx_hal_dma.c ****   {
 5605              		.loc 1 1216 0
 5606 001c 2368     		ldr	r3, [r4]
 5607 001e 9749     		ldr	r1, .L730+8
 5608 0020 974A     		ldr	r2, .L730+12
 5609 0022 9342     		cmp	r3, r2
 5610 0024 18BF     		it	ne
 5611 0026 8B42     		cmpne	r3, r1
 5612 0028 0CBF     		ite	eq
 5613 002a 0122     		moveq	r2, #1
 5614 002c 0022     		movne	r2, #0
 5615 002e 2ED0     		beq	.L705
ARM GAS  C:\Users\CompuTOP\AppData\Local\Temp\cc4hOfP8.s 			page 150


1216:Drivers/STM32H7xx_HAL_Driver/Src/stm32h7xx_hal_dma.c ****   {
 5616              		.loc 1 1216 0 is_stmt 0 discriminator 2
 5617 0030 3031     		adds	r1, r1, #48
 5618 0032 8B42     		cmp	r3, r1
 5619 0034 67D0     		beq	.L706
1216:Drivers/STM32H7xx_HAL_Driver/Src/stm32h7xx_hal_dma.c ****   {
 5620              		.loc 1 1216 0 discriminator 4
 5621 0036 1831     		adds	r1, r1, #24
 5622 0038 8B42     		cmp	r3, r1
 5623 003a 66D0     		beq	.L707
1216:Drivers/STM32H7xx_HAL_Driver/Src/stm32h7xx_hal_dma.c ****   {
 5624              		.loc 1 1216 0 discriminator 6
 5625 003c 1831     		adds	r1, r1, #24
 5626 003e 8B42     		cmp	r3, r1
 5627 0040 65D0     		beq	.L708
1216:Drivers/STM32H7xx_HAL_Driver/Src/stm32h7xx_hal_dma.c ****   {
 5628              		.loc 1 1216 0 discriminator 8
 5629 0042 1831     		adds	r1, r1, #24
 5630 0044 8B42     		cmp	r3, r1
 5631 0046 64D0     		beq	.L709
1216:Drivers/STM32H7xx_HAL_Driver/Src/stm32h7xx_hal_dma.c ****   {
 5632              		.loc 1 1216 0 discriminator 10
 5633 0048 1831     		adds	r1, r1, #24
 5634 004a 8B42     		cmp	r3, r1
 5635 004c 63D0     		beq	.L710
1216:Drivers/STM32H7xx_HAL_Driver/Src/stm32h7xx_hal_dma.c ****   {
 5636              		.loc 1 1216 0 discriminator 12
 5637 004e 1831     		adds	r1, r1, #24
 5638 0050 8B42     		cmp	r3, r1
 5639 0052 62D0     		beq	.L711
1216:Drivers/STM32H7xx_HAL_Driver/Src/stm32h7xx_hal_dma.c ****   {
 5640              		.loc 1 1216 0 discriminator 14
 5641 0054 01F55671 		add	r1, r1, #856
 5642 0058 8B42     		cmp	r3, r1
 5643 005a 60D0     		beq	.L712
1216:Drivers/STM32H7xx_HAL_Driver/Src/stm32h7xx_hal_dma.c ****   {
 5644              		.loc 1 1216 0 discriminator 16
 5645 005c 1831     		adds	r1, r1, #24
 5646 005e 8B42     		cmp	r3, r1
 5647 0060 5FD0     		beq	.L713
1216:Drivers/STM32H7xx_HAL_Driver/Src/stm32h7xx_hal_dma.c ****   {
 5648              		.loc 1 1216 0 discriminator 18
 5649 0062 1831     		adds	r1, r1, #24
 5650 0064 8B42     		cmp	r3, r1
 5651 0066 5ED0     		beq	.L714
1216:Drivers/STM32H7xx_HAL_Driver/Src/stm32h7xx_hal_dma.c ****   {
 5652              		.loc 1 1216 0 discriminator 20
 5653 0068 1831     		adds	r1, r1, #24
 5654 006a 8B42     		cmp	r3, r1
 5655 006c 5DD0     		beq	.L715
1216:Drivers/STM32H7xx_HAL_Driver/Src/stm32h7xx_hal_dma.c ****   {
 5656              		.loc 1 1216 0 discriminator 22
 5657 006e 1831     		adds	r1, r1, #24
 5658 0070 8B42     		cmp	r3, r1
 5659 0072 5CD0     		beq	.L716
1216:Drivers/STM32H7xx_HAL_Driver/Src/stm32h7xx_hal_dma.c ****   {
 5660              		.loc 1 1216 0 discriminator 24
ARM GAS  C:\Users\CompuTOP\AppData\Local\Temp\cc4hOfP8.s 			page 151


 5661 0074 1831     		adds	r1, r1, #24
 5662 0076 8B42     		cmp	r3, r1
 5663 0078 5BD0     		beq	.L717
1216:Drivers/STM32H7xx_HAL_Driver/Src/stm32h7xx_hal_dma.c ****   {
 5664              		.loc 1 1216 0 discriminator 26
 5665 007a 1831     		adds	r1, r1, #24
 5666 007c 8B42     		cmp	r3, r1
 5667 007e 5AD0     		beq	.L718
1216:Drivers/STM32H7xx_HAL_Driver/Src/stm32h7xx_hal_dma.c ****   {
 5668              		.loc 1 1216 0 discriminator 28
 5669 0080 1831     		adds	r1, r1, #24
 5670 0082 8B42     		cmp	r3, r1
 5671 0084 01D0     		beq	.L727
1216:Drivers/STM32H7xx_HAL_Driver/Src/stm32h7xx_hal_dma.c ****   {
 5672              		.loc 1 1216 0
 5673 0086 0021     		movs	r1, #0
 5674 0088 02E0     		b	.L648
 5675              	.L727:
 5676 008a 0121     		movs	r1, #1
 5677 008c 00E0     		b	.L648
 5678              	.L705:
 5679 008e 0121     		movs	r1, #1
 5680              	.L648:
1216:Drivers/STM32H7xx_HAL_Driver/Src/stm32h7xx_hal_dma.c ****   {
 5681              		.loc 1 1216 0 discriminator 32
 5682 0090 0029     		cmp	r1, #0
 5683 0092 00F06382 		beq	.L649
1219:Drivers/STM32H7xx_HAL_Driver/Src/stm32h7xx_hal_dma.c ****     {
 5684              		.loc 1 1219 0 is_stmt 1
 5685 0096 E16D     		ldr	r1, [r4, #92]
 5686 0098 01F01F00 		and	r0, r1, #31
 5687              	.LVL209:
 5688 009c 0821     		movs	r1, #8
 5689 009e 8140     		lsls	r1, r1, r0
 5690 00a0 0F42     		tst	r7, r1
 5691 00a2 5CD0     		beq	.L650
1221:Drivers/STM32H7xx_HAL_Driver/Src/stm32h7xx_hal_dma.c ****       {
 5692              		.loc 1 1221 0
 5693 00a4 002A     		cmp	r2, #0
 5694 00a6 48D1     		bne	.L651
1221:Drivers/STM32H7xx_HAL_Driver/Src/stm32h7xx_hal_dma.c ****       {
 5695              		.loc 1 1221 0 is_stmt 0 discriminator 2
 5696 00a8 764A     		ldr	r2, .L730+16
 5697 00aa 9342     		cmp	r3, r2
 5698 00ac 45D0     		beq	.L651
1221:Drivers/STM32H7xx_HAL_Driver/Src/stm32h7xx_hal_dma.c ****       {
 5699              		.loc 1 1221 0 discriminator 4
 5700 00ae 1832     		adds	r2, r2, #24
 5701 00b0 9342     		cmp	r3, r2
 5702 00b2 42D0     		beq	.L651
1221:Drivers/STM32H7xx_HAL_Driver/Src/stm32h7xx_hal_dma.c ****       {
 5703              		.loc 1 1221 0 discriminator 6
 5704 00b4 1832     		adds	r2, r2, #24
 5705 00b6 9342     		cmp	r3, r2
 5706 00b8 3FD0     		beq	.L651
1221:Drivers/STM32H7xx_HAL_Driver/Src/stm32h7xx_hal_dma.c ****       {
 5707              		.loc 1 1221 0 discriminator 8
ARM GAS  C:\Users\CompuTOP\AppData\Local\Temp\cc4hOfP8.s 			page 152


 5708 00ba 1832     		adds	r2, r2, #24
 5709 00bc 9342     		cmp	r3, r2
 5710 00be 3CD0     		beq	.L651
1221:Drivers/STM32H7xx_HAL_Driver/Src/stm32h7xx_hal_dma.c ****       {
 5711              		.loc 1 1221 0 discriminator 10
 5712 00c0 1832     		adds	r2, r2, #24
 5713 00c2 9342     		cmp	r3, r2
 5714 00c4 39D0     		beq	.L651
1221:Drivers/STM32H7xx_HAL_Driver/Src/stm32h7xx_hal_dma.c ****       {
 5715              		.loc 1 1221 0 discriminator 12
 5716 00c6 1832     		adds	r2, r2, #24
 5717 00c8 9342     		cmp	r3, r2
 5718 00ca 36D0     		beq	.L651
1221:Drivers/STM32H7xx_HAL_Driver/Src/stm32h7xx_hal_dma.c ****       {
 5719              		.loc 1 1221 0 discriminator 14
 5720 00cc 02F55672 		add	r2, r2, #856
 5721 00d0 9342     		cmp	r3, r2
 5722 00d2 32D0     		beq	.L651
1221:Drivers/STM32H7xx_HAL_Driver/Src/stm32h7xx_hal_dma.c ****       {
 5723              		.loc 1 1221 0 discriminator 16
 5724 00d4 1832     		adds	r2, r2, #24
 5725 00d6 9342     		cmp	r3, r2
 5726 00d8 2FD0     		beq	.L651
1221:Drivers/STM32H7xx_HAL_Driver/Src/stm32h7xx_hal_dma.c ****       {
 5727              		.loc 1 1221 0 discriminator 18
 5728 00da 1832     		adds	r2, r2, #24
 5729 00dc 9342     		cmp	r3, r2
 5730 00de 2CD0     		beq	.L651
1221:Drivers/STM32H7xx_HAL_Driver/Src/stm32h7xx_hal_dma.c ****       {
 5731              		.loc 1 1221 0 discriminator 20
 5732 00e0 1832     		adds	r2, r2, #24
 5733 00e2 9342     		cmp	r3, r2
 5734 00e4 29D0     		beq	.L651
1221:Drivers/STM32H7xx_HAL_Driver/Src/stm32h7xx_hal_dma.c ****       {
 5735              		.loc 1 1221 0 discriminator 22
 5736 00e6 1832     		adds	r2, r2, #24
 5737 00e8 9342     		cmp	r3, r2
 5738 00ea 26D0     		beq	.L651
1221:Drivers/STM32H7xx_HAL_Driver/Src/stm32h7xx_hal_dma.c ****       {
 5739              		.loc 1 1221 0 discriminator 24
 5740 00ec 1832     		adds	r2, r2, #24
 5741 00ee 9342     		cmp	r3, r2
 5742 00f0 23D0     		beq	.L651
1221:Drivers/STM32H7xx_HAL_Driver/Src/stm32h7xx_hal_dma.c ****       {
 5743              		.loc 1 1221 0 discriminator 26
 5744 00f2 1832     		adds	r2, r2, #24
 5745 00f4 9342     		cmp	r3, r2
 5746 00f6 20D0     		beq	.L651
1221:Drivers/STM32H7xx_HAL_Driver/Src/stm32h7xx_hal_dma.c ****       {
 5747              		.loc 1 1221 0 discriminator 28
 5748 00f8 1832     		adds	r2, r2, #24
 5749 00fa 9342     		cmp	r3, r2
 5750 00fc 1DD0     		beq	.L651
1221:Drivers/STM32H7xx_HAL_Driver/Src/stm32h7xx_hal_dma.c ****       {
 5751              		.loc 1 1221 0 discriminator 30
 5752 00fe 1A68     		ldr	r2, [r3]
 5753 0100 C2F3C002 		ubfx	r2, r2, #3, #1
ARM GAS  C:\Users\CompuTOP\AppData\Local\Temp\cc4hOfP8.s 			page 153


 5754 0104 1CE0     		b	.L653
 5755              	.LVL210:
 5756              	.L706:
1216:Drivers/STM32H7xx_HAL_Driver/Src/stm32h7xx_hal_dma.c ****   {
 5757              		.loc 1 1216 0 is_stmt 1
 5758 0106 0121     		movs	r1, #1
 5759 0108 C2E7     		b	.L648
 5760              	.L707:
 5761 010a 0121     		movs	r1, #1
 5762 010c C0E7     		b	.L648
 5763              	.L708:
 5764 010e 0121     		movs	r1, #1
 5765 0110 BEE7     		b	.L648
 5766              	.L709:
 5767 0112 0121     		movs	r1, #1
 5768 0114 BCE7     		b	.L648
 5769              	.L710:
 5770 0116 0121     		movs	r1, #1
 5771 0118 BAE7     		b	.L648
 5772              	.L711:
 5773 011a 0121     		movs	r1, #1
 5774 011c B8E7     		b	.L648
 5775              	.L712:
 5776 011e 0121     		movs	r1, #1
 5777 0120 B6E7     		b	.L648
 5778              	.L713:
 5779 0122 0121     		movs	r1, #1
 5780 0124 B4E7     		b	.L648
 5781              	.L714:
 5782 0126 0121     		movs	r1, #1
 5783 0128 B2E7     		b	.L648
 5784              	.L715:
 5785 012a 0121     		movs	r1, #1
 5786 012c B0E7     		b	.L648
 5787              	.L716:
 5788 012e 0121     		movs	r1, #1
 5789 0130 AEE7     		b	.L648
 5790              	.L717:
 5791 0132 0121     		movs	r1, #1
 5792 0134 ACE7     		b	.L648
 5793              	.L718:
 5794 0136 0121     		movs	r1, #1
 5795 0138 AAE7     		b	.L648
 5796              	.LVL211:
 5797              	.L651:
1221:Drivers/STM32H7xx_HAL_Driver/Src/stm32h7xx_hal_dma.c ****       {
 5798              		.loc 1 1221 0 discriminator 29
 5799 013a 1A68     		ldr	r2, [r3]
 5800 013c C2F38002 		ubfx	r2, r2, #2, #1
 5801              	.L653:
1221:Drivers/STM32H7xx_HAL_Driver/Src/stm32h7xx_hal_dma.c ****       {
 5802              		.loc 1 1221 0 is_stmt 0 discriminator 32
 5803 0140 6AB1     		cbz	r2, .L650
1224:Drivers/STM32H7xx_HAL_Driver/Src/stm32h7xx_hal_dma.c **** 
 5804              		.loc 1 1224 0 is_stmt 1
 5805 0142 1A68     		ldr	r2, [r3]
 5806 0144 22F00402 		bic	r2, r2, #4
ARM GAS  C:\Users\CompuTOP\AppData\Local\Temp\cc4hOfP8.s 			page 154


 5807 0148 1A60     		str	r2, [r3]
1227:Drivers/STM32H7xx_HAL_Driver/Src/stm32h7xx_hal_dma.c **** 
 5808              		.loc 1 1227 0
 5809 014a E36D     		ldr	r3, [r4, #92]
 5810 014c 03F01F02 		and	r2, r3, #31
 5811 0150 0823     		movs	r3, #8
 5812 0152 9340     		lsls	r3, r3, r2
 5813 0154 B360     		str	r3, [r6, #8]
1230:Drivers/STM32H7xx_HAL_Driver/Src/stm32h7xx_hal_dma.c ****       }
 5814              		.loc 1 1230 0
 5815 0156 636D     		ldr	r3, [r4, #84]
 5816 0158 43F00103 		orr	r3, r3, #1
 5817 015c 6365     		str	r3, [r4, #84]
 5818              	.L650:
1234:Drivers/STM32H7xx_HAL_Driver/Src/stm32h7xx_hal_dma.c ****     {
 5819              		.loc 1 1234 0
 5820 015e E26D     		ldr	r2, [r4, #92]
 5821 0160 02F01F02 		and	r2, r2, #31
 5822 0164 27FA02F3 		lsr	r3, r7, r2
 5823 0168 13F0010F 		tst	r3, #1
 5824 016c 42D0     		beq	.L654
1236:Drivers/STM32H7xx_HAL_Driver/Src/stm32h7xx_hal_dma.c ****       {
 5825              		.loc 1 1236 0
 5826 016e 2368     		ldr	r3, [r4]
 5827 0170 4248     		ldr	r0, .L730+8
 5828 0172 4349     		ldr	r1, .L730+12
 5829 0174 8B42     		cmp	r3, r1
 5830 0176 18BF     		it	ne
 5831 0178 8342     		cmpne	r3, r0
 5832 017a 0CBF     		ite	eq
 5833 017c 0121     		moveq	r1, #1
 5834 017e 0021     		movne	r1, #0
 5835 0180 2CD0     		beq	.L655
1236:Drivers/STM32H7xx_HAL_Driver/Src/stm32h7xx_hal_dma.c ****       {
 5836              		.loc 1 1236 0 is_stmt 0 discriminator 2
 5837 0182 3030     		adds	r0, r0, #48
 5838 0184 8342     		cmp	r3, r0
 5839 0186 29D0     		beq	.L655
1236:Drivers/STM32H7xx_HAL_Driver/Src/stm32h7xx_hal_dma.c ****       {
 5840              		.loc 1 1236 0 discriminator 4
 5841 0188 1830     		adds	r0, r0, #24
 5842 018a 8342     		cmp	r3, r0
 5843 018c 26D0     		beq	.L655
1236:Drivers/STM32H7xx_HAL_Driver/Src/stm32h7xx_hal_dma.c ****       {
 5844              		.loc 1 1236 0 discriminator 6
 5845 018e 1830     		adds	r0, r0, #24
 5846 0190 8342     		cmp	r3, r0
 5847 0192 23D0     		beq	.L655
1236:Drivers/STM32H7xx_HAL_Driver/Src/stm32h7xx_hal_dma.c ****       {
 5848              		.loc 1 1236 0 discriminator 8
 5849 0194 1830     		adds	r0, r0, #24
 5850 0196 8342     		cmp	r3, r0
 5851 0198 20D0     		beq	.L655
1236:Drivers/STM32H7xx_HAL_Driver/Src/stm32h7xx_hal_dma.c ****       {
 5852              		.loc 1 1236 0 discriminator 10
 5853 019a 1830     		adds	r0, r0, #24
 5854 019c 8342     		cmp	r3, r0
ARM GAS  C:\Users\CompuTOP\AppData\Local\Temp\cc4hOfP8.s 			page 155


 5855 019e 1DD0     		beq	.L655
1236:Drivers/STM32H7xx_HAL_Driver/Src/stm32h7xx_hal_dma.c ****       {
 5856              		.loc 1 1236 0 discriminator 12
 5857 01a0 1830     		adds	r0, r0, #24
 5858 01a2 8342     		cmp	r3, r0
 5859 01a4 1AD0     		beq	.L655
1236:Drivers/STM32H7xx_HAL_Driver/Src/stm32h7xx_hal_dma.c ****       {
 5860              		.loc 1 1236 0 discriminator 14
 5861 01a6 00F55670 		add	r0, r0, #856
 5862 01aa 8342     		cmp	r3, r0
 5863 01ac 16D0     		beq	.L655
1236:Drivers/STM32H7xx_HAL_Driver/Src/stm32h7xx_hal_dma.c ****       {
 5864              		.loc 1 1236 0 discriminator 16
 5865 01ae 1830     		adds	r0, r0, #24
 5866 01b0 8342     		cmp	r3, r0
 5867 01b2 13D0     		beq	.L655
1236:Drivers/STM32H7xx_HAL_Driver/Src/stm32h7xx_hal_dma.c ****       {
 5868              		.loc 1 1236 0 discriminator 18
 5869 01b4 1830     		adds	r0, r0, #24
 5870 01b6 8342     		cmp	r3, r0
 5871 01b8 10D0     		beq	.L655
1236:Drivers/STM32H7xx_HAL_Driver/Src/stm32h7xx_hal_dma.c ****       {
 5872              		.loc 1 1236 0 discriminator 20
 5873 01ba 1830     		adds	r0, r0, #24
 5874 01bc 8342     		cmp	r3, r0
 5875 01be 0DD0     		beq	.L655
1236:Drivers/STM32H7xx_HAL_Driver/Src/stm32h7xx_hal_dma.c ****       {
 5876              		.loc 1 1236 0 discriminator 22
 5877 01c0 1830     		adds	r0, r0, #24
 5878 01c2 8342     		cmp	r3, r0
 5879 01c4 0AD0     		beq	.L655
1236:Drivers/STM32H7xx_HAL_Driver/Src/stm32h7xx_hal_dma.c ****       {
 5880              		.loc 1 1236 0 discriminator 24
 5881 01c6 1830     		adds	r0, r0, #24
 5882 01c8 8342     		cmp	r3, r0
 5883 01ca 07D0     		beq	.L655
1236:Drivers/STM32H7xx_HAL_Driver/Src/stm32h7xx_hal_dma.c ****       {
 5884              		.loc 1 1236 0 discriminator 26
 5885 01cc 1830     		adds	r0, r0, #24
 5886 01ce 8342     		cmp	r3, r0
 5887 01d0 04D0     		beq	.L655
1236:Drivers/STM32H7xx_HAL_Driver/Src/stm32h7xx_hal_dma.c ****       {
 5888              		.loc 1 1236 0 discriminator 28
 5889 01d2 1830     		adds	r0, r0, #24
 5890 01d4 8342     		cmp	r3, r0
 5891 01d6 01D0     		beq	.L655
1236:Drivers/STM32H7xx_HAL_Driver/Src/stm32h7xx_hal_dma.c ****       {
 5892              		.loc 1 1236 0 discriminator 30
 5893 01d8 1B68     		ldr	r3, [r3]
 5894 01da 02E0     		b	.L657
 5895              	.L655:
1236:Drivers/STM32H7xx_HAL_Driver/Src/stm32h7xx_hal_dma.c ****       {
 5896              		.loc 1 1236 0 discriminator 29
 5897 01dc 5969     		ldr	r1, [r3, #20]
 5898 01de C1F3C011 		ubfx	r1, r1, #7, #1
 5899              	.L657:
1236:Drivers/STM32H7xx_HAL_Driver/Src/stm32h7xx_hal_dma.c ****       {
ARM GAS  C:\Users\CompuTOP\AppData\Local\Temp\cc4hOfP8.s 			page 156


 5900              		.loc 1 1236 0 discriminator 32
 5901 01e2 39B1     		cbz	r1, .L654
1239:Drivers/STM32H7xx_HAL_Driver/Src/stm32h7xx_hal_dma.c **** 
 5902              		.loc 1 1239 0 is_stmt 1
 5903 01e4 0123     		movs	r3, #1
 5904 01e6 03FA02F2 		lsl	r2, r3, r2
 5905 01ea B260     		str	r2, [r6, #8]
1242:Drivers/STM32H7xx_HAL_Driver/Src/stm32h7xx_hal_dma.c ****       }
 5906              		.loc 1 1242 0
 5907 01ec 636D     		ldr	r3, [r4, #84]
 5908 01ee 43F00203 		orr	r3, r3, #2
 5909 01f2 6365     		str	r3, [r4, #84]
 5910              	.L654:
1246:Drivers/STM32H7xx_HAL_Driver/Src/stm32h7xx_hal_dma.c ****     {
 5911              		.loc 1 1246 0
 5912 01f4 E26D     		ldr	r2, [r4, #92]
 5913 01f6 02F01F02 		and	r2, r2, #31
 5914 01fa 0423     		movs	r3, #4
 5915 01fc 03FA02F2 		lsl	r2, r3, r2
 5916 0200 1742     		tst	r7, r2
 5917 0202 4AD0     		beq	.L658
1248:Drivers/STM32H7xx_HAL_Driver/Src/stm32h7xx_hal_dma.c ****       {
 5918              		.loc 1 1248 0
 5919 0204 2368     		ldr	r3, [r4]
 5920 0206 1D48     		ldr	r0, .L730+8
 5921 0208 1D49     		ldr	r1, .L730+12
 5922 020a 8B42     		cmp	r3, r1
 5923 020c 18BF     		it	ne
 5924 020e 8342     		cmpne	r3, r0
 5925 0210 0CBF     		ite	eq
 5926 0212 0121     		moveq	r1, #1
 5927 0214 0021     		movne	r1, #0
 5928 0216 37D0     		beq	.L659
1248:Drivers/STM32H7xx_HAL_Driver/Src/stm32h7xx_hal_dma.c ****       {
 5929              		.loc 1 1248 0 is_stmt 0 discriminator 2
 5930 0218 3030     		adds	r0, r0, #48
 5931 021a 8342     		cmp	r3, r0
 5932 021c 34D0     		beq	.L659
1248:Drivers/STM32H7xx_HAL_Driver/Src/stm32h7xx_hal_dma.c ****       {
 5933              		.loc 1 1248 0 discriminator 4
 5934 021e 1830     		adds	r0, r0, #24
 5935 0220 8342     		cmp	r3, r0
 5936 0222 31D0     		beq	.L659
1248:Drivers/STM32H7xx_HAL_Driver/Src/stm32h7xx_hal_dma.c ****       {
 5937              		.loc 1 1248 0 discriminator 6
 5938 0224 1830     		adds	r0, r0, #24
 5939 0226 8342     		cmp	r3, r0
 5940 0228 2ED0     		beq	.L659
1248:Drivers/STM32H7xx_HAL_Driver/Src/stm32h7xx_hal_dma.c ****       {
 5941              		.loc 1 1248 0 discriminator 8
 5942 022a 1830     		adds	r0, r0, #24
 5943 022c 8342     		cmp	r3, r0
 5944 022e 2BD0     		beq	.L659
1248:Drivers/STM32H7xx_HAL_Driver/Src/stm32h7xx_hal_dma.c ****       {
 5945              		.loc 1 1248 0 discriminator 10
 5946 0230 1830     		adds	r0, r0, #24
 5947 0232 8342     		cmp	r3, r0
ARM GAS  C:\Users\CompuTOP\AppData\Local\Temp\cc4hOfP8.s 			page 157


 5948 0234 28D0     		beq	.L659
1248:Drivers/STM32H7xx_HAL_Driver/Src/stm32h7xx_hal_dma.c ****       {
 5949              		.loc 1 1248 0 discriminator 12
 5950 0236 1830     		adds	r0, r0, #24
 5951 0238 8342     		cmp	r3, r0
 5952 023a 25D0     		beq	.L659
1248:Drivers/STM32H7xx_HAL_Driver/Src/stm32h7xx_hal_dma.c ****       {
 5953              		.loc 1 1248 0 discriminator 14
 5954 023c 00F55670 		add	r0, r0, #856
 5955 0240 8342     		cmp	r3, r0
 5956 0242 21D0     		beq	.L659
1248:Drivers/STM32H7xx_HAL_Driver/Src/stm32h7xx_hal_dma.c ****       {
 5957              		.loc 1 1248 0 discriminator 16
 5958 0244 1830     		adds	r0, r0, #24
 5959 0246 8342     		cmp	r3, r0
 5960 0248 1ED0     		beq	.L659
1248:Drivers/STM32H7xx_HAL_Driver/Src/stm32h7xx_hal_dma.c ****       {
 5961              		.loc 1 1248 0 discriminator 18
 5962 024a 1830     		adds	r0, r0, #24
 5963 024c 8342     		cmp	r3, r0
 5964 024e 1BD0     		beq	.L659
1248:Drivers/STM32H7xx_HAL_Driver/Src/stm32h7xx_hal_dma.c ****       {
 5965              		.loc 1 1248 0 discriminator 20
 5966 0250 1830     		adds	r0, r0, #24
 5967 0252 8342     		cmp	r3, r0
 5968 0254 18D0     		beq	.L659
1248:Drivers/STM32H7xx_HAL_Driver/Src/stm32h7xx_hal_dma.c ****       {
 5969              		.loc 1 1248 0 discriminator 22
 5970 0256 1830     		adds	r0, r0, #24
 5971 0258 8342     		cmp	r3, r0
 5972 025a 15D0     		beq	.L659
1248:Drivers/STM32H7xx_HAL_Driver/Src/stm32h7xx_hal_dma.c ****       {
 5973              		.loc 1 1248 0 discriminator 24
 5974 025c 1830     		adds	r0, r0, #24
 5975 025e 8342     		cmp	r3, r0
 5976 0260 12D0     		beq	.L659
1248:Drivers/STM32H7xx_HAL_Driver/Src/stm32h7xx_hal_dma.c ****       {
 5977              		.loc 1 1248 0 discriminator 26
 5978 0262 1830     		adds	r0, r0, #24
 5979 0264 8342     		cmp	r3, r0
 5980 0266 0FD0     		beq	.L659
1248:Drivers/STM32H7xx_HAL_Driver/Src/stm32h7xx_hal_dma.c ****       {
 5981              		.loc 1 1248 0 discriminator 28
 5982 0268 1830     		adds	r0, r0, #24
 5983 026a 8342     		cmp	r3, r0
 5984 026c 0CD0     		beq	.L659
1248:Drivers/STM32H7xx_HAL_Driver/Src/stm32h7xx_hal_dma.c ****       {
 5985              		.loc 1 1248 0 discriminator 30
 5986 026e 1B68     		ldr	r3, [r3]
 5987 0270 0DE0     		b	.L661
 5988              	.L731:
 5989 0272 00BF     		.align	2
 5990              	.L730:
 5991 0274 00000000 		.word	SystemCoreClock
 5992 0278 B5814E1B 		.word	458129845
 5993 027c 10000240 		.word	1073872912
 5994 0280 28000240 		.word	1073872936
ARM GAS  C:\Users\CompuTOP\AppData\Local\Temp\cc4hOfP8.s 			page 158


 5995 0284 40000240 		.word	1073872960
 5996              	.L659:
1248:Drivers/STM32H7xx_HAL_Driver/Src/stm32h7xx_hal_dma.c ****       {
 5997              		.loc 1 1248 0 discriminator 29
 5998 0288 1968     		ldr	r1, [r3]
 5999 028a C1F34001 		ubfx	r1, r1, #1, #1
 6000              	.L661:
1248:Drivers/STM32H7xx_HAL_Driver/Src/stm32h7xx_hal_dma.c ****       {
 6001              		.loc 1 1248 0 discriminator 32
 6002 028e 21B1     		cbz	r1, .L658
1251:Drivers/STM32H7xx_HAL_Driver/Src/stm32h7xx_hal_dma.c **** 
 6003              		.loc 1 1251 0 is_stmt 1
 6004 0290 B260     		str	r2, [r6, #8]
1254:Drivers/STM32H7xx_HAL_Driver/Src/stm32h7xx_hal_dma.c ****       }
 6005              		.loc 1 1254 0
 6006 0292 636D     		ldr	r3, [r4, #84]
 6007 0294 43F00403 		orr	r3, r3, #4
 6008 0298 6365     		str	r3, [r4, #84]
 6009              	.L658:
1258:Drivers/STM32H7xx_HAL_Driver/Src/stm32h7xx_hal_dma.c ****     {
 6010              		.loc 1 1258 0
 6011 029a E36D     		ldr	r3, [r4, #92]
 6012 029c 03F01F03 		and	r3, r3, #31
 6013 02a0 1022     		movs	r2, #16
 6014 02a2 02FA03F3 		lsl	r3, r2, r3
 6015 02a6 1F42     		tst	r7, r3
 6016 02a8 59D0     		beq	.L662
1260:Drivers/STM32H7xx_HAL_Driver/Src/stm32h7xx_hal_dma.c ****       {
 6017              		.loc 1 1260 0
 6018 02aa 2068     		ldr	r0, [r4]
 6019 02ac A74A     		ldr	r2, .L732
 6020 02ae A849     		ldr	r1, .L732+4
 6021 02b0 9042     		cmp	r0, r2
 6022 02b2 18BF     		it	ne
 6023 02b4 8842     		cmpne	r0, r1
 6024 02b6 2ED0     		beq	.L663
1260:Drivers/STM32H7xx_HAL_Driver/Src/stm32h7xx_hal_dma.c ****       {
 6025              		.loc 1 1260 0 is_stmt 0 discriminator 2
 6026 02b8 1832     		adds	r2, r2, #24
 6027 02ba 9042     		cmp	r0, r2
 6028 02bc 2BD0     		beq	.L663
1260:Drivers/STM32H7xx_HAL_Driver/Src/stm32h7xx_hal_dma.c ****       {
 6029              		.loc 1 1260 0 discriminator 4
 6030 02be 1832     		adds	r2, r2, #24
 6031 02c0 9042     		cmp	r0, r2
 6032 02c2 28D0     		beq	.L663
1260:Drivers/STM32H7xx_HAL_Driver/Src/stm32h7xx_hal_dma.c ****       {
 6033              		.loc 1 1260 0 discriminator 6
 6034 02c4 1832     		adds	r2, r2, #24
 6035 02c6 9042     		cmp	r0, r2
 6036 02c8 25D0     		beq	.L663
1260:Drivers/STM32H7xx_HAL_Driver/Src/stm32h7xx_hal_dma.c ****       {
 6037              		.loc 1 1260 0 discriminator 8
 6038 02ca 1832     		adds	r2, r2, #24
 6039 02cc 9042     		cmp	r0, r2
 6040 02ce 22D0     		beq	.L663
1260:Drivers/STM32H7xx_HAL_Driver/Src/stm32h7xx_hal_dma.c ****       {
ARM GAS  C:\Users\CompuTOP\AppData\Local\Temp\cc4hOfP8.s 			page 159


 6041              		.loc 1 1260 0 discriminator 10
 6042 02d0 1832     		adds	r2, r2, #24
 6043 02d2 9042     		cmp	r0, r2
 6044 02d4 1FD0     		beq	.L663
1260:Drivers/STM32H7xx_HAL_Driver/Src/stm32h7xx_hal_dma.c ****       {
 6045              		.loc 1 1260 0 discriminator 12
 6046 02d6 1832     		adds	r2, r2, #24
 6047 02d8 9042     		cmp	r0, r2
 6048 02da 1CD0     		beq	.L663
1260:Drivers/STM32H7xx_HAL_Driver/Src/stm32h7xx_hal_dma.c ****       {
 6049              		.loc 1 1260 0 discriminator 14
 6050 02dc 02F55672 		add	r2, r2, #856
 6051 02e0 9042     		cmp	r0, r2
 6052 02e2 18D0     		beq	.L663
1260:Drivers/STM32H7xx_HAL_Driver/Src/stm32h7xx_hal_dma.c ****       {
 6053              		.loc 1 1260 0 discriminator 16
 6054 02e4 1832     		adds	r2, r2, #24
 6055 02e6 9042     		cmp	r0, r2
 6056 02e8 15D0     		beq	.L663
1260:Drivers/STM32H7xx_HAL_Driver/Src/stm32h7xx_hal_dma.c ****       {
 6057              		.loc 1 1260 0 discriminator 18
 6058 02ea 1832     		adds	r2, r2, #24
 6059 02ec 9042     		cmp	r0, r2
 6060 02ee 12D0     		beq	.L663
1260:Drivers/STM32H7xx_HAL_Driver/Src/stm32h7xx_hal_dma.c ****       {
 6061              		.loc 1 1260 0 discriminator 20
 6062 02f0 1832     		adds	r2, r2, #24
 6063 02f2 9042     		cmp	r0, r2
 6064 02f4 0FD0     		beq	.L663
1260:Drivers/STM32H7xx_HAL_Driver/Src/stm32h7xx_hal_dma.c ****       {
 6065              		.loc 1 1260 0 discriminator 22
 6066 02f6 1832     		adds	r2, r2, #24
 6067 02f8 9042     		cmp	r0, r2
 6068 02fa 0CD0     		beq	.L663
1260:Drivers/STM32H7xx_HAL_Driver/Src/stm32h7xx_hal_dma.c ****       {
 6069              		.loc 1 1260 0 discriminator 24
 6070 02fc 1832     		adds	r2, r2, #24
 6071 02fe 9042     		cmp	r0, r2
 6072 0300 09D0     		beq	.L663
1260:Drivers/STM32H7xx_HAL_Driver/Src/stm32h7xx_hal_dma.c ****       {
 6073              		.loc 1 1260 0 discriminator 26
 6074 0302 1832     		adds	r2, r2, #24
 6075 0304 9042     		cmp	r0, r2
 6076 0306 06D0     		beq	.L663
1260:Drivers/STM32H7xx_HAL_Driver/Src/stm32h7xx_hal_dma.c ****       {
 6077              		.loc 1 1260 0 discriminator 28
 6078 0308 1832     		adds	r2, r2, #24
 6079 030a 9042     		cmp	r0, r2
 6080 030c 03D0     		beq	.L663
1260:Drivers/STM32H7xx_HAL_Driver/Src/stm32h7xx_hal_dma.c ****       {
 6081              		.loc 1 1260 0 discriminator 30
 6082 030e 0268     		ldr	r2, [r0]
 6083 0310 C2F38002 		ubfx	r2, r2, #2, #1
 6084 0314 02E0     		b	.L665
 6085              	.L663:
1260:Drivers/STM32H7xx_HAL_Driver/Src/stm32h7xx_hal_dma.c ****       {
 6086              		.loc 1 1260 0 discriminator 29
ARM GAS  C:\Users\CompuTOP\AppData\Local\Temp\cc4hOfP8.s 			page 160


 6087 0316 0268     		ldr	r2, [r0]
 6088 0318 C2F3C002 		ubfx	r2, r2, #3, #1
 6089              	.L665:
1260:Drivers/STM32H7xx_HAL_Driver/Src/stm32h7xx_hal_dma.c ****       {
 6090              		.loc 1 1260 0 discriminator 32
 6091 031c FAB1     		cbz	r2, .L662
1263:Drivers/STM32H7xx_HAL_Driver/Src/stm32h7xx_hal_dma.c **** 
 6092              		.loc 1 1263 0 is_stmt 1
 6093 031e B360     		str	r3, [r6, #8]
1266:Drivers/STM32H7xx_HAL_Driver/Src/stm32h7xx_hal_dma.c ****         {
 6094              		.loc 1 1266 0
 6095 0320 2368     		ldr	r3, [r4]
 6096 0322 1A68     		ldr	r2, [r3]
 6097 0324 12F4802F 		tst	r2, #262144
 6098 0328 0DD0     		beq	.L666
1269:Drivers/STM32H7xx_HAL_Driver/Src/stm32h7xx_hal_dma.c ****           {
 6099              		.loc 1 1269 0
 6100 032a 1B68     		ldr	r3, [r3]
 6101 032c 13F4002F 		tst	r3, #524288
 6102 0330 04D1     		bne	.L667
1271:Drivers/STM32H7xx_HAL_Driver/Src/stm32h7xx_hal_dma.c ****             {
 6103              		.loc 1 1271 0
 6104 0332 236C     		ldr	r3, [r4, #64]
 6105 0334 9BB1     		cbz	r3, .L662
1274:Drivers/STM32H7xx_HAL_Driver/Src/stm32h7xx_hal_dma.c ****             }
 6106              		.loc 1 1274 0
 6107 0336 2046     		mov	r0, r4
 6108 0338 9847     		blx	r3
 6109              	.LVL212:
 6110 033a 10E0     		b	.L662
 6111              	.L667:
1280:Drivers/STM32H7xx_HAL_Driver/Src/stm32h7xx_hal_dma.c ****             {
 6112              		.loc 1 1280 0
 6113 033c A36C     		ldr	r3, [r4, #72]
 6114 033e 73B1     		cbz	r3, .L662
1283:Drivers/STM32H7xx_HAL_Driver/Src/stm32h7xx_hal_dma.c ****             }
 6115              		.loc 1 1283 0
 6116 0340 2046     		mov	r0, r4
 6117 0342 9847     		blx	r3
 6118              	.LVL213:
 6119 0344 0BE0     		b	.L662
 6120              	.L666:
1290:Drivers/STM32H7xx_HAL_Driver/Src/stm32h7xx_hal_dma.c ****           {
 6121              		.loc 1 1290 0
 6122 0346 1A68     		ldr	r2, [r3]
 6123 0348 12F4807F 		tst	r2, #256
 6124 034c 03D1     		bne	.L668
1293:Drivers/STM32H7xx_HAL_Driver/Src/stm32h7xx_hal_dma.c ****           }
 6125              		.loc 1 1293 0
 6126 034e 1A68     		ldr	r2, [r3]
 6127 0350 22F00802 		bic	r2, r2, #8
 6128 0354 1A60     		str	r2, [r3]
 6129              	.L668:
1296:Drivers/STM32H7xx_HAL_Driver/Src/stm32h7xx_hal_dma.c ****           {
 6130              		.loc 1 1296 0
 6131 0356 236C     		ldr	r3, [r4, #64]
 6132 0358 0BB1     		cbz	r3, .L662
ARM GAS  C:\Users\CompuTOP\AppData\Local\Temp\cc4hOfP8.s 			page 161


1299:Drivers/STM32H7xx_HAL_Driver/Src/stm32h7xx_hal_dma.c ****           }
 6133              		.loc 1 1299 0
 6134 035a 2046     		mov	r0, r4
 6135 035c 9847     		blx	r3
 6136              	.LVL214:
 6137              	.L662:
1305:Drivers/STM32H7xx_HAL_Driver/Src/stm32h7xx_hal_dma.c ****     {
 6138              		.loc 1 1305 0
 6139 035e E36D     		ldr	r3, [r4, #92]
 6140 0360 03F01F03 		and	r3, r3, #31
 6141 0364 2022     		movs	r2, #32
 6142 0366 02FA03F3 		lsl	r3, r2, r3
 6143 036a 1F42     		tst	r7, r3
 6144 036c 00F08E80 		beq	.L669
1307:Drivers/STM32H7xx_HAL_Driver/Src/stm32h7xx_hal_dma.c ****       {
 6145              		.loc 1 1307 0
 6146 0370 2068     		ldr	r0, [r4]
 6147 0372 764A     		ldr	r2, .L732
 6148 0374 7649     		ldr	r1, .L732+4
 6149 0376 9042     		cmp	r0, r2
 6150 0378 18BF     		it	ne
 6151 037a 8842     		cmpne	r0, r1
 6152 037c 2ED0     		beq	.L670
1307:Drivers/STM32H7xx_HAL_Driver/Src/stm32h7xx_hal_dma.c ****       {
 6153              		.loc 1 1307 0 is_stmt 0 discriminator 2
 6154 037e 1832     		adds	r2, r2, #24
 6155 0380 9042     		cmp	r0, r2
 6156 0382 2BD0     		beq	.L670
1307:Drivers/STM32H7xx_HAL_Driver/Src/stm32h7xx_hal_dma.c ****       {
 6157              		.loc 1 1307 0 discriminator 4
 6158 0384 1832     		adds	r2, r2, #24
 6159 0386 9042     		cmp	r0, r2
 6160 0388 28D0     		beq	.L670
1307:Drivers/STM32H7xx_HAL_Driver/Src/stm32h7xx_hal_dma.c ****       {
 6161              		.loc 1 1307 0 discriminator 6
 6162 038a 1832     		adds	r2, r2, #24
 6163 038c 9042     		cmp	r0, r2
 6164 038e 25D0     		beq	.L670
1307:Drivers/STM32H7xx_HAL_Driver/Src/stm32h7xx_hal_dma.c ****       {
 6165              		.loc 1 1307 0 discriminator 8
 6166 0390 1832     		adds	r2, r2, #24
 6167 0392 9042     		cmp	r0, r2
 6168 0394 22D0     		beq	.L670
1307:Drivers/STM32H7xx_HAL_Driver/Src/stm32h7xx_hal_dma.c ****       {
 6169              		.loc 1 1307 0 discriminator 10
 6170 0396 1832     		adds	r2, r2, #24
 6171 0398 9042     		cmp	r0, r2
 6172 039a 1FD0     		beq	.L670
1307:Drivers/STM32H7xx_HAL_Driver/Src/stm32h7xx_hal_dma.c ****       {
 6173              		.loc 1 1307 0 discriminator 12
 6174 039c 1832     		adds	r2, r2, #24
 6175 039e 9042     		cmp	r0, r2
 6176 03a0 1CD0     		beq	.L670
1307:Drivers/STM32H7xx_HAL_Driver/Src/stm32h7xx_hal_dma.c ****       {
 6177              		.loc 1 1307 0 discriminator 14
 6178 03a2 02F55672 		add	r2, r2, #856
 6179 03a6 9042     		cmp	r0, r2
ARM GAS  C:\Users\CompuTOP\AppData\Local\Temp\cc4hOfP8.s 			page 162


 6180 03a8 18D0     		beq	.L670
1307:Drivers/STM32H7xx_HAL_Driver/Src/stm32h7xx_hal_dma.c ****       {
 6181              		.loc 1 1307 0 discriminator 16
 6182 03aa 1832     		adds	r2, r2, #24
 6183 03ac 9042     		cmp	r0, r2
 6184 03ae 15D0     		beq	.L670
1307:Drivers/STM32H7xx_HAL_Driver/Src/stm32h7xx_hal_dma.c ****       {
 6185              		.loc 1 1307 0 discriminator 18
 6186 03b0 1832     		adds	r2, r2, #24
 6187 03b2 9042     		cmp	r0, r2
 6188 03b4 12D0     		beq	.L670
1307:Drivers/STM32H7xx_HAL_Driver/Src/stm32h7xx_hal_dma.c ****       {
 6189              		.loc 1 1307 0 discriminator 20
 6190 03b6 1832     		adds	r2, r2, #24
 6191 03b8 9042     		cmp	r0, r2
 6192 03ba 0FD0     		beq	.L670
1307:Drivers/STM32H7xx_HAL_Driver/Src/stm32h7xx_hal_dma.c ****       {
 6193              		.loc 1 1307 0 discriminator 22
 6194 03bc 1832     		adds	r2, r2, #24
 6195 03be 9042     		cmp	r0, r2
 6196 03c0 0CD0     		beq	.L670
1307:Drivers/STM32H7xx_HAL_Driver/Src/stm32h7xx_hal_dma.c ****       {
 6197              		.loc 1 1307 0 discriminator 24
 6198 03c2 1832     		adds	r2, r2, #24
 6199 03c4 9042     		cmp	r0, r2
 6200 03c6 09D0     		beq	.L670
1307:Drivers/STM32H7xx_HAL_Driver/Src/stm32h7xx_hal_dma.c ****       {
 6201              		.loc 1 1307 0 discriminator 26
 6202 03c8 1832     		adds	r2, r2, #24
 6203 03ca 9042     		cmp	r0, r2
 6204 03cc 06D0     		beq	.L670
1307:Drivers/STM32H7xx_HAL_Driver/Src/stm32h7xx_hal_dma.c ****       {
 6205              		.loc 1 1307 0 discriminator 28
 6206 03ce 1832     		adds	r2, r2, #24
 6207 03d0 9042     		cmp	r0, r2
 6208 03d2 03D0     		beq	.L670
1307:Drivers/STM32H7xx_HAL_Driver/Src/stm32h7xx_hal_dma.c ****       {
 6209              		.loc 1 1307 0 discriminator 30
 6210 03d4 0268     		ldr	r2, [r0]
 6211 03d6 C2F34002 		ubfx	r2, r2, #1, #1
 6212 03da 02E0     		b	.L672
 6213              	.L670:
1307:Drivers/STM32H7xx_HAL_Driver/Src/stm32h7xx_hal_dma.c ****       {
 6214              		.loc 1 1307 0 discriminator 29
 6215 03dc 0268     		ldr	r2, [r0]
 6216 03de C2F30012 		ubfx	r2, r2, #4, #1
 6217              	.L672:
1307:Drivers/STM32H7xx_HAL_Driver/Src/stm32h7xx_hal_dma.c ****       {
 6218              		.loc 1 1307 0 discriminator 32
 6219 03e2 002A     		cmp	r2, #0
 6220 03e4 52D0     		beq	.L669
1310:Drivers/STM32H7xx_HAL_Driver/Src/stm32h7xx_hal_dma.c **** 
 6221              		.loc 1 1310 0 is_stmt 1
 6222 03e6 B360     		str	r3, [r6, #8]
1312:Drivers/STM32H7xx_HAL_Driver/Src/stm32h7xx_hal_dma.c ****         {
 6223              		.loc 1 1312 0
 6224 03e8 94F83530 		ldrb	r3, [r4, #53]	@ zero_extendqisi2
ARM GAS  C:\Users\CompuTOP\AppData\Local\Temp\cc4hOfP8.s 			page 163


 6225 03ec DBB2     		uxtb	r3, r3
 6226 03ee 042B     		cmp	r3, #4
 6227 03f0 0ED0     		beq	.L728
1339:Drivers/STM32H7xx_HAL_Driver/Src/stm32h7xx_hal_dma.c ****         {
 6228              		.loc 1 1339 0
 6229 03f2 2368     		ldr	r3, [r4]
 6230 03f4 1A68     		ldr	r2, [r3]
 6231 03f6 12F4802F 		tst	r2, #262144
 6232 03fa 35D0     		beq	.L677
1342:Drivers/STM32H7xx_HAL_Driver/Src/stm32h7xx_hal_dma.c ****           {
 6233              		.loc 1 1342 0
 6234 03fc 1B68     		ldr	r3, [r3]
 6235 03fe 13F4002F 		tst	r3, #524288
 6236 0402 2CD1     		bne	.L678
1344:Drivers/STM32H7xx_HAL_Driver/Src/stm32h7xx_hal_dma.c ****             {
 6237              		.loc 1 1344 0
 6238 0404 636C     		ldr	r3, [r4, #68]
 6239 0406 002B     		cmp	r3, #0
 6240 0408 40D0     		beq	.L669
1347:Drivers/STM32H7xx_HAL_Driver/Src/stm32h7xx_hal_dma.c ****             }
 6241              		.loc 1 1347 0
 6242 040a 2046     		mov	r0, r4
 6243 040c 9847     		blx	r3
 6244              	.LVL215:
 6245 040e 3DE0     		b	.L669
 6246              	.L728:
1315:Drivers/STM32H7xx_HAL_Driver/Src/stm32h7xx_hal_dma.c ****           ((DMA_Stream_TypeDef   *)hdma->Instance)->FCR &= ~(DMA_IT_FE);
 6247              		.loc 1 1315 0
 6248 0410 2268     		ldr	r2, [r4]
 6249 0412 1368     		ldr	r3, [r2]
 6250 0414 23F01603 		bic	r3, r3, #22
 6251 0418 1360     		str	r3, [r2]
1316:Drivers/STM32H7xx_HAL_Driver/Src/stm32h7xx_hal_dma.c **** 
 6252              		.loc 1 1316 0
 6253 041a 2268     		ldr	r2, [r4]
 6254 041c 5369     		ldr	r3, [r2, #20]
 6255 041e 23F08003 		bic	r3, r3, #128
 6256 0422 5361     		str	r3, [r2, #20]
1318:Drivers/STM32H7xx_HAL_Driver/Src/stm32h7xx_hal_dma.c ****           {
 6257              		.loc 1 1318 0
 6258 0424 236C     		ldr	r3, [r4, #64]
 6259 0426 B3B1     		cbz	r3, .L729
 6260              	.L674:
1320:Drivers/STM32H7xx_HAL_Driver/Src/stm32h7xx_hal_dma.c ****           }
 6261              		.loc 1 1320 0
 6262 0428 2268     		ldr	r2, [r4]
 6263 042a 1368     		ldr	r3, [r2]
 6264 042c 23F00803 		bic	r3, r3, #8
 6265 0430 1360     		str	r3, [r2]
 6266              	.L675:
1324:Drivers/STM32H7xx_HAL_Driver/Src/stm32h7xx_hal_dma.c **** 
 6267              		.loc 1 1324 0
 6268 0432 E36D     		ldr	r3, [r4, #92]
 6269 0434 03F01F02 		and	r2, r3, #31
 6270 0438 3F23     		movs	r3, #63
 6271 043a 9340     		lsls	r3, r3, r2
 6272 043c B360     		str	r3, [r6, #8]
ARM GAS  C:\Users\CompuTOP\AppData\Local\Temp\cc4hOfP8.s 			page 164


1327:Drivers/STM32H7xx_HAL_Driver/Src/stm32h7xx_hal_dma.c **** 
 6273              		.loc 1 1327 0
 6274 043e 0123     		movs	r3, #1
 6275 0440 84F83530 		strb	r3, [r4, #53]
1330:Drivers/STM32H7xx_HAL_Driver/Src/stm32h7xx_hal_dma.c **** 
 6276              		.loc 1 1330 0
 6277 0444 0023     		movs	r3, #0
 6278 0446 84F83430 		strb	r3, [r4, #52]
1332:Drivers/STM32H7xx_HAL_Driver/Src/stm32h7xx_hal_dma.c ****           {
 6279              		.loc 1 1332 0
 6280 044a 236D     		ldr	r3, [r4, #80]
 6281 044c 002B     		cmp	r3, #0
 6282 044e 7BD0     		beq	.L647
1334:Drivers/STM32H7xx_HAL_Driver/Src/stm32h7xx_hal_dma.c ****           }
 6283              		.loc 1 1334 0
 6284 0450 2046     		mov	r0, r4
 6285 0452 9847     		blx	r3
 6286              	.LVL216:
 6287 0454 78E0     		b	.L647
 6288              	.L729:
1318:Drivers/STM32H7xx_HAL_Driver/Src/stm32h7xx_hal_dma.c ****           {
 6289              		.loc 1 1318 0 discriminator 1
 6290 0456 A36C     		ldr	r3, [r4, #72]
 6291 0458 002B     		cmp	r3, #0
 6292 045a E5D1     		bne	.L674
 6293 045c E9E7     		b	.L675
 6294              	.L678:
1353:Drivers/STM32H7xx_HAL_Driver/Src/stm32h7xx_hal_dma.c ****             {
 6295              		.loc 1 1353 0
 6296 045e E36B     		ldr	r3, [r4, #60]
 6297 0460 A3B1     		cbz	r3, .L669
1356:Drivers/STM32H7xx_HAL_Driver/Src/stm32h7xx_hal_dma.c ****             }
 6298              		.loc 1 1356 0
 6299 0462 2046     		mov	r0, r4
 6300 0464 9847     		blx	r3
 6301              	.LVL217:
 6302 0466 11E0     		b	.L669
 6303              	.L677:
1363:Drivers/STM32H7xx_HAL_Driver/Src/stm32h7xx_hal_dma.c ****           {
 6304              		.loc 1 1363 0
 6305 0468 1A68     		ldr	r2, [r3]
 6306 046a 12F4807F 		tst	r2, #256
 6307 046e 09D1     		bne	.L679
1366:Drivers/STM32H7xx_HAL_Driver/Src/stm32h7xx_hal_dma.c **** 
 6308              		.loc 1 1366 0
 6309 0470 1A68     		ldr	r2, [r3]
 6310 0472 22F01002 		bic	r2, r2, #16
 6311 0476 1A60     		str	r2, [r3]
1369:Drivers/STM32H7xx_HAL_Driver/Src/stm32h7xx_hal_dma.c **** 
 6312              		.loc 1 1369 0
 6313 0478 0123     		movs	r3, #1
 6314 047a 84F83530 		strb	r3, [r4, #53]
1372:Drivers/STM32H7xx_HAL_Driver/Src/stm32h7xx_hal_dma.c ****           }
 6315              		.loc 1 1372 0
 6316 047e 0023     		movs	r3, #0
 6317 0480 84F83430 		strb	r3, [r4, #52]
 6318              	.L679:
ARM GAS  C:\Users\CompuTOP\AppData\Local\Temp\cc4hOfP8.s 			page 165


1375:Drivers/STM32H7xx_HAL_Driver/Src/stm32h7xx_hal_dma.c ****           {
 6319              		.loc 1 1375 0
 6320 0484 E36B     		ldr	r3, [r4, #60]
 6321 0486 0BB1     		cbz	r3, .L669
1378:Drivers/STM32H7xx_HAL_Driver/Src/stm32h7xx_hal_dma.c ****           }
 6322              		.loc 1 1378 0
 6323 0488 2046     		mov	r0, r4
 6324 048a 9847     		blx	r3
 6325              	.LVL218:
 6326              	.L669:
1385:Drivers/STM32H7xx_HAL_Driver/Src/stm32h7xx_hal_dma.c ****     {
 6327              		.loc 1 1385 0
 6328 048c 636D     		ldr	r3, [r4, #84]
 6329 048e 002B     		cmp	r3, #0
 6330 0490 5AD0     		beq	.L647
1387:Drivers/STM32H7xx_HAL_Driver/Src/stm32h7xx_hal_dma.c ****       {
 6331              		.loc 1 1387 0
 6332 0492 636D     		ldr	r3, [r4, #84]
 6333 0494 13F0010F 		tst	r3, #1
 6334 0498 52D0     		beq	.L680
1389:Drivers/STM32H7xx_HAL_Driver/Src/stm32h7xx_hal_dma.c **** 
 6335              		.loc 1 1389 0
 6336 049a 0423     		movs	r3, #4
 6337 049c 84F83530 		strb	r3, [r4, #53]
1392:Drivers/STM32H7xx_HAL_Driver/Src/stm32h7xx_hal_dma.c **** 
 6338              		.loc 1 1392 0
 6339 04a0 2368     		ldr	r3, [r4]
 6340 04a2 2A4A     		ldr	r2, .L732
 6341 04a4 2A49     		ldr	r1, .L732+4
 6342 04a6 9342     		cmp	r3, r2
 6343 04a8 18BF     		it	ne
 6344 04aa 8B42     		cmpne	r3, r1
 6345 04ac 2FD0     		beq	.L681
1392:Drivers/STM32H7xx_HAL_Driver/Src/stm32h7xx_hal_dma.c **** 
 6346              		.loc 1 1392 0 is_stmt 0 discriminator 2
 6347 04ae 1832     		adds	r2, r2, #24
 6348 04b0 9342     		cmp	r3, r2
 6349 04b2 2CD0     		beq	.L681
1392:Drivers/STM32H7xx_HAL_Driver/Src/stm32h7xx_hal_dma.c **** 
 6350              		.loc 1 1392 0 discriminator 4
 6351 04b4 1832     		adds	r2, r2, #24
 6352 04b6 9342     		cmp	r3, r2
 6353 04b8 29D0     		beq	.L681
1392:Drivers/STM32H7xx_HAL_Driver/Src/stm32h7xx_hal_dma.c **** 
 6354              		.loc 1 1392 0 discriminator 6
 6355 04ba 1832     		adds	r2, r2, #24
 6356 04bc 9342     		cmp	r3, r2
 6357 04be 26D0     		beq	.L681
1392:Drivers/STM32H7xx_HAL_Driver/Src/stm32h7xx_hal_dma.c **** 
 6358              		.loc 1 1392 0 discriminator 8
 6359 04c0 1832     		adds	r2, r2, #24
 6360 04c2 9342     		cmp	r3, r2
 6361 04c4 23D0     		beq	.L681
1392:Drivers/STM32H7xx_HAL_Driver/Src/stm32h7xx_hal_dma.c **** 
 6362              		.loc 1 1392 0 discriminator 10
 6363 04c6 1832     		adds	r2, r2, #24
 6364 04c8 9342     		cmp	r3, r2
ARM GAS  C:\Users\CompuTOP\AppData\Local\Temp\cc4hOfP8.s 			page 166


 6365 04ca 20D0     		beq	.L681
1392:Drivers/STM32H7xx_HAL_Driver/Src/stm32h7xx_hal_dma.c **** 
 6366              		.loc 1 1392 0 discriminator 12
 6367 04cc 1832     		adds	r2, r2, #24
 6368 04ce 9342     		cmp	r3, r2
 6369 04d0 1DD0     		beq	.L681
1392:Drivers/STM32H7xx_HAL_Driver/Src/stm32h7xx_hal_dma.c **** 
 6370              		.loc 1 1392 0 discriminator 14
 6371 04d2 02F55672 		add	r2, r2, #856
 6372 04d6 9342     		cmp	r3, r2
 6373 04d8 19D0     		beq	.L681
1392:Drivers/STM32H7xx_HAL_Driver/Src/stm32h7xx_hal_dma.c **** 
 6374              		.loc 1 1392 0 discriminator 16
 6375 04da 1832     		adds	r2, r2, #24
 6376 04dc 9342     		cmp	r3, r2
 6377 04de 16D0     		beq	.L681
1392:Drivers/STM32H7xx_HAL_Driver/Src/stm32h7xx_hal_dma.c **** 
 6378              		.loc 1 1392 0 discriminator 18
 6379 04e0 1832     		adds	r2, r2, #24
 6380 04e2 9342     		cmp	r3, r2
 6381 04e4 13D0     		beq	.L681
1392:Drivers/STM32H7xx_HAL_Driver/Src/stm32h7xx_hal_dma.c **** 
 6382              		.loc 1 1392 0 discriminator 20
 6383 04e6 1832     		adds	r2, r2, #24
 6384 04e8 9342     		cmp	r3, r2
 6385 04ea 10D0     		beq	.L681
1392:Drivers/STM32H7xx_HAL_Driver/Src/stm32h7xx_hal_dma.c **** 
 6386              		.loc 1 1392 0 discriminator 22
 6387 04ec 1832     		adds	r2, r2, #24
 6388 04ee 9342     		cmp	r3, r2
 6389 04f0 0DD0     		beq	.L681
1392:Drivers/STM32H7xx_HAL_Driver/Src/stm32h7xx_hal_dma.c **** 
 6390              		.loc 1 1392 0 discriminator 24
 6391 04f2 1832     		adds	r2, r2, #24
 6392 04f4 9342     		cmp	r3, r2
 6393 04f6 0AD0     		beq	.L681
1392:Drivers/STM32H7xx_HAL_Driver/Src/stm32h7xx_hal_dma.c **** 
 6394              		.loc 1 1392 0 discriminator 26
 6395 04f8 1832     		adds	r2, r2, #24
 6396 04fa 9342     		cmp	r3, r2
 6397 04fc 07D0     		beq	.L681
1392:Drivers/STM32H7xx_HAL_Driver/Src/stm32h7xx_hal_dma.c **** 
 6398              		.loc 1 1392 0 discriminator 28
 6399 04fe 1832     		adds	r2, r2, #24
 6400 0500 9342     		cmp	r3, r2
 6401 0502 04D0     		beq	.L681
1392:Drivers/STM32H7xx_HAL_Driver/Src/stm32h7xx_hal_dma.c **** 
 6402              		.loc 1 1392 0 discriminator 30
 6403 0504 1A68     		ldr	r2, [r3]
 6404 0506 22F00102 		bic	r2, r2, #1
 6405 050a 1A60     		str	r2, [r3]
 6406 050c 03E0     		b	.L685
 6407              	.L681:
1392:Drivers/STM32H7xx_HAL_Driver/Src/stm32h7xx_hal_dma.c **** 
 6408              		.loc 1 1392 0 discriminator 29
 6409 050e 1A68     		ldr	r2, [r3]
 6410 0510 22F00102 		bic	r2, r2, #1
ARM GAS  C:\Users\CompuTOP\AppData\Local\Temp\cc4hOfP8.s 			page 167


 6411 0514 1A60     		str	r2, [r3]
 6412              	.L685:
1396:Drivers/STM32H7xx_HAL_Driver/Src/stm32h7xx_hal_dma.c ****           {
 6413              		.loc 1 1396 0 is_stmt 1
 6414 0516 019B     		ldr	r3, [sp, #4]
 6415 0518 0133     		adds	r3, r3, #1
 6416 051a 0193     		str	r3, [sp, #4]
 6417 051c 9D42     		cmp	r5, r3
 6418 051e 04D3     		bcc	.L684
1401:Drivers/STM32H7xx_HAL_Driver/Src/stm32h7xx_hal_dma.c **** 
 6419              		.loc 1 1401 0
 6420 0520 2368     		ldr	r3, [r4]
 6421 0522 1B68     		ldr	r3, [r3]
 6422 0524 13F0010F 		tst	r3, #1
 6423 0528 F5D1     		bne	.L685
 6424              	.L684:
1403:Drivers/STM32H7xx_HAL_Driver/Src/stm32h7xx_hal_dma.c ****         {
 6425              		.loc 1 1403 0
 6426 052a 2368     		ldr	r3, [r4]
 6427 052c 1B68     		ldr	r3, [r3]
 6428 052e 13F0010F 		tst	r3, #1
 6429 0532 0FD0     		beq	.L686
1406:Drivers/STM32H7xx_HAL_Driver/Src/stm32h7xx_hal_dma.c ****         }
 6430              		.loc 1 1406 0
 6431 0534 0323     		movs	r3, #3
 6432 0536 84F83530 		strb	r3, [r4, #53]
 6433              	.L687:
1415:Drivers/STM32H7xx_HAL_Driver/Src/stm32h7xx_hal_dma.c ****       }
 6434              		.loc 1 1415 0
 6435 053a 0023     		movs	r3, #0
 6436 053c 84F83430 		strb	r3, [r4, #52]
 6437              	.L680:
1418:Drivers/STM32H7xx_HAL_Driver/Src/stm32h7xx_hal_dma.c ****       {
 6438              		.loc 1 1418 0
 6439 0540 E36C     		ldr	r3, [r4, #76]
 6440 0542 0BB1     		cbz	r3, .L647
1421:Drivers/STM32H7xx_HAL_Driver/Src/stm32h7xx_hal_dma.c ****       }
 6441              		.loc 1 1421 0
 6442 0544 2046     		mov	r0, r4
 6443 0546 9847     		blx	r3
 6444              	.LVL219:
 6445              	.L647:
1560:Drivers/STM32H7xx_HAL_Driver/Src/stm32h7xx_hal_dma.c **** 
 6446              		.loc 1 1560 0
 6447 0548 03B0     		add	sp, sp, #12
 6448              	.LCFI24:
 6449              		.cfi_remember_state
 6450              		.cfi_def_cfa_offset 20
 6451              		@ sp needed
 6452 054a F0BD     		pop	{r4, r5, r6, r7, pc}
 6453              	.LVL220:
 6454              	.L733:
 6455              		.align	2
 6456              	.L732:
 6457 054c 28000240 		.word	1073872936
 6458 0550 10000240 		.word	1073872912
 6459              	.LVL221:
ARM GAS  C:\Users\CompuTOP\AppData\Local\Temp\cc4hOfP8.s 			page 168


 6460              	.L686:
 6461              	.LCFI25:
 6462              		.cfi_restore_state
1411:Drivers/STM32H7xx_HAL_Driver/Src/stm32h7xx_hal_dma.c ****         }
 6463              		.loc 1 1411 0
 6464 0554 0123     		movs	r3, #1
 6465 0556 84F83530 		strb	r3, [r4, #53]
 6466 055a EEE7     		b	.L687
 6467              	.LVL222:
 6468              	.L649:
1425:Drivers/STM32H7xx_HAL_Driver/Src/stm32h7xx_hal_dma.c ****   {
 6469              		.loc 1 1425 0
 6470 055c A14D     		ldr	r5, .L734
 6471              	.LVL223:
 6472 055e A24F     		ldr	r7, .L734+4
 6473              	.LVL224:
 6474 0560 AB42     		cmp	r3, r5
 6475 0562 18BF     		it	ne
 6476 0564 BB42     		cmpne	r3, r7
 6477 0566 13D0     		beq	.L720
1425:Drivers/STM32H7xx_HAL_Driver/Src/stm32h7xx_hal_dma.c ****   {
 6478              		.loc 1 1425 0 is_stmt 0 discriminator 2
 6479 0568 1435     		adds	r5, r5, #20
 6480 056a AB42     		cmp	r3, r5
 6481 056c 2BD0     		beq	.L721
1425:Drivers/STM32H7xx_HAL_Driver/Src/stm32h7xx_hal_dma.c ****   {
 6482              		.loc 1 1425 0 discriminator 4
 6483 056e 1435     		adds	r5, r5, #20
 6484 0570 AB42     		cmp	r3, r5
 6485 0572 2AD0     		beq	.L722
1425:Drivers/STM32H7xx_HAL_Driver/Src/stm32h7xx_hal_dma.c ****   {
 6486              		.loc 1 1425 0 discriminator 6
 6487 0574 1435     		adds	r5, r5, #20
 6488 0576 AB42     		cmp	r3, r5
 6489 0578 29D0     		beq	.L723
1425:Drivers/STM32H7xx_HAL_Driver/Src/stm32h7xx_hal_dma.c ****   {
 6490              		.loc 1 1425 0 discriminator 8
 6491 057a 1435     		adds	r5, r5, #20
 6492 057c AB42     		cmp	r3, r5
 6493 057e 28D0     		beq	.L724
1425:Drivers/STM32H7xx_HAL_Driver/Src/stm32h7xx_hal_dma.c ****   {
 6494              		.loc 1 1425 0 discriminator 10
 6495 0580 1435     		adds	r5, r5, #20
 6496 0582 AB42     		cmp	r3, r5
 6497 0584 27D0     		beq	.L725
1425:Drivers/STM32H7xx_HAL_Driver/Src/stm32h7xx_hal_dma.c ****   {
 6498              		.loc 1 1425 0 discriminator 12
 6499 0586 1435     		adds	r5, r5, #20
 6500 0588 AB42     		cmp	r3, r5
 6501 058a 02D1     		bne	.L688
1425:Drivers/STM32H7xx_HAL_Driver/Src/stm32h7xx_hal_dma.c ****   {
 6502              		.loc 1 1425 0
 6503 058c 0121     		movs	r1, #1
 6504 058e 00E0     		b	.L688
 6505              	.L720:
 6506 0590 0121     		movs	r1, #1
 6507              	.L688:
ARM GAS  C:\Users\CompuTOP\AppData\Local\Temp\cc4hOfP8.s 			page 169


1425:Drivers/STM32H7xx_HAL_Driver/Src/stm32h7xx_hal_dma.c ****   {
 6508              		.loc 1 1425 0 discriminator 16
 6509 0592 0029     		cmp	r1, #0
 6510 0594 D8D0     		beq	.L647
1427:Drivers/STM32H7xx_HAL_Driver/Src/stm32h7xx_hal_dma.c **** 
 6511              		.loc 1 1427 0 is_stmt 1
 6512 0596 1F68     		ldr	r7, [r3]
 6513              	.LVL225:
1430:Drivers/STM32H7xx_HAL_Driver/Src/stm32h7xx_hal_dma.c ****     {
 6514              		.loc 1 1430 0
 6515 0598 E16D     		ldr	r1, [r4, #92]
 6516 059a 01F01F01 		and	r1, r1, #31
 6517 059e 0425     		movs	r5, #4
 6518 05a0 8D40     		lsls	r5, r5, r1
 6519 05a2 2842     		tst	r0, r5
 6520 05a4 64D0     		beq	.L689
1430:Drivers/STM32H7xx_HAL_Driver/Src/stm32h7xx_hal_dma.c ****     {
 6521              		.loc 1 1430 0 is_stmt 0 discriminator 1
 6522 05a6 17F0040F 		tst	r7, #4
 6523 05aa 61D0     		beq	.L689
1433:Drivers/STM32H7xx_HAL_Driver/Src/stm32h7xx_hal_dma.c **** 
 6524              		.loc 1 1433 0 is_stmt 1
 6525 05ac 7560     		str	r5, [r6, #4]
1436:Drivers/STM32H7xx_HAL_Driver/Src/stm32h7xx_hal_dma.c ****       {
 6526              		.loc 1 1436 0
 6527 05ae 17F4004F 		tst	r7, #32768
 6528 05b2 18D0     		beq	.L690
1439:Drivers/STM32H7xx_HAL_Driver/Src/stm32h7xx_hal_dma.c ****         {
 6529              		.loc 1 1439 0
 6530 05b4 17F4803F 		tst	r7, #65536
 6531 05b8 0FD1     		bne	.L691
1441:Drivers/STM32H7xx_HAL_Driver/Src/stm32h7xx_hal_dma.c ****           {
 6532              		.loc 1 1441 0
 6533 05ba A36C     		ldr	r3, [r4, #72]
 6534 05bc 002B     		cmp	r3, #0
 6535 05be C3D0     		beq	.L647
1444:Drivers/STM32H7xx_HAL_Driver/Src/stm32h7xx_hal_dma.c ****           }
 6536              		.loc 1 1444 0
 6537 05c0 2046     		mov	r0, r4
 6538              	.LVL226:
 6539 05c2 9847     		blx	r3
 6540              	.LVL227:
 6541 05c4 C0E7     		b	.L647
 6542              	.LVL228:
 6543              	.L721:
1425:Drivers/STM32H7xx_HAL_Driver/Src/stm32h7xx_hal_dma.c ****   {
 6544              		.loc 1 1425 0
 6545 05c6 0121     		movs	r1, #1
 6546 05c8 E3E7     		b	.L688
 6547              	.L722:
 6548 05ca 0121     		movs	r1, #1
 6549 05cc E1E7     		b	.L688
 6550              	.L723:
 6551 05ce 0121     		movs	r1, #1
 6552 05d0 DFE7     		b	.L688
 6553              	.L724:
 6554 05d2 0121     		movs	r1, #1
ARM GAS  C:\Users\CompuTOP\AppData\Local\Temp\cc4hOfP8.s 			page 170


 6555 05d4 DDE7     		b	.L688
 6556              	.L725:
 6557 05d6 0121     		movs	r1, #1
 6558 05d8 DBE7     		b	.L688
 6559              	.LVL229:
 6560              	.L691:
1450:Drivers/STM32H7xx_HAL_Driver/Src/stm32h7xx_hal_dma.c ****           {
 6561              		.loc 1 1450 0
 6562 05da 236C     		ldr	r3, [r4, #64]
 6563 05dc 002B     		cmp	r3, #0
 6564 05de B3D0     		beq	.L647
1453:Drivers/STM32H7xx_HAL_Driver/Src/stm32h7xx_hal_dma.c ****           }
 6565              		.loc 1 1453 0
 6566 05e0 2046     		mov	r0, r4
 6567              	.LVL230:
 6568 05e2 9847     		blx	r3
 6569              	.LVL231:
 6570 05e4 B0E7     		b	.L647
 6571              	.LVL232:
 6572              	.L690:
1459:Drivers/STM32H7xx_HAL_Driver/Src/stm32h7xx_hal_dma.c ****         {
 6573              		.loc 1 1459 0
 6574 05e6 17F0200F 		tst	r7, #32
 6575 05ea 3AD1     		bne	.L692
1462:Drivers/STM32H7xx_HAL_Driver/Src/stm32h7xx_hal_dma.c ****         }
 6576              		.loc 1 1462 0
 6577 05ec 2368     		ldr	r3, [r4]
 6578 05ee 7F4A     		ldr	r2, .L734+8
 6579 05f0 7F49     		ldr	r1, .L734+12
 6580 05f2 9342     		cmp	r3, r2
 6581 05f4 18BF     		it	ne
 6582 05f6 8B42     		cmpne	r3, r1
 6583 05f8 2FD0     		beq	.L693
1462:Drivers/STM32H7xx_HAL_Driver/Src/stm32h7xx_hal_dma.c ****         }
 6584              		.loc 1 1462 0 is_stmt 0 discriminator 2
 6585 05fa 1832     		adds	r2, r2, #24
 6586 05fc 9342     		cmp	r3, r2
 6587 05fe 2CD0     		beq	.L693
1462:Drivers/STM32H7xx_HAL_Driver/Src/stm32h7xx_hal_dma.c ****         }
 6588              		.loc 1 1462 0 discriminator 4
 6589 0600 1832     		adds	r2, r2, #24
 6590 0602 9342     		cmp	r3, r2
 6591 0604 29D0     		beq	.L693
1462:Drivers/STM32H7xx_HAL_Driver/Src/stm32h7xx_hal_dma.c ****         }
 6592              		.loc 1 1462 0 discriminator 6
 6593 0606 1832     		adds	r2, r2, #24
 6594 0608 9342     		cmp	r3, r2
 6595 060a 26D0     		beq	.L693
1462:Drivers/STM32H7xx_HAL_Driver/Src/stm32h7xx_hal_dma.c ****         }
 6596              		.loc 1 1462 0 discriminator 8
 6597 060c 1832     		adds	r2, r2, #24
 6598 060e 9342     		cmp	r3, r2
 6599 0610 23D0     		beq	.L693
1462:Drivers/STM32H7xx_HAL_Driver/Src/stm32h7xx_hal_dma.c ****         }
 6600              		.loc 1 1462 0 discriminator 10
 6601 0612 1832     		adds	r2, r2, #24
 6602 0614 9342     		cmp	r3, r2
ARM GAS  C:\Users\CompuTOP\AppData\Local\Temp\cc4hOfP8.s 			page 171


 6603 0616 20D0     		beq	.L693
1462:Drivers/STM32H7xx_HAL_Driver/Src/stm32h7xx_hal_dma.c ****         }
 6604              		.loc 1 1462 0 discriminator 12
 6605 0618 1832     		adds	r2, r2, #24
 6606 061a 9342     		cmp	r3, r2
 6607 061c 1DD0     		beq	.L693
1462:Drivers/STM32H7xx_HAL_Driver/Src/stm32h7xx_hal_dma.c ****         }
 6608              		.loc 1 1462 0 discriminator 14
 6609 061e 02F55672 		add	r2, r2, #856
 6610 0622 9342     		cmp	r3, r2
 6611 0624 19D0     		beq	.L693
1462:Drivers/STM32H7xx_HAL_Driver/Src/stm32h7xx_hal_dma.c ****         }
 6612              		.loc 1 1462 0 discriminator 16
 6613 0626 1832     		adds	r2, r2, #24
 6614 0628 9342     		cmp	r3, r2
 6615 062a 16D0     		beq	.L693
1462:Drivers/STM32H7xx_HAL_Driver/Src/stm32h7xx_hal_dma.c ****         }
 6616              		.loc 1 1462 0 discriminator 18
 6617 062c 1832     		adds	r2, r2, #24
 6618 062e 9342     		cmp	r3, r2
 6619 0630 13D0     		beq	.L693
1462:Drivers/STM32H7xx_HAL_Driver/Src/stm32h7xx_hal_dma.c ****         }
 6620              		.loc 1 1462 0 discriminator 20
 6621 0632 1832     		adds	r2, r2, #24
 6622 0634 9342     		cmp	r3, r2
 6623 0636 10D0     		beq	.L693
1462:Drivers/STM32H7xx_HAL_Driver/Src/stm32h7xx_hal_dma.c ****         }
 6624              		.loc 1 1462 0 discriminator 22
 6625 0638 1832     		adds	r2, r2, #24
 6626 063a 9342     		cmp	r3, r2
 6627 063c 0DD0     		beq	.L693
1462:Drivers/STM32H7xx_HAL_Driver/Src/stm32h7xx_hal_dma.c ****         }
 6628              		.loc 1 1462 0 discriminator 24
 6629 063e 1832     		adds	r2, r2, #24
 6630 0640 9342     		cmp	r3, r2
 6631 0642 0AD0     		beq	.L693
1462:Drivers/STM32H7xx_HAL_Driver/Src/stm32h7xx_hal_dma.c ****         }
 6632              		.loc 1 1462 0 discriminator 26
 6633 0644 1832     		adds	r2, r2, #24
 6634 0646 9342     		cmp	r3, r2
 6635 0648 07D0     		beq	.L693
1462:Drivers/STM32H7xx_HAL_Driver/Src/stm32h7xx_hal_dma.c ****         }
 6636              		.loc 1 1462 0 discriminator 28
 6637 064a 1832     		adds	r2, r2, #24
 6638 064c 9342     		cmp	r3, r2
 6639 064e 04D0     		beq	.L693
1462:Drivers/STM32H7xx_HAL_Driver/Src/stm32h7xx_hal_dma.c ****         }
 6640              		.loc 1 1462 0 discriminator 30
 6641 0650 1A68     		ldr	r2, [r3]
 6642 0652 22F00402 		bic	r2, r2, #4
 6643 0656 1A60     		str	r2, [r3]
 6644              	.LVL233:
 6645 0658 03E0     		b	.L692
 6646              	.LVL234:
 6647              	.L693:
1462:Drivers/STM32H7xx_HAL_Driver/Src/stm32h7xx_hal_dma.c ****         }
 6648              		.loc 1 1462 0 discriminator 29
ARM GAS  C:\Users\CompuTOP\AppData\Local\Temp\cc4hOfP8.s 			page 172


 6649 065a 1A68     		ldr	r2, [r3]
 6650 065c 22F00802 		bic	r2, r2, #8
 6651 0660 1A60     		str	r2, [r3]
 6652              	.LVL235:
 6653              	.L692:
1468:Drivers/STM32H7xx_HAL_Driver/Src/stm32h7xx_hal_dma.c ****         {
 6654              		.loc 1 1468 0 is_stmt 1
 6655 0662 236C     		ldr	r3, [r4, #64]
 6656 0664 002B     		cmp	r3, #0
 6657 0666 3FF46FAF 		beq	.L647
1471:Drivers/STM32H7xx_HAL_Driver/Src/stm32h7xx_hal_dma.c ****         }
 6658              		.loc 1 1471 0
 6659 066a 2046     		mov	r0, r4
 6660              	.LVL236:
 6661 066c 9847     		blx	r3
 6662              	.LVL237:
 6663 066e 6BE7     		b	.L647
 6664              	.LVL238:
 6665              	.L689:
1477:Drivers/STM32H7xx_HAL_Driver/Src/stm32h7xx_hal_dma.c ****     {
 6666              		.loc 1 1477 0
 6667 0670 0225     		movs	r5, #2
 6668 0672 8D40     		lsls	r5, r5, r1
 6669 0674 2842     		tst	r0, r5
 6670 0676 62D0     		beq	.L695
1477:Drivers/STM32H7xx_HAL_Driver/Src/stm32h7xx_hal_dma.c ****     {
 6671              		.loc 1 1477 0 is_stmt 0 discriminator 1
 6672 0678 17F0020F 		tst	r7, #2
 6673 067c 5FD0     		beq	.L695
1480:Drivers/STM32H7xx_HAL_Driver/Src/stm32h7xx_hal_dma.c **** 
 6674              		.loc 1 1480 0 is_stmt 1
 6675 067e 7560     		str	r5, [r6, #4]
1483:Drivers/STM32H7xx_HAL_Driver/Src/stm32h7xx_hal_dma.c ****       {
 6676              		.loc 1 1483 0
 6677 0680 17F4004F 		tst	r7, #32768
 6678 0684 10D0     		beq	.L696
1486:Drivers/STM32H7xx_HAL_Driver/Src/stm32h7xx_hal_dma.c ****         {
 6679              		.loc 1 1486 0
 6680 0686 17F4803F 		tst	r7, #65536
 6681 068a 06D1     		bne	.L697
1488:Drivers/STM32H7xx_HAL_Driver/Src/stm32h7xx_hal_dma.c ****           {
 6682              		.loc 1 1488 0
 6683 068c 636C     		ldr	r3, [r4, #68]
 6684 068e 002B     		cmp	r3, #0
 6685 0690 3FF45AAF 		beq	.L647
1491:Drivers/STM32H7xx_HAL_Driver/Src/stm32h7xx_hal_dma.c ****           }
 6686              		.loc 1 1491 0
 6687 0694 2046     		mov	r0, r4
 6688              	.LVL239:
 6689 0696 9847     		blx	r3
 6690              	.LVL240:
 6691 0698 56E7     		b	.L647
 6692              	.LVL241:
 6693              	.L697:
1497:Drivers/STM32H7xx_HAL_Driver/Src/stm32h7xx_hal_dma.c ****           {
 6694              		.loc 1 1497 0
 6695 069a E36B     		ldr	r3, [r4, #60]
ARM GAS  C:\Users\CompuTOP\AppData\Local\Temp\cc4hOfP8.s 			page 173


 6696 069c 002B     		cmp	r3, #0
 6697 069e 3FF453AF 		beq	.L647
1500:Drivers/STM32H7xx_HAL_Driver/Src/stm32h7xx_hal_dma.c ****           }
 6698              		.loc 1 1500 0
 6699 06a2 2046     		mov	r0, r4
 6700              	.LVL242:
 6701 06a4 9847     		blx	r3
 6702              	.LVL243:
 6703 06a6 4FE7     		b	.L647
 6704              	.LVL244:
 6705              	.L696:
1506:Drivers/STM32H7xx_HAL_Driver/Src/stm32h7xx_hal_dma.c ****         {
 6706              		.loc 1 1506 0
 6707 06a8 17F0200F 		tst	r7, #32
 6708 06ac 40D1     		bne	.L698
1509:Drivers/STM32H7xx_HAL_Driver/Src/stm32h7xx_hal_dma.c **** 
 6709              		.loc 1 1509 0
 6710 06ae 2368     		ldr	r3, [r4]
 6711 06b0 4E4A     		ldr	r2, .L734+8
 6712 06b2 4F49     		ldr	r1, .L734+12
 6713 06b4 9342     		cmp	r3, r2
 6714 06b6 18BF     		it	ne
 6715 06b8 8B42     		cmpne	r3, r1
 6716 06ba 2FD0     		beq	.L699
1509:Drivers/STM32H7xx_HAL_Driver/Src/stm32h7xx_hal_dma.c **** 
 6717              		.loc 1 1509 0 is_stmt 0 discriminator 2
 6718 06bc 1832     		adds	r2, r2, #24
 6719 06be 9342     		cmp	r3, r2
 6720 06c0 2CD0     		beq	.L699
1509:Drivers/STM32H7xx_HAL_Driver/Src/stm32h7xx_hal_dma.c **** 
 6721              		.loc 1 1509 0 discriminator 4
 6722 06c2 1832     		adds	r2, r2, #24
 6723 06c4 9342     		cmp	r3, r2
 6724 06c6 29D0     		beq	.L699
1509:Drivers/STM32H7xx_HAL_Driver/Src/stm32h7xx_hal_dma.c **** 
 6725              		.loc 1 1509 0 discriminator 6
 6726 06c8 1832     		adds	r2, r2, #24
 6727 06ca 9342     		cmp	r3, r2
 6728 06cc 26D0     		beq	.L699
1509:Drivers/STM32H7xx_HAL_Driver/Src/stm32h7xx_hal_dma.c **** 
 6729              		.loc 1 1509 0 discriminator 8
 6730 06ce 1832     		adds	r2, r2, #24
 6731 06d0 9342     		cmp	r3, r2
 6732 06d2 23D0     		beq	.L699
1509:Drivers/STM32H7xx_HAL_Driver/Src/stm32h7xx_hal_dma.c **** 
 6733              		.loc 1 1509 0 discriminator 10
 6734 06d4 1832     		adds	r2, r2, #24
 6735 06d6 9342     		cmp	r3, r2
 6736 06d8 20D0     		beq	.L699
1509:Drivers/STM32H7xx_HAL_Driver/Src/stm32h7xx_hal_dma.c **** 
 6737              		.loc 1 1509 0 discriminator 12
 6738 06da 1832     		adds	r2, r2, #24
 6739 06dc 9342     		cmp	r3, r2
 6740 06de 1DD0     		beq	.L699
1509:Drivers/STM32H7xx_HAL_Driver/Src/stm32h7xx_hal_dma.c **** 
 6741              		.loc 1 1509 0 discriminator 14
 6742 06e0 02F55672 		add	r2, r2, #856
ARM GAS  C:\Users\CompuTOP\AppData\Local\Temp\cc4hOfP8.s 			page 174


 6743 06e4 9342     		cmp	r3, r2
 6744 06e6 19D0     		beq	.L699
1509:Drivers/STM32H7xx_HAL_Driver/Src/stm32h7xx_hal_dma.c **** 
 6745              		.loc 1 1509 0 discriminator 16
 6746 06e8 1832     		adds	r2, r2, #24
 6747 06ea 9342     		cmp	r3, r2
 6748 06ec 16D0     		beq	.L699
1509:Drivers/STM32H7xx_HAL_Driver/Src/stm32h7xx_hal_dma.c **** 
 6749              		.loc 1 1509 0 discriminator 18
 6750 06ee 1832     		adds	r2, r2, #24
 6751 06f0 9342     		cmp	r3, r2
 6752 06f2 13D0     		beq	.L699
1509:Drivers/STM32H7xx_HAL_Driver/Src/stm32h7xx_hal_dma.c **** 
 6753              		.loc 1 1509 0 discriminator 20
 6754 06f4 1832     		adds	r2, r2, #24
 6755 06f6 9342     		cmp	r3, r2
 6756 06f8 10D0     		beq	.L699
1509:Drivers/STM32H7xx_HAL_Driver/Src/stm32h7xx_hal_dma.c **** 
 6757              		.loc 1 1509 0 discriminator 22
 6758 06fa 1832     		adds	r2, r2, #24
 6759 06fc 9342     		cmp	r3, r2
 6760 06fe 0DD0     		beq	.L699
1509:Drivers/STM32H7xx_HAL_Driver/Src/stm32h7xx_hal_dma.c **** 
 6761              		.loc 1 1509 0 discriminator 24
 6762 0700 1832     		adds	r2, r2, #24
 6763 0702 9342     		cmp	r3, r2
 6764 0704 0AD0     		beq	.L699
1509:Drivers/STM32H7xx_HAL_Driver/Src/stm32h7xx_hal_dma.c **** 
 6765              		.loc 1 1509 0 discriminator 26
 6766 0706 1832     		adds	r2, r2, #24
 6767 0708 9342     		cmp	r3, r2
 6768 070a 07D0     		beq	.L699
1509:Drivers/STM32H7xx_HAL_Driver/Src/stm32h7xx_hal_dma.c **** 
 6769              		.loc 1 1509 0 discriminator 28
 6770 070c 1832     		adds	r2, r2, #24
 6771 070e 9342     		cmp	r3, r2
 6772 0710 04D0     		beq	.L699
1509:Drivers/STM32H7xx_HAL_Driver/Src/stm32h7xx_hal_dma.c **** 
 6773              		.loc 1 1509 0 discriminator 30
 6774 0712 1A68     		ldr	r2, [r3]
 6775 0714 22F00A02 		bic	r2, r2, #10
 6776 0718 1A60     		str	r2, [r3]
 6777              	.LVL245:
 6778 071a 03E0     		b	.L701
 6779              	.LVL246:
 6780              	.L699:
1509:Drivers/STM32H7xx_HAL_Driver/Src/stm32h7xx_hal_dma.c **** 
 6781              		.loc 1 1509 0 discriminator 29
 6782 071c 1A68     		ldr	r2, [r3]
 6783 071e 22F01402 		bic	r2, r2, #20
 6784 0722 1A60     		str	r2, [r3]
 6785              	.LVL247:
 6786              	.L701:
1512:Drivers/STM32H7xx_HAL_Driver/Src/stm32h7xx_hal_dma.c **** 
 6787              		.loc 1 1512 0 is_stmt 1
 6788 0724 0123     		movs	r3, #1
 6789 0726 84F83530 		strb	r3, [r4, #53]
ARM GAS  C:\Users\CompuTOP\AppData\Local\Temp\cc4hOfP8.s 			page 175


1515:Drivers/STM32H7xx_HAL_Driver/Src/stm32h7xx_hal_dma.c ****         }
 6790              		.loc 1 1515 0
 6791 072a 0023     		movs	r3, #0
 6792 072c 84F83430 		strb	r3, [r4, #52]
 6793              	.L698:
1518:Drivers/STM32H7xx_HAL_Driver/Src/stm32h7xx_hal_dma.c ****         {
 6794              		.loc 1 1518 0
 6795 0730 E36B     		ldr	r3, [r4, #60]
 6796 0732 002B     		cmp	r3, #0
 6797 0734 3FF408AF 		beq	.L647
1521:Drivers/STM32H7xx_HAL_Driver/Src/stm32h7xx_hal_dma.c ****         }
 6798              		.loc 1 1521 0
 6799 0738 2046     		mov	r0, r4
 6800              	.LVL248:
 6801 073a 9847     		blx	r3
 6802              	.LVL249:
 6803 073c 04E7     		b	.L647
 6804              	.LVL250:
 6805              	.L695:
1526:Drivers/STM32H7xx_HAL_Driver/Src/stm32h7xx_hal_dma.c ****     {
 6806              		.loc 1 1526 0
 6807 073e 0825     		movs	r5, #8
 6808 0740 05FA01F1 		lsl	r1, r5, r1
 6809 0744 0842     		tst	r0, r1
 6810 0746 3FF4FFAE 		beq	.L647
1526:Drivers/STM32H7xx_HAL_Driver/Src/stm32h7xx_hal_dma.c ****     {
 6811              		.loc 1 1526 0 is_stmt 0 discriminator 1
 6812 074a 17F0080F 		tst	r7, #8
 6813 074e 3FF4FBAE 		beq	.L647
1531:Drivers/STM32H7xx_HAL_Driver/Src/stm32h7xx_hal_dma.c **** 
 6814              		.loc 1 1531 0 is_stmt 1
 6815 0752 7ABB     		cbnz	r2, .L702
1531:Drivers/STM32H7xx_HAL_Driver/Src/stm32h7xx_hal_dma.c **** 
 6816              		.loc 1 1531 0 is_stmt 0 discriminator 2
 6817 0754 274A     		ldr	r2, .L734+16
 6818 0756 9342     		cmp	r3, r2
 6819 0758 2CD0     		beq	.L702
1531:Drivers/STM32H7xx_HAL_Driver/Src/stm32h7xx_hal_dma.c **** 
 6820              		.loc 1 1531 0 discriminator 4
 6821 075a 1832     		adds	r2, r2, #24
 6822 075c 9342     		cmp	r3, r2
 6823 075e 29D0     		beq	.L702
1531:Drivers/STM32H7xx_HAL_Driver/Src/stm32h7xx_hal_dma.c **** 
 6824              		.loc 1 1531 0 discriminator 6
 6825 0760 1832     		adds	r2, r2, #24
 6826 0762 9342     		cmp	r3, r2
 6827 0764 26D0     		beq	.L702
1531:Drivers/STM32H7xx_HAL_Driver/Src/stm32h7xx_hal_dma.c **** 
 6828              		.loc 1 1531 0 discriminator 8
 6829 0766 1832     		adds	r2, r2, #24
 6830 0768 9342     		cmp	r3, r2
 6831 076a 23D0     		beq	.L702
1531:Drivers/STM32H7xx_HAL_Driver/Src/stm32h7xx_hal_dma.c **** 
 6832              		.loc 1 1531 0 discriminator 10
 6833 076c 1832     		adds	r2, r2, #24
 6834 076e 9342     		cmp	r3, r2
 6835 0770 20D0     		beq	.L702
ARM GAS  C:\Users\CompuTOP\AppData\Local\Temp\cc4hOfP8.s 			page 176


1531:Drivers/STM32H7xx_HAL_Driver/Src/stm32h7xx_hal_dma.c **** 
 6836              		.loc 1 1531 0 discriminator 12
 6837 0772 1832     		adds	r2, r2, #24
 6838 0774 9342     		cmp	r3, r2
 6839 0776 1DD0     		beq	.L702
1531:Drivers/STM32H7xx_HAL_Driver/Src/stm32h7xx_hal_dma.c **** 
 6840              		.loc 1 1531 0 discriminator 14
 6841 0778 02F55672 		add	r2, r2, #856
 6842 077c 9342     		cmp	r3, r2
 6843 077e 19D0     		beq	.L702
1531:Drivers/STM32H7xx_HAL_Driver/Src/stm32h7xx_hal_dma.c **** 
 6844              		.loc 1 1531 0 discriminator 16
 6845 0780 1832     		adds	r2, r2, #24
 6846 0782 9342     		cmp	r3, r2
 6847 0784 16D0     		beq	.L702
1531:Drivers/STM32H7xx_HAL_Driver/Src/stm32h7xx_hal_dma.c **** 
 6848              		.loc 1 1531 0 discriminator 18
 6849 0786 1832     		adds	r2, r2, #24
 6850 0788 9342     		cmp	r3, r2
 6851 078a 13D0     		beq	.L702
1531:Drivers/STM32H7xx_HAL_Driver/Src/stm32h7xx_hal_dma.c **** 
 6852              		.loc 1 1531 0 discriminator 20
 6853 078c 1832     		adds	r2, r2, #24
 6854 078e 9342     		cmp	r3, r2
 6855 0790 10D0     		beq	.L702
1531:Drivers/STM32H7xx_HAL_Driver/Src/stm32h7xx_hal_dma.c **** 
 6856              		.loc 1 1531 0 discriminator 22
 6857 0792 1832     		adds	r2, r2, #24
 6858 0794 9342     		cmp	r3, r2
 6859 0796 0DD0     		beq	.L702
1531:Drivers/STM32H7xx_HAL_Driver/Src/stm32h7xx_hal_dma.c **** 
 6860              		.loc 1 1531 0 discriminator 24
 6861 0798 1832     		adds	r2, r2, #24
 6862 079a 9342     		cmp	r3, r2
 6863 079c 0AD0     		beq	.L702
1531:Drivers/STM32H7xx_HAL_Driver/Src/stm32h7xx_hal_dma.c **** 
 6864              		.loc 1 1531 0 discriminator 26
 6865 079e 1832     		adds	r2, r2, #24
 6866 07a0 9342     		cmp	r3, r2
 6867 07a2 07D0     		beq	.L702
1531:Drivers/STM32H7xx_HAL_Driver/Src/stm32h7xx_hal_dma.c **** 
 6868              		.loc 1 1531 0 discriminator 28
 6869 07a4 1832     		adds	r2, r2, #24
 6870 07a6 9342     		cmp	r3, r2
 6871 07a8 04D0     		beq	.L702
1531:Drivers/STM32H7xx_HAL_Driver/Src/stm32h7xx_hal_dma.c **** 
 6872              		.loc 1 1531 0 discriminator 30
 6873 07aa 1A68     		ldr	r2, [r3]
 6874 07ac 22F00E02 		bic	r2, r2, #14
 6875 07b0 1A60     		str	r2, [r3]
 6876              	.LVL251:
 6877 07b2 03E0     		b	.L704
 6878              	.LVL252:
 6879              	.L702:
1531:Drivers/STM32H7xx_HAL_Driver/Src/stm32h7xx_hal_dma.c **** 
 6880              		.loc 1 1531 0 discriminator 29
 6881 07b4 1A68     		ldr	r2, [r3]
ARM GAS  C:\Users\CompuTOP\AppData\Local\Temp\cc4hOfP8.s 			page 177


 6882 07b6 22F01C02 		bic	r2, r2, #28
 6883 07ba 1A60     		str	r2, [r3]
 6884              	.LVL253:
 6885              	.L704:
1534:Drivers/STM32H7xx_HAL_Driver/Src/stm32h7xx_hal_dma.c **** 
 6886              		.loc 1 1534 0 is_stmt 1
 6887 07bc E36D     		ldr	r3, [r4, #92]
 6888 07be 03F01F03 		and	r3, r3, #31
 6889 07c2 0122     		movs	r2, #1
 6890 07c4 02FA03F3 		lsl	r3, r2, r3
 6891 07c8 7360     		str	r3, [r6, #4]
1537:Drivers/STM32H7xx_HAL_Driver/Src/stm32h7xx_hal_dma.c **** 
 6892              		.loc 1 1537 0
 6893 07ca 6265     		str	r2, [r4, #84]
1540:Drivers/STM32H7xx_HAL_Driver/Src/stm32h7xx_hal_dma.c **** 
 6894              		.loc 1 1540 0
 6895 07cc 84F83520 		strb	r2, [r4, #53]
1543:Drivers/STM32H7xx_HAL_Driver/Src/stm32h7xx_hal_dma.c **** 
 6896              		.loc 1 1543 0
 6897 07d0 0023     		movs	r3, #0
 6898 07d2 84F83430 		strb	r3, [r4, #52]
1545:Drivers/STM32H7xx_HAL_Driver/Src/stm32h7xx_hal_dma.c ****       {
 6899              		.loc 1 1545 0
 6900 07d6 E36C     		ldr	r3, [r4, #76]
 6901 07d8 002B     		cmp	r3, #0
 6902 07da 3FF4B5AE 		beq	.L647
1548:Drivers/STM32H7xx_HAL_Driver/Src/stm32h7xx_hal_dma.c ****       }
 6903              		.loc 1 1548 0
 6904 07de 2046     		mov	r0, r4
 6905              	.LVL254:
 6906 07e0 9847     		blx	r3
 6907              	.LVL255:
 6908 07e2 B1E6     		b	.L647
 6909              	.L735:
 6910              		.align	2
 6911              	.L734:
 6912 07e4 1C540258 		.word	1476547612
 6913 07e8 08540258 		.word	1476547592
 6914 07ec 28000240 		.word	1073872936
 6915 07f0 10000240 		.word	1073872912
 6916 07f4 40000240 		.word	1073872960
 6917              		.cfi_endproc
 6918              	.LFE151:
 6920              		.section	.text.HAL_DMA_RegisterCallback,"ax",%progbits
 6921              		.align	1
 6922              		.global	HAL_DMA_RegisterCallback
 6923              		.syntax unified
 6924              		.thumb
 6925              		.thumb_func
 6926              		.fpu fpv5-d16
 6928              	HAL_DMA_RegisterCallback:
 6929              	.LFB152:
1573:Drivers/STM32H7xx_HAL_Driver/Src/stm32h7xx_hal_dma.c **** 
 6930              		.loc 1 1573 0
 6931              		.cfi_startproc
 6932              		@ args = 0, pretend = 0, frame = 0
 6933              		@ frame_needed = 0, uses_anonymous_args = 0
ARM GAS  C:\Users\CompuTOP\AppData\Local\Temp\cc4hOfP8.s 			page 178


 6934              		@ link register save eliminated.
 6935              	.LVL256:
1578:Drivers/STM32H7xx_HAL_Driver/Src/stm32h7xx_hal_dma.c ****   {
 6936              		.loc 1 1578 0
 6937 0000 0346     		mov	r3, r0
 6938 0002 58B3     		cbz	r0, .L746
1584:Drivers/STM32H7xx_HAL_Driver/Src/stm32h7xx_hal_dma.c **** 
 6939              		.loc 1 1584 0
 6940 0004 90F83400 		ldrb	r0, [r0, #52]	@ zero_extendqisi2
 6941              	.LVL257:
 6942 0008 0128     		cmp	r0, #1
 6943 000a 29D0     		beq	.L747
1584:Drivers/STM32H7xx_HAL_Driver/Src/stm32h7xx_hal_dma.c **** 
 6944              		.loc 1 1584 0 is_stmt 0 discriminator 2
 6945 000c 0120     		movs	r0, #1
 6946 000e 83F83400 		strb	r0, [r3, #52]
1586:Drivers/STM32H7xx_HAL_Driver/Src/stm32h7xx_hal_dma.c ****   {
 6947              		.loc 1 1586 0 is_stmt 1 discriminator 2
 6948 0012 93F83500 		ldrb	r0, [r3, #53]	@ zero_extendqisi2
 6949 0016 C0B2     		uxtb	r0, r0
 6950 0018 0128     		cmp	r0, #1
 6951 001a 04D0     		beq	.L750
1622:Drivers/STM32H7xx_HAL_Driver/Src/stm32h7xx_hal_dma.c ****   }
 6952              		.loc 1 1622 0
 6953 001c 0120     		movs	r0, #1
 6954              	.L738:
 6955              	.LVL258:
1626:Drivers/STM32H7xx_HAL_Driver/Src/stm32h7xx_hal_dma.c **** 
 6956              		.loc 1 1626 0
 6957 001e 0022     		movs	r2, #0
 6958              	.LVL259:
 6959 0020 83F83420 		strb	r2, [r3, #52]
1628:Drivers/STM32H7xx_HAL_Driver/Src/stm32h7xx_hal_dma.c **** }
 6960              		.loc 1 1628 0
 6961 0024 7047     		bx	lr
 6962              	.LVL260:
 6963              	.L750:
1588:Drivers/STM32H7xx_HAL_Driver/Src/stm32h7xx_hal_dma.c ****     {
 6964              		.loc 1 1588 0
 6965 0026 0529     		cmp	r1, #5
 6966 0028 16D8     		bhi	.L749
 6967 002a DFE801F0 		tbb	[pc, r1]
 6968              	.L740:
 6969 002e 03       		.byte	(.L739-.L740)/2
 6970 002f 06       		.byte	(.L741-.L740)/2
 6971 0030 09       		.byte	(.L742-.L740)/2
 6972 0031 0C       		.byte	(.L743-.L740)/2
 6973 0032 0F       		.byte	(.L744-.L740)/2
 6974 0033 12       		.byte	(.L745-.L740)/2
 6975              		.p2align 1
 6976              	.L739:
1591:Drivers/STM32H7xx_HAL_Driver/Src/stm32h7xx_hal_dma.c ****       break;
 6977              		.loc 1 1591 0
 6978 0034 DA63     		str	r2, [r3, #60]
1575:Drivers/STM32H7xx_HAL_Driver/Src/stm32h7xx_hal_dma.c **** 
 6979              		.loc 1 1575 0
 6980 0036 0020     		movs	r0, #0
ARM GAS  C:\Users\CompuTOP\AppData\Local\Temp\cc4hOfP8.s 			page 179


1592:Drivers/STM32H7xx_HAL_Driver/Src/stm32h7xx_hal_dma.c **** 
 6981              		.loc 1 1592 0
 6982 0038 F1E7     		b	.L738
 6983              	.L741:
1595:Drivers/STM32H7xx_HAL_Driver/Src/stm32h7xx_hal_dma.c ****       break;
 6984              		.loc 1 1595 0
 6985 003a 1A64     		str	r2, [r3, #64]
1575:Drivers/STM32H7xx_HAL_Driver/Src/stm32h7xx_hal_dma.c **** 
 6986              		.loc 1 1575 0
 6987 003c 0020     		movs	r0, #0
1596:Drivers/STM32H7xx_HAL_Driver/Src/stm32h7xx_hal_dma.c **** 
 6988              		.loc 1 1596 0
 6989 003e EEE7     		b	.L738
 6990              	.L742:
1599:Drivers/STM32H7xx_HAL_Driver/Src/stm32h7xx_hal_dma.c ****       break;
 6991              		.loc 1 1599 0
 6992 0040 5A64     		str	r2, [r3, #68]
1575:Drivers/STM32H7xx_HAL_Driver/Src/stm32h7xx_hal_dma.c **** 
 6993              		.loc 1 1575 0
 6994 0042 0020     		movs	r0, #0
1600:Drivers/STM32H7xx_HAL_Driver/Src/stm32h7xx_hal_dma.c **** 
 6995              		.loc 1 1600 0
 6996 0044 EBE7     		b	.L738
 6997              	.L743:
1603:Drivers/STM32H7xx_HAL_Driver/Src/stm32h7xx_hal_dma.c ****       break;
 6998              		.loc 1 1603 0
 6999 0046 9A64     		str	r2, [r3, #72]
1575:Drivers/STM32H7xx_HAL_Driver/Src/stm32h7xx_hal_dma.c **** 
 7000              		.loc 1 1575 0
 7001 0048 0020     		movs	r0, #0
1604:Drivers/STM32H7xx_HAL_Driver/Src/stm32h7xx_hal_dma.c **** 
 7002              		.loc 1 1604 0
 7003 004a E8E7     		b	.L738
 7004              	.L744:
1607:Drivers/STM32H7xx_HAL_Driver/Src/stm32h7xx_hal_dma.c ****       break;
 7005              		.loc 1 1607 0
 7006 004c DA64     		str	r2, [r3, #76]
1575:Drivers/STM32H7xx_HAL_Driver/Src/stm32h7xx_hal_dma.c **** 
 7007              		.loc 1 1575 0
 7008 004e 0020     		movs	r0, #0
1608:Drivers/STM32H7xx_HAL_Driver/Src/stm32h7xx_hal_dma.c **** 
 7009              		.loc 1 1608 0
 7010 0050 E5E7     		b	.L738
 7011              	.L745:
1611:Drivers/STM32H7xx_HAL_Driver/Src/stm32h7xx_hal_dma.c ****       break;
 7012              		.loc 1 1611 0
 7013 0052 1A65     		str	r2, [r3, #80]
1575:Drivers/STM32H7xx_HAL_Driver/Src/stm32h7xx_hal_dma.c **** 
 7014              		.loc 1 1575 0
 7015 0054 0020     		movs	r0, #0
1612:Drivers/STM32H7xx_HAL_Driver/Src/stm32h7xx_hal_dma.c **** 
 7016              		.loc 1 1612 0
 7017 0056 E2E7     		b	.L738
 7018              	.L749:
1615:Drivers/STM32H7xx_HAL_Driver/Src/stm32h7xx_hal_dma.c ****       break;
 7019              		.loc 1 1615 0
 7020 0058 0120     		movs	r0, #1
ARM GAS  C:\Users\CompuTOP\AppData\Local\Temp\cc4hOfP8.s 			page 180


 7021 005a E0E7     		b	.L738
 7022              	.LVL261:
 7023              	.L746:
1580:Drivers/STM32H7xx_HAL_Driver/Src/stm32h7xx_hal_dma.c ****   }
 7024              		.loc 1 1580 0
 7025 005c 0120     		movs	r0, #1
 7026              	.LVL262:
 7027 005e 7047     		bx	lr
 7028              	.L747:
1584:Drivers/STM32H7xx_HAL_Driver/Src/stm32h7xx_hal_dma.c **** 
 7029              		.loc 1 1584 0
 7030 0060 0220     		movs	r0, #2
1629:Drivers/STM32H7xx_HAL_Driver/Src/stm32h7xx_hal_dma.c **** 
 7031              		.loc 1 1629 0
 7032 0062 7047     		bx	lr
 7033              		.cfi_endproc
 7034              	.LFE152:
 7036              		.section	.text.HAL_DMA_UnRegisterCallback,"ax",%progbits
 7037              		.align	1
 7038              		.global	HAL_DMA_UnRegisterCallback
 7039              		.syntax unified
 7040              		.thumb
 7041              		.thumb_func
 7042              		.fpu fpv5-d16
 7044              	HAL_DMA_UnRegisterCallback:
 7045              	.LFB153:
1640:Drivers/STM32H7xx_HAL_Driver/Src/stm32h7xx_hal_dma.c ****   HAL_StatusTypeDef status = HAL_OK;
 7046              		.loc 1 1640 0
 7047              		.cfi_startproc
 7048              		@ args = 0, pretend = 0, frame = 0
 7049              		@ frame_needed = 0, uses_anonymous_args = 0
 7050              		@ link register save eliminated.
 7051              	.LVL263:
1644:Drivers/STM32H7xx_HAL_Driver/Src/stm32h7xx_hal_dma.c ****   {
 7052              		.loc 1 1644 0
 7053 0000 0346     		mov	r3, r0
 7054 0002 0028     		cmp	r0, #0
 7055 0004 34D0     		beq	.L762
1650:Drivers/STM32H7xx_HAL_Driver/Src/stm32h7xx_hal_dma.c **** 
 7056              		.loc 1 1650 0
 7057 0006 90F83420 		ldrb	r2, [r0, #52]	@ zero_extendqisi2
 7058 000a 012A     		cmp	r2, #1
 7059 000c 32D0     		beq	.L763
1650:Drivers/STM32H7xx_HAL_Driver/Src/stm32h7xx_hal_dma.c **** 
 7060              		.loc 1 1650 0 is_stmt 0 discriminator 2
 7061 000e 0122     		movs	r2, #1
 7062 0010 80F83420 		strb	r2, [r0, #52]
1652:Drivers/STM32H7xx_HAL_Driver/Src/stm32h7xx_hal_dma.c ****   {
 7063              		.loc 1 1652 0 is_stmt 1 discriminator 2
 7064 0014 90F83520 		ldrb	r2, [r0, #53]	@ zero_extendqisi2
 7065 0018 D2B2     		uxtb	r2, r2
 7066 001a 012A     		cmp	r2, #1
 7067 001c 04D0     		beq	.L766
1696:Drivers/STM32H7xx_HAL_Driver/Src/stm32h7xx_hal_dma.c ****   }
 7068              		.loc 1 1696 0
 7069 001e 0120     		movs	r0, #1
 7070              	.LVL264:
ARM GAS  C:\Users\CompuTOP\AppData\Local\Temp\cc4hOfP8.s 			page 181


 7071              	.L753:
1700:Drivers/STM32H7xx_HAL_Driver/Src/stm32h7xx_hal_dma.c **** 
 7072              		.loc 1 1700 0
 7073 0020 0022     		movs	r2, #0
 7074 0022 83F83420 		strb	r2, [r3, #52]
1702:Drivers/STM32H7xx_HAL_Driver/Src/stm32h7xx_hal_dma.c **** }
 7075              		.loc 1 1702 0
 7076 0026 7047     		bx	lr
 7077              	.LVL265:
 7078              	.L766:
1654:Drivers/STM32H7xx_HAL_Driver/Src/stm32h7xx_hal_dma.c ****     {
 7079              		.loc 1 1654 0
 7080 0028 0629     		cmp	r1, #6
 7081 002a 1FD8     		bhi	.L765
 7082 002c DFE801F0 		tbb	[pc, r1]
 7083              	.L755:
 7084 0030 04       		.byte	(.L754-.L755)/2
 7085 0031 07       		.byte	(.L756-.L755)/2
 7086 0032 0A       		.byte	(.L757-.L755)/2
 7087 0033 0D       		.byte	(.L758-.L755)/2
 7088 0034 10       		.byte	(.L759-.L755)/2
 7089 0035 13       		.byte	(.L760-.L755)/2
 7090 0036 16       		.byte	(.L761-.L755)/2
 7091 0037 00       		.p2align 1
 7092              	.L754:
1657:Drivers/STM32H7xx_HAL_Driver/Src/stm32h7xx_hal_dma.c ****       break;
 7093              		.loc 1 1657 0
 7094 0038 0020     		movs	r0, #0
 7095              	.LVL266:
 7096 003a D863     		str	r0, [r3, #60]
1658:Drivers/STM32H7xx_HAL_Driver/Src/stm32h7xx_hal_dma.c **** 
 7097              		.loc 1 1658 0
 7098 003c F0E7     		b	.L753
 7099              	.LVL267:
 7100              	.L756:
1661:Drivers/STM32H7xx_HAL_Driver/Src/stm32h7xx_hal_dma.c ****       break;
 7101              		.loc 1 1661 0
 7102 003e 0020     		movs	r0, #0
 7103              	.LVL268:
 7104 0040 1864     		str	r0, [r3, #64]
1662:Drivers/STM32H7xx_HAL_Driver/Src/stm32h7xx_hal_dma.c **** 
 7105              		.loc 1 1662 0
 7106 0042 EDE7     		b	.L753
 7107              	.LVL269:
 7108              	.L757:
1665:Drivers/STM32H7xx_HAL_Driver/Src/stm32h7xx_hal_dma.c ****       break;
 7109              		.loc 1 1665 0
 7110 0044 0020     		movs	r0, #0
 7111              	.LVL270:
 7112 0046 5864     		str	r0, [r3, #68]
1666:Drivers/STM32H7xx_HAL_Driver/Src/stm32h7xx_hal_dma.c **** 
 7113              		.loc 1 1666 0
 7114 0048 EAE7     		b	.L753
 7115              	.LVL271:
 7116              	.L758:
1669:Drivers/STM32H7xx_HAL_Driver/Src/stm32h7xx_hal_dma.c ****       break;
 7117              		.loc 1 1669 0
ARM GAS  C:\Users\CompuTOP\AppData\Local\Temp\cc4hOfP8.s 			page 182


 7118 004a 0020     		movs	r0, #0
 7119              	.LVL272:
 7120 004c 9864     		str	r0, [r3, #72]
1670:Drivers/STM32H7xx_HAL_Driver/Src/stm32h7xx_hal_dma.c **** 
 7121              		.loc 1 1670 0
 7122 004e E7E7     		b	.L753
 7123              	.LVL273:
 7124              	.L759:
1673:Drivers/STM32H7xx_HAL_Driver/Src/stm32h7xx_hal_dma.c ****       break;
 7125              		.loc 1 1673 0
 7126 0050 0020     		movs	r0, #0
 7127              	.LVL274:
 7128 0052 D864     		str	r0, [r3, #76]
1674:Drivers/STM32H7xx_HAL_Driver/Src/stm32h7xx_hal_dma.c **** 
 7129              		.loc 1 1674 0
 7130 0054 E4E7     		b	.L753
 7131              	.LVL275:
 7132              	.L760:
1677:Drivers/STM32H7xx_HAL_Driver/Src/stm32h7xx_hal_dma.c ****       break;
 7133              		.loc 1 1677 0
 7134 0056 0020     		movs	r0, #0
 7135              	.LVL276:
 7136 0058 1865     		str	r0, [r3, #80]
1678:Drivers/STM32H7xx_HAL_Driver/Src/stm32h7xx_hal_dma.c **** 
 7137              		.loc 1 1678 0
 7138 005a E1E7     		b	.L753
 7139              	.LVL277:
 7140              	.L761:
1681:Drivers/STM32H7xx_HAL_Driver/Src/stm32h7xx_hal_dma.c ****       hdma->XferHalfCpltCallback = NULL;
 7141              		.loc 1 1681 0
 7142 005c 0020     		movs	r0, #0
 7143              	.LVL278:
 7144 005e D863     		str	r0, [r3, #60]
1682:Drivers/STM32H7xx_HAL_Driver/Src/stm32h7xx_hal_dma.c ****       hdma->XferM1CpltCallback = NULL;
 7145              		.loc 1 1682 0
 7146 0060 1864     		str	r0, [r3, #64]
1683:Drivers/STM32H7xx_HAL_Driver/Src/stm32h7xx_hal_dma.c ****       hdma->XferM1HalfCpltCallback = NULL;
 7147              		.loc 1 1683 0
 7148 0062 5864     		str	r0, [r3, #68]
1684:Drivers/STM32H7xx_HAL_Driver/Src/stm32h7xx_hal_dma.c ****       hdma->XferErrorCallback = NULL;
 7149              		.loc 1 1684 0
 7150 0064 9864     		str	r0, [r3, #72]
1685:Drivers/STM32H7xx_HAL_Driver/Src/stm32h7xx_hal_dma.c ****       hdma->XferAbortCallback = NULL;
 7151              		.loc 1 1685 0
 7152 0066 D864     		str	r0, [r3, #76]
1686:Drivers/STM32H7xx_HAL_Driver/Src/stm32h7xx_hal_dma.c ****       break;
 7153              		.loc 1 1686 0
 7154 0068 1865     		str	r0, [r3, #80]
1687:Drivers/STM32H7xx_HAL_Driver/Src/stm32h7xx_hal_dma.c **** 
 7155              		.loc 1 1687 0
 7156 006a D9E7     		b	.L753
 7157              	.LVL279:
 7158              	.L765:
1690:Drivers/STM32H7xx_HAL_Driver/Src/stm32h7xx_hal_dma.c ****       break;
 7159              		.loc 1 1690 0
 7160 006c 0120     		movs	r0, #1
 7161              	.LVL280:
ARM GAS  C:\Users\CompuTOP\AppData\Local\Temp\cc4hOfP8.s 			page 183


 7162 006e D7E7     		b	.L753
 7163              	.LVL281:
 7164              	.L762:
1646:Drivers/STM32H7xx_HAL_Driver/Src/stm32h7xx_hal_dma.c ****   }
 7165              		.loc 1 1646 0
 7166 0070 0120     		movs	r0, #1
 7167              	.LVL282:
 7168 0072 7047     		bx	lr
 7169              	.LVL283:
 7170              	.L763:
1650:Drivers/STM32H7xx_HAL_Driver/Src/stm32h7xx_hal_dma.c **** 
 7171              		.loc 1 1650 0
 7172 0074 0220     		movs	r0, #2
 7173              	.LVL284:
1703:Drivers/STM32H7xx_HAL_Driver/Src/stm32h7xx_hal_dma.c **** 
 7174              		.loc 1 1703 0
 7175 0076 7047     		bx	lr
 7176              		.cfi_endproc
 7177              	.LFE153:
 7179              		.section	.text.HAL_DMA_GetState,"ax",%progbits
 7180              		.align	1
 7181              		.global	HAL_DMA_GetState
 7182              		.syntax unified
 7183              		.thumb
 7184              		.thumb_func
 7185              		.fpu fpv5-d16
 7187              	HAL_DMA_GetState:
 7188              	.LFB154:
1731:Drivers/STM32H7xx_HAL_Driver/Src/stm32h7xx_hal_dma.c ****   return hdma->State;
 7189              		.loc 1 1731 0
 7190              		.cfi_startproc
 7191              		@ args = 0, pretend = 0, frame = 0
 7192              		@ frame_needed = 0, uses_anonymous_args = 0
 7193              		@ link register save eliminated.
 7194              	.LVL285:
1732:Drivers/STM32H7xx_HAL_Driver/Src/stm32h7xx_hal_dma.c **** }
 7195              		.loc 1 1732 0
 7196 0000 90F83500 		ldrb	r0, [r0, #53]	@ zero_extendqisi2
 7197              	.LVL286:
1733:Drivers/STM32H7xx_HAL_Driver/Src/stm32h7xx_hal_dma.c **** 
 7198              		.loc 1 1733 0
 7199 0004 7047     		bx	lr
 7200              		.cfi_endproc
 7201              	.LFE154:
 7203              		.section	.text.HAL_DMA_GetError,"ax",%progbits
 7204              		.align	1
 7205              		.global	HAL_DMA_GetError
 7206              		.syntax unified
 7207              		.thumb
 7208              		.thumb_func
 7209              		.fpu fpv5-d16
 7211              	HAL_DMA_GetError:
 7212              	.LFB155:
1742:Drivers/STM32H7xx_HAL_Driver/Src/stm32h7xx_hal_dma.c ****   return hdma->ErrorCode;
 7213              		.loc 1 1742 0
 7214              		.cfi_startproc
 7215              		@ args = 0, pretend = 0, frame = 0
ARM GAS  C:\Users\CompuTOP\AppData\Local\Temp\cc4hOfP8.s 			page 184


 7216              		@ frame_needed = 0, uses_anonymous_args = 0
 7217              		@ link register save eliminated.
 7218              	.LVL287:
1743:Drivers/STM32H7xx_HAL_Driver/Src/stm32h7xx_hal_dma.c **** }
 7219              		.loc 1 1743 0
 7220 0000 406D     		ldr	r0, [r0, #84]
 7221              	.LVL288:
1744:Drivers/STM32H7xx_HAL_Driver/Src/stm32h7xx_hal_dma.c **** 
 7222              		.loc 1 1744 0
 7223 0002 7047     		bx	lr
 7224              		.cfi_endproc
 7225              	.LFE155:
 7227              		.section	.rodata.flagBitshiftOffset.10924,"a",%progbits
 7228              		.align	2
 7229              		.set	.LANCHOR0,. + 0
 7232              	flagBitshiftOffset.10924:
 7233 0000 00       		.byte	0
 7234 0001 06       		.byte	6
 7235 0002 10       		.byte	16
 7236 0003 16       		.byte	22
 7237 0004 00       		.byte	0
 7238 0005 06       		.byte	6
 7239 0006 10       		.byte	16
 7240 0007 16       		.byte	22
 7241              		.text
 7242              	.Letext0:
 7243              		.file 2 "c:\\program files (x86)\\gnu tools arm embedded\\6 2017-q2-update\\arm-none-eabi\\include
 7244              		.file 3 "c:\\program files (x86)\\gnu tools arm embedded\\6 2017-q2-update\\arm-none-eabi\\include
 7245              		.file 4 "Drivers/CMSIS/Include/core_cm7.h"
 7246              		.file 5 "Drivers/CMSIS/Device/ST/STM32H7xx/Include/system_stm32h7xx.h"
 7247              		.file 6 "Drivers/CMSIS/Device/ST/STM32H7xx/Include/stm32h743xx.h"
 7248              		.file 7 "c:\\program files (x86)\\gnu tools arm embedded\\6 2017-q2-update\\arm-none-eabi\\include
 7249              		.file 8 "c:\\program files (x86)\\gnu tools arm embedded\\6 2017-q2-update\\arm-none-eabi\\include
 7250              		.file 9 "c:\\program files (x86)\\gnu tools arm embedded\\6 2017-q2-update\\lib\\gcc\\arm-none-eab
 7251              		.file 10 "c:\\program files (x86)\\gnu tools arm embedded\\6 2017-q2-update\\arm-none-eabi\\includ
 7252              		.file 11 "c:\\program files (x86)\\gnu tools arm embedded\\6 2017-q2-update\\arm-none-eabi\\includ
 7253              		.file 12 "Drivers/STM32H7xx_HAL_Driver/Inc/stm32h7xx_hal_def.h"
 7254              		.file 13 "Drivers/STM32H7xx_HAL_Driver/Inc/stm32h7xx_hal_dma.h"
 7255              		.file 14 "Drivers/STM32H7xx_HAL_Driver/Inc/stm32h7xx_hal_flash.h"
 7256              		.file 15 "Drivers/STM32H7xx_HAL_Driver/Inc/stm32h7xx_hal_uart.h"
 7257              		.file 16 "Drivers/STM32H7xx_HAL_Driver/Inc/stm32h7xx_hal.h"
ARM GAS  C:\Users\CompuTOP\AppData\Local\Temp\cc4hOfP8.s 			page 185


DEFINED SYMBOLS
                            *ABS*:00000000 stm32h7xx_hal_dma.c
C:\Users\CompuTOP\AppData\Local\Temp\cc4hOfP8.s:17     .text.DMA_SetConfig:00000000 $t
C:\Users\CompuTOP\AppData\Local\Temp\cc4hOfP8.s:23     .text.DMA_SetConfig:00000000 DMA_SetConfig
C:\Users\CompuTOP\AppData\Local\Temp\cc4hOfP8.s:475    .text.DMA_SetConfig:00000260 $d
C:\Users\CompuTOP\AppData\Local\Temp\cc4hOfP8.s:483    .text.DMA_CalcBaseAndBitshift:00000000 $t
C:\Users\CompuTOP\AppData\Local\Temp\cc4hOfP8.s:489    .text.DMA_CalcBaseAndBitshift:00000000 DMA_CalcBaseAndBitshift
C:\Users\CompuTOP\AppData\Local\Temp\cc4hOfP8.s:678    .text.DMA_CalcBaseAndBitshift:000000e4 $d
C:\Users\CompuTOP\AppData\Local\Temp\cc4hOfP8.s:687    .text.DMA_CheckFifoParam:00000000 $t
C:\Users\CompuTOP\AppData\Local\Temp\cc4hOfP8.s:693    .text.DMA_CheckFifoParam:00000000 DMA_CheckFifoParam
C:\Users\CompuTOP\AppData\Local\Temp\cc4hOfP8.s:758    .text.DMA_CheckFifoParam:0000004a $d
C:\Users\CompuTOP\AppData\Local\Temp\cc4hOfP8.s:762    .text.DMA_CheckFifoParam:0000004e $t
C:\Users\CompuTOP\AppData\Local\Temp\cc4hOfP8.s:845    .text.DMA_CalcDMAMUXChannelBaseAndMask:00000000 $t
C:\Users\CompuTOP\AppData\Local\Temp\cc4hOfP8.s:851    .text.DMA_CalcDMAMUXChannelBaseAndMask:00000000 DMA_CalcDMAMUXChannelBaseAndMask
C:\Users\CompuTOP\AppData\Local\Temp\cc4hOfP8.s:980    .text.DMA_CalcDMAMUXChannelBaseAndMask:000000a8 $d
C:\Users\CompuTOP\AppData\Local\Temp\cc4hOfP8.s:993    .text.DMA_CalcDMAMUXRequestGenBaseAndMask:00000000 $t
C:\Users\CompuTOP\AppData\Local\Temp\cc4hOfP8.s:999    .text.DMA_CalcDMAMUXRequestGenBaseAndMask:00000000 DMA_CalcDMAMUXRequestGenBaseAndMask
C:\Users\CompuTOP\AppData\Local\Temp\cc4hOfP8.s:1117   .text.DMA_CalcDMAMUXRequestGenBaseAndMask:00000084 $d
C:\Users\CompuTOP\AppData\Local\Temp\cc4hOfP8.s:1127   .text.HAL_DMA_Init:00000000 $t
C:\Users\CompuTOP\AppData\Local\Temp\cc4hOfP8.s:1134   .text.HAL_DMA_Init:00000000 HAL_DMA_Init
C:\Users\CompuTOP\AppData\Local\Temp\cc4hOfP8.s:1547   .text.HAL_DMA_Init:00000248 $d
C:\Users\CompuTOP\AppData\Local\Temp\cc4hOfP8.s:1556   .text.HAL_DMA_Init:00000268 $t
C:\Users\CompuTOP\AppData\Local\Temp\cc4hOfP8.s:1918   .text.HAL_DMA_Init:00000450 $d
C:\Users\CompuTOP\AppData\Local\Temp\cc4hOfP8.s:1928   .text.HAL_DMA_DeInit:00000000 $t
C:\Users\CompuTOP\AppData\Local\Temp\cc4hOfP8.s:1935   .text.HAL_DMA_DeInit:00000000 HAL_DMA_DeInit
C:\Users\CompuTOP\AppData\Local\Temp\cc4hOfP8.s:2342   .text.HAL_DMA_DeInit:0000021c $d
C:\Users\CompuTOP\AppData\Local\Temp\cc4hOfP8.s:2350   .text.HAL_DMA_Start:00000000 $t
C:\Users\CompuTOP\AppData\Local\Temp\cc4hOfP8.s:2357   .text.HAL_DMA_Start:00000000 HAL_DMA_Start
C:\Users\CompuTOP\AppData\Local\Temp\cc4hOfP8.s:2596   .text.HAL_DMA_Start:00000140 $d
C:\Users\CompuTOP\AppData\Local\Temp\cc4hOfP8.s:2602   .text.HAL_DMA_Start_IT:00000000 $t
C:\Users\CompuTOP\AppData\Local\Temp\cc4hOfP8.s:2609   .text.HAL_DMA_Start_IT:00000000 HAL_DMA_Start_IT
C:\Users\CompuTOP\AppData\Local\Temp\cc4hOfP8.s:3132   .text.HAL_DMA_Start_IT:0000034c $d
C:\Users\CompuTOP\AppData\Local\Temp\cc4hOfP8.s:3136   .text.HAL_DMA_Start_IT:00000358 $t
C:\Users\CompuTOP\AppData\Local\Temp\cc4hOfP8.s:3190   .text.HAL_DMA_Abort:00000000 $t
C:\Users\CompuTOP\AppData\Local\Temp\cc4hOfP8.s:3197   .text.HAL_DMA_Abort:00000000 HAL_DMA_Abort
C:\Users\CompuTOP\AppData\Local\Temp\cc4hOfP8.s:3726   .text.HAL_DMA_Abort:00000348 $d
C:\Users\CompuTOP\AppData\Local\Temp\cc4hOfP8.s:3730   .text.HAL_DMA_Abort:00000354 $t
C:\Users\CompuTOP\AppData\Local\Temp\cc4hOfP8.s:4006   .text.HAL_DMA_Abort:000004cc $d
C:\Users\CompuTOP\AppData\Local\Temp\cc4hOfP8.s:4013   .text.HAL_DMA_Abort_IT:00000000 $t
C:\Users\CompuTOP\AppData\Local\Temp\cc4hOfP8.s:4020   .text.HAL_DMA_Abort_IT:00000000 HAL_DMA_Abort_IT
C:\Users\CompuTOP\AppData\Local\Temp\cc4hOfP8.s:4534   .text.HAL_DMA_Abort_IT:000002e0 $d
C:\Users\CompuTOP\AppData\Local\Temp\cc4hOfP8.s:4539   .text.HAL_DMA_Abort_IT:000002f0 $t
C:\Users\CompuTOP\AppData\Local\Temp\cc4hOfP8.s:4580   .text.HAL_DMA_PollForTransfer:00000000 $t
C:\Users\CompuTOP\AppData\Local\Temp\cc4hOfP8.s:4587   .text.HAL_DMA_PollForTransfer:00000000 HAL_DMA_PollForTransfer
C:\Users\CompuTOP\AppData\Local\Temp\cc4hOfP8.s:5126   .text.HAL_DMA_PollForTransfer:0000034c $d
C:\Users\CompuTOP\AppData\Local\Temp\cc4hOfP8.s:5132   .text.HAL_DMA_PollForTransfer:00000358 $t
C:\Users\CompuTOP\AppData\Local\Temp\cc4hOfP8.s:5554   .text.HAL_DMA_PollForTransfer:000005c8 $d
C:\Users\CompuTOP\AppData\Local\Temp\cc4hOfP8.s:5560   .text.HAL_DMA_IRQHandler:00000000 $t
C:\Users\CompuTOP\AppData\Local\Temp\cc4hOfP8.s:5567   .text.HAL_DMA_IRQHandler:00000000 HAL_DMA_IRQHandler
C:\Users\CompuTOP\AppData\Local\Temp\cc4hOfP8.s:5991   .text.HAL_DMA_IRQHandler:00000274 $d
C:\Users\CompuTOP\AppData\Local\Temp\cc4hOfP8.s:5998   .text.HAL_DMA_IRQHandler:00000288 $t
C:\Users\CompuTOP\AppData\Local\Temp\cc4hOfP8.s:6457   .text.HAL_DMA_IRQHandler:0000054c $d
C:\Users\CompuTOP\AppData\Local\Temp\cc4hOfP8.s:6464   .text.HAL_DMA_IRQHandler:00000554 $t
C:\Users\CompuTOP\AppData\Local\Temp\cc4hOfP8.s:6912   .text.HAL_DMA_IRQHandler:000007e4 $d
C:\Users\CompuTOP\AppData\Local\Temp\cc4hOfP8.s:6921   .text.HAL_DMA_RegisterCallback:00000000 $t
C:\Users\CompuTOP\AppData\Local\Temp\cc4hOfP8.s:6928   .text.HAL_DMA_RegisterCallback:00000000 HAL_DMA_RegisterCallback
C:\Users\CompuTOP\AppData\Local\Temp\cc4hOfP8.s:6969   .text.HAL_DMA_RegisterCallback:0000002e $d
ARM GAS  C:\Users\CompuTOP\AppData\Local\Temp\cc4hOfP8.s 			page 186


C:\Users\CompuTOP\AppData\Local\Temp\cc4hOfP8.s:6975   .text.HAL_DMA_RegisterCallback:00000034 $t
C:\Users\CompuTOP\AppData\Local\Temp\cc4hOfP8.s:7037   .text.HAL_DMA_UnRegisterCallback:00000000 $t
C:\Users\CompuTOP\AppData\Local\Temp\cc4hOfP8.s:7044   .text.HAL_DMA_UnRegisterCallback:00000000 HAL_DMA_UnRegisterCallback
C:\Users\CompuTOP\AppData\Local\Temp\cc4hOfP8.s:7084   .text.HAL_DMA_UnRegisterCallback:00000030 $d
C:\Users\CompuTOP\AppData\Local\Temp\cc4hOfP8.s:7180   .text.HAL_DMA_GetState:00000000 $t
C:\Users\CompuTOP\AppData\Local\Temp\cc4hOfP8.s:7187   .text.HAL_DMA_GetState:00000000 HAL_DMA_GetState
C:\Users\CompuTOP\AppData\Local\Temp\cc4hOfP8.s:7204   .text.HAL_DMA_GetError:00000000 $t
C:\Users\CompuTOP\AppData\Local\Temp\cc4hOfP8.s:7211   .text.HAL_DMA_GetError:00000000 HAL_DMA_GetError
C:\Users\CompuTOP\AppData\Local\Temp\cc4hOfP8.s:7228   .rodata.flagBitshiftOffset.10924:00000000 $d
C:\Users\CompuTOP\AppData\Local\Temp\cc4hOfP8.s:7232   .rodata.flagBitshiftOffset.10924:00000000 flagBitshiftOffset.10924
                     .debug_frame:00000010 $d
C:\Users\CompuTOP\AppData\Local\Temp\cc4hOfP8.s:7091   .text.HAL_DMA_UnRegisterCallback:00000037 $d
C:\Users\CompuTOP\AppData\Local\Temp\cc4hOfP8.s:7091   .text.HAL_DMA_UnRegisterCallback:00000038 $t

UNDEFINED SYMBOLS
HAL_GetTick
SystemCoreClock
